 trajectory_jerk_sfun

 Timestamp is 662eaeee (Sun Apr 28 13:17:50 2024)

 Preferred load address is 0000000180000000

 Start         Length     Name                   Class
 0001:00000000 00000100H .text$di                CODE
 0001:00000100 0006e7d0H .text$mn                CODE
 0001:0006e8d0 00000036H .text$mn$00             CODE
 0001:0006e906 0000009aH .text$x                 CODE
 0001:0006e9a0 00000058H .text$yd                CODE
 0002:00000000 00000948H .idata$5                DATA
 0002:00000948 00000038H .00cfg                  DATA
 0002:00000980 00000008H .CRT$XCA                DATA
 0002:00000988 00000008H .CRT$XCB                DATA
 0002:00000990 00000008H .CRT$XCD                DATA
 0002:00000998 00000020H .CRT$XCT                DATA
 0002:000009b8 00000068H .CRT$XCU                DATA
 0002:00000a20 00000008H .CRT$XCZ                DATA
 0002:00000a28 00000008H .CRT$XIA                DATA
 0002:00000a30 00000008H .CRT$XIZ                DATA
 0002:00000a38 00000008H .CRT$XLA                DATA
 0002:00000a40 00000008H .CRT$XLZ                DATA
 0002:00000a48 00000008H .CRT$XPA                DATA
 0002:00000a50 00000008H .CRT$XPZ                DATA
 0002:00000a58 00000008H .CRT$XTA                DATA
 0002:00000a60 00000010H .CRT$XTZ                DATA
 0002:00000a68 00000000H .gehcont$y              DATA
 0002:00000a68 00000000H .gfids$y                DATA
 0002:00000a70 00010e90H .rdata                  DATA
 0002:00011900 00000080H .rdata$CastGuardVftablesA DATA
 0002:00011980 00000080H .rdata$CastGuardVftablesC DATA
 0002:00011a00 00000028H .rdata$T                DATA
 0002:00011a28 00000194H .rdata$voltmd           DATA
 0002:00011bbc 00000424H .rdata$zzzdbg           DATA
 0002:00011fe0 00000008H .rtc$IAA                DATA
 0002:00011fe8 00000008H .rtc$IZZ                DATA
 0002:00011ff0 00000008H .rtc$TAA                DATA
 0002:00011ff8 00000008H .rtc$TZZ                DATA
 0002:00012000 00001000H .tls                    DATA
 0002:00013000 00001000H .tls$                   DATA
 0002:00014000 00000008H .tls$ZZZ                DATA
 0002:00014008 000084d8H .xdata                  DATA
 0002:0001c4e0 000000a0H .edata                  DATA
 0002:0001c580 00000140H .idata$2                DATA
 0002:0001c6c0 00000018H .idata$3                DATA
 0002:0001c6d8 00000948H .idata$4                DATA
 0002:0001d020 00001466H .idata$6                DATA
 0003:00000000 000000d0H .data                   DATA
 0003:000000d0 00003010H .bss                    DATA
 0004:00000000 00005f34H .pdata                  DATA
 0005:00000000 00000195H __nv_module_id          DATA
 0006:00000000 00000428H .nv_fatbin              DATA
 0007:00000000 00000078H .nvFatBinSegment        DATA
 0008:00000000 00000800H __nv_relfatbin          DATA
 0009:00000000 00000001H .nvHRKI                 DATA
 000a:00000000 00000001H .nvHRKE                 DATA
 000b:00000000 00000001H .nvHRDI                 DATA
 000c:00000000 00000001H .nvHRDE                 DATA
 000d:00000000 00000001H .nvHRCI                 DATA
 000e:00000000 00000001H .nvHRCE                 DATA

  Address         Publics by Value              Rva+Base               Lib:Object

 0000:00000000       __AbsoluteZero             0000000000000000     <absolute>
 0000:00000000       ___safe_se_handler_count   0000000000000000     <absolute>
 0000:00000000       ___safe_se_handler_table   0000000000000000     <absolute>
 0000:00000000       __arm64x_extra_rfe_table   0000000000000000     <absolute>
 0000:00000000       __arm64x_extra_rfe_table_size 0000000000000000     <absolute>
 0000:00000000       __arm64x_native_entrypoint 0000000000000000     <absolute>
 0000:00000000       __arm64x_redirection_metadata 0000000000000000     <absolute>
 0000:00000000       __arm64x_redirection_metadata_count 0000000000000000     <absolute>
 0000:00000000       __dynamic_value_reloc_table 0000000000000000     <absolute>
 0000:00000000       __enclave_config           0000000000000000     <absolute>
 0000:00000000       __guard_check_icall_a64n_fptr 0000000000000000     <absolute>
 0000:00000000       __guard_eh_cont_count      0000000000000000     <absolute>
 0000:00000000       __guard_eh_cont_table      0000000000000000     <absolute>
 0000:00000000       __guard_fids_count         0000000000000000     <absolute>
 0000:00000000       __guard_fids_table         0000000000000000     <absolute>
 0000:00000000       __guard_iat_count          0000000000000000     <absolute>
 0000:00000000       __guard_iat_table          0000000000000000     <absolute>
 0000:00000000       __guard_longjmp_count      0000000000000000     <absolute>
 0000:00000000       __guard_longjmp_table      0000000000000000     <absolute>
 0000:00000000       __hybrid_auxiliary_delayload_iat 0000000000000000     <absolute>
 0000:00000000       __hybrid_auxiliary_delayload_iat_copy 0000000000000000     <absolute>
 0000:00000000       __hybrid_auxiliary_iat     0000000000000000     <absolute>
 0000:00000000       __hybrid_auxiliary_iat_copy 0000000000000000     <absolute>
 0000:00000000       __hybrid_code_map          0000000000000000     <absolute>
 0000:00000000       __hybrid_code_map_count    0000000000000000     <absolute>
 0000:00000000       __hybrid_image_info_bitfield 0000000000000000     <absolute>
 0000:00000000       __x64_code_ranges_to_entry_points 0000000000000000     <absolute>
 0000:00000000       __x64_code_ranges_to_entry_points_count 0000000000000000     <absolute>
 0000:00000100       __guard_flags              0000000000000100     <absolute>
 0000:00000000       __ImageBase                0000000180000000     <linker-defined>
 0001:00000220       __cudaRegisterLinkedBinary_a768413d_23_trajectory_jerk_sfun_cu_a370f8d8 0000000180001220 f   tmpxft_00004aec_00000000-11_trajectory_jerk_sfun_dlink.obj
 0001:00000280       __cudaRegisterLinkedBinary_e4e5ddec_32_trajectory_jerk_sfun_registry_cu_baf3c205 0000000180001280 f   tmpxft_00004aec_00000000-11_trajectory_jerk_sfun_dlink.obj
 0001:000002e0       __cudaRegisterLinkedBinary_0b629b6d_21_c3_trajectory_jerk_cu_93fdcb10 00000001800012e0 f   tmpxft_00004aec_00000000-11_trajectory_jerk_sfun_dlink.obj
 0001:00000340       __cudaRegisterLinkedBinary_5043c683_22_c14_trajectory_jerk_cu_5f2749d3 0000000180001340 f   tmpxft_00004aec_00000000-11_trajectory_jerk_sfun_dlink.obj
 0001:000003e0       ?trajectory_jerk_initializer@@YAXXZ 00000001800013e0 f   trajectory_jerk_sfun.obj
 0001:000003f0       ?trajectory_jerk_terminator@@YAXXZ 00000001800013f0 f   trajectory_jerk_sfun.obj
 0001:00000400       ?load_trajectory_jerk_optimization_info@@YAPEAUmxArray_tag@@EEE@Z 0000000180001400 f   trajectory_jerk_sfun.obj
 0001:000004b0       ?unload_trajectory_jerk_optimization_info@@YAXXZ 00000001800014b0 f   trajectory_jerk_sfun.obj
 0001:000004e0       ?sf_trajectory_jerk_method_dispatcher@@YAIPEAUSimStruct_tag@@IPEBDHPEAX@Z 00000001800014e0 f   trajectory_jerk_sfun.obj
 0001:00000550       ?sf_trajectory_jerk_process_check_sum_call@@YAIHQEAPEAUmxArray_tag@@HQEAPEBU1@@Z 0000000180001550 f   trajectory_jerk_sfun.obj
 0001:00000a60       ?sf_trajectory_jerk_get_eml_resolved_functions_info@@YAIHQEAPEAUmxArray_tag@@HQEAPEBU1@@Z 0000000180001a60 f   trajectory_jerk_sfun.obj
 0001:00000ca0       ?sf_trajectory_jerk_third_party_uses_info@@YAIHQEAPEAUmxArray_tag@@HQEAPEBU1@@Z 0000000180001ca0 f   trajectory_jerk_sfun.obj
 0001:00000ea0       ?sf_trajectory_jerk_jit_fallback_info@@YAIHQEAPEAUmxArray_tag@@HQEAPEBU1@@Z 0000000180001ea0 f   trajectory_jerk_sfun.obj
 0001:000010a0       ?sf_trajectory_jerk_get_post_codegen_info@@YAIHQEAPEAUmxArray_tag@@HQEAPEBU1@@Z 00000001800020a0 f   trajectory_jerk_sfun.obj
 0001:000012c0       ?sf_trajectory_jerk_updateBuildInfo_args_info@@YAIHQEAPEAUmxArray_tag@@HQEAPEBU1@@Z 00000001800022c0 f   trajectory_jerk_sfun.obj
 0001:00001540       ?abs@@YAJJ@Z               0000000180002540 f i trajectory_jerk_sfun.obj
 0001:00001560       ?abs@@YAMM@Z               0000000180002560 f i trajectory_jerk_sfun.obj
 0001:00001580       ?abs@@YANN@Z               0000000180002580 f i trajectory_jerk_sfun.obj
 0001:000015a0       ?abs@@YA_J_J@Z             00000001800025a0 f i trajectory_jerk_sfun.obj
 0001:000015c0       ?acos@@YAMM@Z              00000001800025c0 f i trajectory_jerk_sfun.obj
 0001:000015e0       ?acosh@@YAMM@Z             00000001800025e0 f i trajectory_jerk_sfun.obj
 0001:00001600       ?asin@@YAMM@Z              0000000180002600 f i trajectory_jerk_sfun.obj
 0001:00001620       ?asinh@@YAMM@Z             0000000180002620 f i trajectory_jerk_sfun.obj
 0001:00001640       ?atan2@@YAMMM@Z            0000000180002640 f i trajectory_jerk_sfun.obj
 0001:00001670       ?atan@@YAMM@Z              0000000180002670 f i trajectory_jerk_sfun.obj
 0001:00001690       ?atanh@@YAMM@Z             0000000180002690 f i trajectory_jerk_sfun.obj
 0001:000016b0       ?cbrt@@YAMM@Z              00000001800026b0 f i trajectory_jerk_sfun.obj
 0001:000016d0       ?ceil@@YAMM@Z              00000001800026d0 f i trajectory_jerk_sfun.obj
 0001:000016f0       ?copysign@@YAMMM@Z         00000001800026f0 f i trajectory_jerk_sfun.obj
 0001:00001720       ?cos@@YAMM@Z               0000000180002720 f i trajectory_jerk_sfun.obj
 0001:00001740       ?cosh@@YAMM@Z              0000000180002740 f i trajectory_jerk_sfun.obj
 0001:00001760       ?erf@@YAMM@Z               0000000180002760 f i trajectory_jerk_sfun.obj
 0001:00001780       ?erfc@@YAMM@Z              0000000180002780 f i trajectory_jerk_sfun.obj
 0001:000017a0       ?exp2@@YAMM@Z              00000001800027a0 f i trajectory_jerk_sfun.obj
 0001:000017c0       ?exp@@YAMM@Z               00000001800027c0 f i trajectory_jerk_sfun.obj
 0001:000017e0       ?expm1@@YAMM@Z             00000001800027e0 f i trajectory_jerk_sfun.obj
 0001:00001800       ?fabs@@YAMM@Z              0000000180002800 f i trajectory_jerk_sfun.obj
 0001:00001820       ?fdim@@YAMMM@Z             0000000180002820 f i trajectory_jerk_sfun.obj
 0001:00001850       ?floor@@YAMM@Z             0000000180002850 f i trajectory_jerk_sfun.obj
 0001:00001870       ?fma@@YAMMMM@Z             0000000180002870 f i trajectory_jerk_sfun.obj
 0001:000018b0       ?fmax@@YAMMM@Z             00000001800028b0 f i trajectory_jerk_sfun.obj
 0001:000018e0       ?fmin@@YAMMM@Z             00000001800028e0 f i trajectory_jerk_sfun.obj
 0001:00001910       ?fmod@@YAMMM@Z             0000000180002910 f i trajectory_jerk_sfun.obj
 0001:00001940       ?frexp@@YAMMPEAH@Z         0000000180002940 f i trajectory_jerk_sfun.obj
 0001:00001970       ?hypot@@YAMMM@Z            0000000180002970 f i trajectory_jerk_sfun.obj
 0001:000019a0       ?ilogb@@YAHM@Z             00000001800029a0 f i trajectory_jerk_sfun.obj
 0001:000019c0       ?ldexp@@YAMMH@Z            00000001800029c0 f i trajectory_jerk_sfun.obj
 0001:000019f0       ?lgamma@@YAMM@Z            00000001800029f0 f i trajectory_jerk_sfun.obj
 0001:00001a10       ?llrint@@YA_JM@Z           0000000180002a10 f i trajectory_jerk_sfun.obj
 0001:00001a30       ?llround@@YA_JM@Z          0000000180002a30 f i trajectory_jerk_sfun.obj
 0001:00001a50       ?log10@@YAMM@Z             0000000180002a50 f i trajectory_jerk_sfun.obj
 0001:00001a70       ?log1p@@YAMM@Z             0000000180002a70 f i trajectory_jerk_sfun.obj
 0001:00001a90       ?log2@@YAMM@Z              0000000180002a90 f i trajectory_jerk_sfun.obj
 0001:00001ab0       ?log@@YAMM@Z               0000000180002ab0 f i trajectory_jerk_sfun.obj
 0001:00001ad0       ?logb@@YAMM@Z              0000000180002ad0 f i trajectory_jerk_sfun.obj
 0001:00001af0       ?lrint@@YAJM@Z             0000000180002af0 f i trajectory_jerk_sfun.obj
 0001:00001b10       ?lround@@YAJM@Z            0000000180002b10 f i trajectory_jerk_sfun.obj
 0001:00001b30       ?modf@@YAMMPEAM@Z          0000000180002b30 f i trajectory_jerk_sfun.obj
 0001:00001b60       ?nearbyint@@YAMM@Z         0000000180002b60 f i trajectory_jerk_sfun.obj
 0001:00001b80       ?nextafter@@YAMMM@Z        0000000180002b80 f i trajectory_jerk_sfun.obj
 0001:00001bb0       ?pow@@YAMMM@Z              0000000180002bb0 f i trajectory_jerk_sfun.obj
 0001:00001be0       ?remainder@@YAMMM@Z        0000000180002be0 f i trajectory_jerk_sfun.obj
 0001:00001c10       ?remquo@@YAMMMPEAH@Z       0000000180002c10 f i trajectory_jerk_sfun.obj
 0001:00001c50       ?rint@@YAMM@Z              0000000180002c50 f i trajectory_jerk_sfun.obj
 0001:00001c70       ?round@@YAMM@Z             0000000180002c70 f i trajectory_jerk_sfun.obj
 0001:00001c90       ?scalbln@@YAMMJ@Z          0000000180002c90 f i trajectory_jerk_sfun.obj
 0001:00001cc0       ?signbit@@YA_NM@Z          0000000180002cc0 f i trajectory_jerk_sfun.obj
 0001:00001d00       ?signbit@@YA_NN@Z          0000000180002d00 f i trajectory_jerk_sfun.obj
 0001:00001d40       ?signbit@@YA_NO@Z          0000000180002d40 f i trajectory_jerk_sfun.obj
 0001:00001d80       ?sin@@YAMM@Z               0000000180002d80 f i trajectory_jerk_sfun.obj
 0001:00001da0       ?sinh@@YAMM@Z              0000000180002da0 f i trajectory_jerk_sfun.obj
 0001:00001dc0       ?sqrt@@YAMM@Z              0000000180002dc0 f i trajectory_jerk_sfun.obj
 0001:00001de0       ?tan@@YAMM@Z               0000000180002de0 f i trajectory_jerk_sfun.obj
 0001:00001e00       ?tanh@@YAMM@Z              0000000180002e00 f i trajectory_jerk_sfun.obj
 0001:00001e20       ?tgamma@@YAMM@Z            0000000180002e20 f i trajectory_jerk_sfun.obj
 0001:00001e40       ?trunc@@YAMM@Z             0000000180002e40 f i trajectory_jerk_sfun.obj
 0001:00001e60       fabsf                      0000000180002e60 f i trajectory_jerk_sfun.obj
 0001:00001e80       frexpf                     0000000180002e80 f i trajectory_jerk_sfun.obj
 0001:00001eb0       ldexpf                     0000000180002eb0 f i trajectory_jerk_sfun.obj
 0001:00001f30       mexFunction                0000000180002f30 f   trajectory_jerk_sfun_registry.obj
 0001:000048a0       _ssSetInputPortDirectFeedThroughFcn 00000001800058a0 f   trajectory_jerk_sfun_registry.obj
 0001:00004a20       _ssSetRWorkValueFcn        0000000180005a20 f   trajectory_jerk_sfun_registry.obj
 0001:00004aa0       _ssGetRWorkValueFcn        0000000180005aa0 f   trajectory_jerk_sfun_registry.obj
 0001:00004b10       _ssSetIWorkValueFcn        0000000180005b10 f   trajectory_jerk_sfun_registry.obj
 0001:00004b90       _ssGetIWorkValueFcn        0000000180005b90 f   trajectory_jerk_sfun_registry.obj
 0001:00004c00       _ssSetPWorkValueFcn        0000000180005c00 f   trajectory_jerk_sfun_registry.obj
 0001:00004c80       _ssGetPWorkValueFcn        0000000180005c80 f   trajectory_jerk_sfun_registry.obj
 0001:00004cf0       _ssGetInputPortSignalFcn   0000000180005cf0 f   trajectory_jerk_sfun_registry.obj
 0001:000050a0       _ssGetInputPortBufferDstPortFcn 00000001800060a0 f   trajectory_jerk_sfun_registry.obj
 0001:00005120       _ssGetInputPortSignalPtrsFcn 0000000180006120 f   trajectory_jerk_sfun_registry.obj
 0001:000054d0       ssGetParameterTuningCompliance 00000001800064d0 f   trajectory_jerk_sfun_registry.obj
 0001:00005540       _ssReadInputStringFcn      0000000180006540 f   trajectory_jerk_sfun_registry.obj
 0001:000055b0       ssGetDTypeIdFromMxArray    00000001800065b0 f   trajectory_jerk_sfun_registry.obj
 0001:000056d0       ssWriteRTWMx2dMatParam     00000001800066d0 f   trajectory_jerk_sfun_registry.obj
 0001:00005760       ssWriteRTWMxVectParam      0000000180006760 f   trajectory_jerk_sfun_registry.obj
 0001:000057e0       ssWriteRTWParameters       00000001800067e0 f   trajectory_jerk_sfun_registry.obj
 0001:000062e0       ssWriteRTWParamSettings    00000001800072e0 f   trajectory_jerk_sfun_registry.obj
 0001:00007020       ssWriteRTWStr              0000000180008020 f   trajectory_jerk_sfun_registry.obj
 0001:00007080       ssWriteRTWWorkVect         0000000180008080 f   trajectory_jerk_sfun_registry.obj
 0001:00007690       ssWarning                  0000000180008690 f   trajectory_jerk_sfun_registry.obj
 0001:000077d0       ssGetRootSS                00000001800087d0 f   trajectory_jerk_sfun_registry.obj
 0001:00007890       ssGetParentSS              0000000180008890 f   trajectory_jerk_sfun_registry.obj
 0001:00007950       ssWriteRTWNameValuePair    0000000180008950 f   trajectory_jerk_sfun_registry.obj
 0001:000080d0       _ssSetInputPortMatrixDimensions 00000001800090d0 f   trajectory_jerk_sfun_registry.obj
 0001:00008220       _ssSetOutputPortMatrixDimensions 0000000180009220 f   trajectory_jerk_sfun_registry.obj
 0001:00008370       _ssSetInputPortVectorDimension 0000000180009370 f   trajectory_jerk_sfun_registry.obj
 0001:00008420       _ssSetOutputPortVectorDimension 0000000180009420 f   trajectory_jerk_sfun_registry.obj
 0001:000084d0       ssIsRunTimeParamTunable    00000001800094d0 f   trajectory_jerk_sfun_registry.obj
 0001:00008540       ssGetSFuncBlockHandle      0000000180009540 f   trajectory_jerk_sfun_registry.obj
 0001:000085b0       _ssGetCallSystemNumFcnCallDestinations 00000001800095b0 f   trajectory_jerk_sfun_registry.obj
 0001:00008620       _ssGetCurrentInputPortWidth 0000000180009620 f   trajectory_jerk_sfun_registry.obj
 0001:00008760       _ssGetCurrentOutputPortWidth 0000000180009760 f   trajectory_jerk_sfun_registry.obj
 0001:000088a0       ssGetIsZeroCrossControlDisabled 00000001800098a0 f   trajectory_jerk_sfun_registry.obj
 0001:00008910       ssSetIsInputPortUsedForContZcSignal 0000000180009910 f   trajectory_jerk_sfun_registry.obj
 0001:00008980       ssSetZcSignalIsZcElementDisc 0000000180009980 f   trajectory_jerk_sfun_registry.obj
 0001:00008a30       ssSetZcSignalName          0000000180009a30 f   trajectory_jerk_sfun_registry.obj
 0001:00008aa0       ssSetZcSignalWidth         0000000180009aa0 f   trajectory_jerk_sfun_registry.obj
 0001:00008b10       ssSetZcSignalZcEventType   0000000180009b10 f   trajectory_jerk_sfun_registry.obj
 0001:00008b80       ssSetZcSignalType          0000000180009b80 f   trajectory_jerk_sfun_registry.obj
 0001:00008bf0       ssSetZcSignalZcTol         0000000180009bf0 f   trajectory_jerk_sfun_registry.obj
 0001:00008c60       ssSetZcSignalNeedsEventNotification 0000000180009c60 f   trajectory_jerk_sfun_registry.obj
 0001:00008cd0       ssCreateAndAddZcSignalInfo 0000000180009cd0 f   trajectory_jerk_sfun_registry.obj
 0001:00008d40       ssCloneAndAddZcSignalInfo  0000000180009d40 f   trajectory_jerk_sfun_registry.obj
 0001:00008db0       ssGetNumZcSignals          0000000180009db0 f   trajectory_jerk_sfun_registry.obj
 0001:00008e20       ssGetZcSignalVector        0000000180009e20 f   trajectory_jerk_sfun_registry.obj
 0001:00008e90       ssGetZcSignalName          0000000180009e90 f   trajectory_jerk_sfun_registry.obj
 0001:00008f00       ssGetZcSignalWidth         0000000180009f00 f   trajectory_jerk_sfun_registry.obj
 0001:00008f70       ssGetZcSignalZcEventType   0000000180009f70 f   trajectory_jerk_sfun_registry.obj
 0001:00008fe0       ssGetZcSignalZcEvents      0000000180009fe0 f   trajectory_jerk_sfun_registry.obj
 0001:00009050       ssGetZcSignalType          000000018000a050 f   trajectory_jerk_sfun_registry.obj
 0001:000090c0       ssGetZcSignalZcTol         000000018000a0c0 f   trajectory_jerk_sfun_registry.obj
 0001:00009140       ssGetZcSignalNeedsEventNotification 000000018000a140 f   trajectory_jerk_sfun_registry.obj
 0001:000091b0       ssGetZcSignalIsZcElementDisc 000000018000a1b0 f   trajectory_jerk_sfun_registry.obj
 0001:00009250       ssGetIsInputPortElementContinuous 000000018000a250 f   trajectory_jerk_sfun_registry.obj
 0001:000092f0       _ssGetAbsTol               000000018000a2f0 f   trajectory_jerk_sfun_registry.obj
 0001:00009360       _ssSetStateAbsTol          000000018000a360 f   trajectory_jerk_sfun_registry.obj
 0001:00009440       _ssSetInputPortReusableFcn 000000018000a440 f   trajectory_jerk_sfun_registry.obj
 0001:00009550       _ssSetOutputPortReusableFcn 000000018000a550 f   trajectory_jerk_sfun_registry.obj
 0001:00009660       _ssSetSymbolicDimsSupport  000000018000a660 f   trajectory_jerk_sfun_registry.obj
 0001:000096d0       _ssRegisterSymbolicDimsExpr 000000018000a6d0 f   trajectory_jerk_sfun_registry.obj
 0001:00009750       _ssRegisterSymbolicDimsMATLABExpr 000000018000a750 f   trajectory_jerk_sfun_registry.obj
 0001:000097e0       _ssRegisterSymbolicDims    000000018000a7e0 f   trajectory_jerk_sfun_registry.obj
 0001:00009880       _ssRegisterSymbolicDimsString 000000018000a880 f   trajectory_jerk_sfun_registry.obj
 0001:00009900       _ssRegisterSymbolicDimsIntValue 000000018000a900 f   trajectory_jerk_sfun_registry.obj
 0001:00009970       _ssRegisterSymbolicEqualRelation 000000018000a970 f   trajectory_jerk_sfun_registry.obj
 0001:000099e0       _ssRegisterSymbolicEqualValue 000000018000a9e0 f   trajectory_jerk_sfun_registry.obj
 0001:00009a50       _ssAmendLeadingSymbolicDims 000000018000aa50 f   trajectory_jerk_sfun_registry.obj
 0001:00009ad0       _ssAmendTrailingSymbolicDims 000000018000aad0 f   trajectory_jerk_sfun_registry.obj
 0001:00009b50       _ssRegisterSymbolicDimsPlus 000000018000ab50 f   trajectory_jerk_sfun_registry.obj
 0001:00009bd0       _ssRegisterSymbolicDimsMinus 000000018000abd0 f   trajectory_jerk_sfun_registry.obj
 0001:00009c50       _ssRegisterSymbolicDimsMultiply 000000018000ac50 f   trajectory_jerk_sfun_registry.obj
 0001:00009cd0       _ssRegisterSymbolicDimsDivide 000000018000acd0 f   trajectory_jerk_sfun_registry.obj
 0001:00009d50       _ssGetNumSymbolicDims      000000018000ad50 f   trajectory_jerk_sfun_registry.obj
 0001:00009dc0       _ssGetSymbolicDim          000000018000adc0 f   trajectory_jerk_sfun_registry.obj
 0001:00009e40       _ssSetInputPortSymbolicDimsId 000000018000ae40 f   trajectory_jerk_sfun_registry.obj
 0001:00009eb0       _ssGetCompInputPortSymbolicDimsId 000000018000aeb0 f   trajectory_jerk_sfun_registry.obj
 0001:00009f20       _ssSetCompInputPortSymbolicDimsId 000000018000af20 f   trajectory_jerk_sfun_registry.obj
 0001:00009f90       _ssSetOutputPortSymbolicDimsId 000000018000af90 f   trajectory_jerk_sfun_registry.obj
 0001:0000a000       _ssGetCompOutputPortSymbolicDimsId 000000018000b000 f   trajectory_jerk_sfun_registry.obj
 0001:0000a070       _ssSetCompOutputPortSymbolicDimsId 000000018000b070 f   trajectory_jerk_sfun_registry.obj
 0001:0000a0e0       _ssGetDWorkSymbolicDimsId  000000018000b0e0 f   trajectory_jerk_sfun_registry.obj
 0001:0000a150       _ssSetDWorkSymbolicDimsId  000000018000b150 f   trajectory_jerk_sfun_registry.obj
 0001:0000a1c0       _ssGetCompDWorkSymbolicDimsId 000000018000b1c0 f   trajectory_jerk_sfun_registry.obj
 0001:0000a230       _ssSetCompDWorkSymbolicDimsId 000000018000b230 f   trajectory_jerk_sfun_registry.obj
 0001:0000a2a0       _ssCreateSLCGStringBuffer  000000018000b2a0 f   trajectory_jerk_sfun_registry.obj
 0001:0000a310       _ssAddToSLCGStringBuffer   000000018000b310 f   trajectory_jerk_sfun_registry.obj
 0001:0000a380       _ssGetPointerContainedData 000000018000b380 f   trajectory_jerk_sfun_registry.obj
 0001:0000a410       _ssGetPointerContainedDataWidth 000000018000b410 f   trajectory_jerk_sfun_registry.obj
 0001:0000a4a0       _ssRegisterDynamicArrayDataTypeFcn 000000018000b4a0 f   trajectory_jerk_sfun_registry.obj
 0001:0000a540       _ssGetDynamicArrayContainedDataCurrentWidthFcn 000000018000b540 f   trajectory_jerk_sfun_registry.obj
 0001:0000a610       _ssGetDynamicArrayContainedDataFcn 000000018000b610 f   trajectory_jerk_sfun_registry.obj
 0001:0000a6e0       _ssGetInputPortDynamicArrayDataFcn 000000018000b6e0 f   trajectory_jerk_sfun_registry.obj
 0001:0000a7a0       _ssGetOutputPortDynamicArrayDataFcn 000000018000b7a0 f   trajectory_jerk_sfun_registry.obj
 0001:0000a860       _ssGetInputPortDynamicArrayContainedDataFcn 000000018000b860 f   trajectory_jerk_sfun_registry.obj
 0001:0000a920       _ssGetOutputPortDynamicArrayContainedDataFcn 000000018000b920 f   trajectory_jerk_sfun_registry.obj
 0001:0000a9e0       _ssGetDynamicArrayDWorkContainedDataFcn 000000018000b9e0 f   trajectory_jerk_sfun_registry.obj
 0001:0000aaa0       ?sf_process_check_sum_call@@YAIHQEAPEAUmxArray_tag@@HQEAPEBU1@@Z 000000018000baa0 f   trajectory_jerk_sfun_registry.obj
 0001:0000aaf0       ?sf_process_get_third_party_uses_info_call@@YAIHQEAPEAUmxArray_tag@@HQEAPEBU1@@Z 000000018000baf0 f   trajectory_jerk_sfun_registry.obj
 0001:0000ad20       ?sf_process_get_jit_fallback_info_call@@YAIHQEAPEAUmxArray_tag@@HQEAPEBU1@@Z 000000018000bd20 f   trajectory_jerk_sfun_registry.obj
 0001:0000af50       ?sf_process_get_post_codegen_info_call@@YAIHQEAPEAUmxArray_tag@@HQEAPEBU1@@Z 000000018000bf50 f   trajectory_jerk_sfun_registry.obj
 0001:0000b180       ?sf_process_get_updateBuildInfo_args_info_call@@YAIHQEAPEAUmxArray_tag@@HQEAPEBU1@@Z 000000018000c180 f   trajectory_jerk_sfun_registry.obj
 0001:0000b3b0       ?sf_process_get_eml_resolved_functions_info_call@@YAIHQEAPEAUmxArray_tag@@HQEAPEBU1@@Z 000000018000c3b0 f   trajectory_jerk_sfun_registry.obj
 0001:0000b5e0       ?sf_mex_unlock_call@@YAIHQEAPEAUmxArray_tag@@HQEAPEBU1@@Z 000000018000c5e0 f   trajectory_jerk_sfun_registry.obj
 0001:0000b800       ?sf_machine_global_initializer_called@@YAIXZ 000000018000c800 f   trajectory_jerk_sfun_registry.obj
 0001:0000b830       sf_machine_global_method_dispatcher 000000018000c830 f   trajectory_jerk_sfun_registry.obj
 0001:0000b890       sf_machine_global_terminator 000000018000c890 f   trajectory_jerk_sfun_registry.obj
 0001:0000b8c0       callCustomFcn              000000018000c8c0 f   trajectory_jerk_sfun_registry.obj
 0001:0000b8d0       sf_machine_global_initializer 000000018000c8d0 f   trajectory_jerk_sfun_registry.obj
 0001:0000b900       ?mdlGetSimState@@YAPEAUmxArray_tag@@PEAUSimStruct_tag@@@Z 000000018000c900 f   trajectory_jerk_sfun_registry.obj
 0001:0000b940       ?mdlSetSimState@@YAXPEAUSimStruct_tag@@PEBUmxArray_tag@@@Z 000000018000c940 f   trajectory_jerk_sfun_registry.obj
 0001:0000c2b0       ?ProcessMexSfunctionEveryCall@@YAIHQEAPEAUmxArray_tag@@HQEAPEBU1@@Z 000000018000d2b0 f   trajectory_jerk_sfun_registry.obj
 0001:0000d500       __local_stdio_printf_options 000000018000e500 f i trajectory_jerk_sfun_registry.obj
 0001:0000d510       snprintf                   000000018000e510 f i trajectory_jerk_sfun_registry.obj
 0001:0000d570       vsnprintf                  000000018000e570 f i trajectory_jerk_sfun_registry.obj
 0001:0000d640       ?sf_c3_trajectory_jerk_get_eml_resolved_functions_info@@YAPEBUmxArray_tag@@XZ 000000018000e640 f   c3_trajectory_jerk.obj
 0001:0000d6c0       ?sf_c3_trajectory_jerk_get_check_sum@@YAXQEAPEAUmxArray_tag@@@Z 000000018000e6c0 f   c3_trajectory_jerk.obj
 0001:0000d790       ?c3_trajectory_jerk_method_dispatcher@@YAXPEAUSimStruct_tag@@HPEAX@Z 000000018000e790 f   c3_trajectory_jerk.obj
 0001:0000e0e0       ?sf_c3_trajectory_jerk_third_party_uses_info@@YAPEAUmxArray_tag@@XZ 000000018000f0e0 f   c3_trajectory_jerk.obj
 0001:0000e110       ?sf_c3_trajectory_jerk_jit_fallback_info@@YAPEAUmxArray_tag@@XZ 000000018000f110 f   c3_trajectory_jerk.obj
 0001:0000e2a0       ?sf_c3_trajectory_jerk_updateBuildInfo_args_info@@YAPEAUmxArray_tag@@XZ 000000018000f2a0 f   c3_trajectory_jerk.obj
 0001:0000e5c0       ?sf_c3_trajectory_jerk_get_post_codegen_info@@YAPEBDXZ 000000018000f5c0 f   c3_trajectory_jerk.obj
 0001:0000eb40       ??2@YAPEAX_KPEAX@Z         000000018000fb40 f i c3_trajectory_jerk.obj
 0001:0000eba0       ?sf_c14_trajectory_jerk_get_eml_resolved_functions_info@@YAPEBUmxArray_tag@@XZ 000000018000fba0 f   c14_trajectory_jerk.obj
 0001:0000ec20       ?sf_c14_trajectory_jerk_get_check_sum@@YAXQEAPEAUmxArray_tag@@@Z 000000018000fc20 f   c14_trajectory_jerk.obj
 0001:0000ecf0       ?c14_trajectory_jerk_method_dispatcher@@YAXPEAUSimStruct_tag@@HPEAX@Z 000000018000fcf0 f   c14_trajectory_jerk.obj
 0001:0000f960       ?sf_c14_trajectory_jerk_third_party_uses_info@@YAPEAUmxArray_tag@@XZ 0000000180010960 f   c14_trajectory_jerk.obj
 0001:0000f990       ?sf_c14_trajectory_jerk_jit_fallback_info@@YAPEAUmxArray_tag@@XZ 0000000180010990 f   c14_trajectory_jerk.obj
 0001:0000fb20       ?sf_c14_trajectory_jerk_updateBuildInfo_args_info@@YAPEAUmxArray_tag@@XZ 0000000180010b20 f   c14_trajectory_jerk.obj
 0001:0000fe40       ?sf_c14_trajectory_jerk_get_post_codegen_info@@YAPEBDXZ 0000000180010e40 f   c14_trajectory_jerk.obj
 0001:000103b0       ?getBitfieldFromFloat@@YAIM@Z 00000001800113b0 f   half_type.obj
 0001:000103e0       ?getFloatFromBitfield@@YAMI@Z 00000001800113e0 f   half_type.obj
 0001:00010410       ??0real16_T@@QEAA@M@Z      0000000180011410 f   half_type.obj
 0001:00010660       ??0real16_T@@QEAA@N@Z      0000000180011660 f   half_type.obj
 0001:00010950       ??Breal16_T@@QEBAMXZ       0000000180011950 f   half_type.obj
 0001:00010ae0       ??Breal16_T@@QEBANXZ       0000000180011ae0 f   half_type.obj
 0001:00010b10       ??Hreal16_T@@QEBA?AV0@V0@@Z 0000000180011b10 f   half_type.obj
 0001:00010b70       ??Greal16_T@@QEBA?AV0@V0@@Z 0000000180011b70 f   half_type.obj
 0001:00010bd0       ??Dreal16_T@@QEBA?AV0@V0@@Z 0000000180011bd0 f   half_type.obj
 0001:00010c30       ??Kreal16_T@@QEBA?AV0@V0@@Z 0000000180011c30 f   half_type.obj
 0001:00010c90       ??Hreal16_T@@QEBA?AV0@XZ   0000000180011c90 f   half_type.obj
 0001:00010cc0       ??Greal16_T@@QEBA?AV0@XZ   0000000180011cc0 f   half_type.obj
 0001:00010d00       ??Ereal16_T@@QEAAAEAV0@XZ  0000000180011d00 f   half_type.obj
 0001:00010d50       ??Ereal16_T@@QEAA?AV0@H@Z  0000000180011d50 f   half_type.obj
 0001:00010dc0       ??Freal16_T@@QEAAAEAV0@XZ  0000000180011dc0 f   half_type.obj
 0001:00010e10       ??Freal16_T@@QEAA?AV0@H@Z  0000000180011e10 f   half_type.obj
 0001:00010e80       ??8real16_T@@QEBAEV0@@Z    0000000180011e80 f   half_type.obj
 0001:00010ee0       ??9real16_T@@QEBAEV0@@Z    0000000180011ee0 f   half_type.obj
 0001:00010f40       ??Preal16_T@@QEBAEV0@@Z    0000000180011f40 f   half_type.obj
 0001:00010f90       ??Oreal16_T@@QEBAEV0@@Z    0000000180011f90 f   half_type.obj
 0001:00010fe0       ??Nreal16_T@@QEBAEV0@@Z    0000000180011fe0 f   half_type.obj
 0001:00011030       ??Mreal16_T@@QEBAEV0@@Z    0000000180012030 f   half_type.obj
 0001:00011080       ??4real16_T@@QEAAAEAV0@AEBV0@@Z 0000000180012080 f   half_type.obj
 0001:000110b0       ??4real16_T@@QECAXAEDV0@@Z 00000001800120b0 f   half_type.obj
 0001:000110e0       ??4real16_T@@QECAXAEBV0@@Z 00000001800120e0 f   half_type.obj
 0001:00011110       ??Yreal16_T@@QEAAAEAV0@V0@@Z 0000000180012110 f   half_type.obj
 0001:00011170       ??Zreal16_T@@QEAAAEAV0@V0@@Z 0000000180012170 f   half_type.obj
 0001:000111d0       ??Xreal16_T@@QEAAAEAV0@V0@@Z 00000001800121d0 f   half_type.obj
 0001:00011230       ??_0real16_T@@QEAAAEAV0@V0@@Z 0000000180012230 f   half_type.obj
 0001:00011290       ?getBitfieldFromHalf@@YAGVreal16_T@@@Z 0000000180012290 f   half_type.obj
 0001:000112b0       ?getHalfFromBitfield@@YA?AVreal16_T@@G@Z 00000001800122b0 f   half_type.obj
 0001:000112f0       ?halfToFloat@@YAMVreal16_T@@@Z 00000001800122f0 f   half_type.obj
 0001:00011310       ?halfToDouble@@YANVreal16_T@@@Z 0000000180012310 f   half_type.obj
 0001:00011330       ?floatToHalf@@YA?AVreal16_T@@M@Z 0000000180012330 f   half_type.obj
 0001:00011360       ?doubleToHalf@@YA?AVreal16_T@@N@Z 0000000180012360 f   half_type.obj
 0001:00011390       ?getBitPattern@real16_T@@QEBAGXZ 0000000180012390 f i half_type.obj
 0001:000113a0       ?setBitPattern@real16_T@@QEAAXG@Z 00000001800123a0 f i half_type.obj
 0001:000113c0       mexfilerequiredapiversion  00000001800123c0 f   c_mexapi_version.obj
 0001:000113f0       ??0contextStateAuto@cudart@@QEAA@PEAVcontextState@1@@Z 00000001800123f0 f i cudart_static:cudart_cuda_runtime_api.obj
 0001:00011420       ??0contextStateAuto@cudart@@QEAA@XZ 0000000180012420 f i cudart_static:cudart_cuda_runtime_api.obj
 0001:00011430       ??1contextStateAuto@cudart@@QEAA@XZ 0000000180012430 f i cudart_static:cudart_cuda_runtime_api.obj
 0001:00011450       ??CcontextStateAuto@cudart@@QEAAPEAVcontextState@1@XZ 0000000180012450 f i cudart_static:cudart_cuda_runtime_api.obj
 0001:00011460       ?__empty_global_delete@@YAXPEAX@Z 0000000180012460 f i cudart_static:cudart_cuda_runtime_api.obj
 0001:00011470       ?__empty_global_delete@@YAXPEAX_K@Z 0000000180012470 f i cudart_static:cudart_cuda_runtime_api.obj
 0001:00011470       ?__global_delete@@YAXPEAX_K@Z 0000000180012470 f i cudart_static:cudart_cuda_runtime_api.obj
 0001:00011480       ?copy1DConvertTo3DParams@cudart@@YAXPEAXPEBX_KW4cudaMemcpyKind@@PEAUcudaMemcpy3DParms@@@Z 0000000180012480 f   cudart_static:cudart_cuda_runtime_api.obj
 0001:00011510       ?copyFromSymbolConvertTo3DParams@cudart@@YA?AW4cudaError@@PEAXPEBX_K2W4cudaMemcpyKind@@PEAUcudaMemcpy3DParms@@@Z 0000000180012510 f   cudart_static:cudart_cuda_runtime_api.obj
 0001:00011620       ?copyToSymbolConvertTo3DParams@cudart@@YA?AW4cudaError@@PEBX0_K1W4cudaMemcpyKind@@PEAUcudaMemcpy3DParms@@@Z 0000000180012620 f   cudart_static:cudart_cuda_runtime_api.obj
 0001:00011740       ?cudaApiArrayGetInfo@cudart@@YA?AW4cudaError@@PEAUcudaChannelFormatDesc@@PEAUcudaExtent@@PEAIPEAUcudaArray@@@Z 0000000180012740 f   cudart_static:cudart_cuda_runtime_api.obj
 0001:00011850       ?cudaApiArrayGetMemoryRequirements@cudart@@YA?AW4cudaError@@PEAUcudaArrayMemoryRequirements@@PEAUcudaArray@@H@Z 0000000180012850 f   cudart_static:cudart_cuda_runtime_api.obj
 0001:000118f0       ?cudaApiArrayGetPlane@cudart@@YA?AW4cudaError@@PEAPEAUcudaArray@@PEAU3@I@Z 00000001800128f0 f   cudart_static:cudart_cuda_runtime_api.obj
 0001:00011970       ?cudaApiArrayGetSparseProperties@cudart@@YA?AW4cudaError@@PEAUcudaArraySparseProperties@@PEAUcudaArray@@@Z 0000000180012970 f   cudart_static:cudart_cuda_runtime_api.obj
 0001:00011a30       ?cudaApiChooseDevice@cudart@@YA?AW4cudaError@@PEAHPEBUcudaDeviceProp@@@Z 0000000180012a30 f   cudart_static:cudart_cuda_runtime_api.obj
 0001:00011ab0       ?cudaApiCreateChannelDesc@cudart@@YA?AUcudaChannelFormatDesc@@HHHHW4cudaChannelFormatKind@@@Z 0000000180012ab0 f   cudart_static:cudart_cuda_runtime_api.obj
 0001:00011ad0       ?cudaApiCreateSurfaceObject@cudart@@YA?AW4cudaError@@PEA_KPEBUcudaResourceDesc@@@Z 0000000180012ad0 f   cudart_static:cudart_cuda_runtime_api.obj
 0001:00011bb0       ?cudaApiCreateTextureObject@cudart@@YA?AW4cudaError@@PEA_KPEBUcudaResourceDesc@@PEBUcudaTextureDesc@@PEBUcudaResourceViewDesc@@@Z 0000000180012bb0 f   cudart_static:cudart_cuda_runtime_api.obj
 0001:00011cb0       ?cudaApiCtxResetPersistingL2Cache@cudart@@YA?AW4cudaError@@XZ 0000000180012cb0 f   cudart_static:cudart_cuda_runtime_api.obj
 0001:00011d00       ?cudaApiD3D10GetDevice@cudart@@YA?AW4cudaError@@PEAHPEAUIDXGIAdapter@@@Z 0000000180012d00 f   cudart_static:cudart_cuda_runtime_api.obj
 0001:00011d50       ?cudaApiD3D10GetDevices@cudart@@YA?AW4cudaError@@PEAIPEAHIPEAUID3D10Device@@W4cudaD3D10DeviceList@@@Z 0000000180012d50 f   cudart_static:cudart_cuda_runtime_api.obj
 0001:00011e70       ?cudaApiD3D10GetDirect3DDevice@cudart@@YA?AW4cudaError@@PEAPEAUID3D10Device@@@Z 0000000180012e70 f   cudart_static:cudart_cuda_runtime_api.obj
 0001:00011ee0       ?cudaApiD3D10MapResources@cudart@@YA?AW4cudaError@@HPEAPEAUID3D10Resource@@@Z 0000000180012ee0 f   cudart_static:cudart_cuda_runtime_api.obj
 0001:00011f60       ?cudaApiD3D10RegisterResource@cudart@@YA?AW4cudaError@@PEAUID3D10Resource@@I@Z 0000000180012f60 f   cudart_static:cudart_cuda_runtime_api.obj
 0001:00011fe0       ?cudaApiD3D10ResourceGetMappedArray@cudart@@YA?AW4cudaError@@PEAPEAUcudaArray@@PEAUID3D10Resource@@I@Z 0000000180012fe0 f   cudart_static:cudart_cuda_runtime_api.obj
 0001:00012080       ?cudaApiD3D10ResourceGetMappedPitch@cudart@@YA?AW4cudaError@@PEA_K0PEAUID3D10Resource@@I@Z 0000000180013080 f   cudart_static:cudart_cuda_runtime_api.obj
 0001:00012110       ?cudaApiD3D10ResourceGetMappedPointer@cudart@@YA?AW4cudaError@@PEAPEAXPEAUID3D10Resource@@I@Z 0000000180013110 f   cudart_static:cudart_cuda_runtime_api.obj
 0001:00012190       ?cudaApiD3D10ResourceGetMappedSize@cudart@@YA?AW4cudaError@@PEA_KPEAUID3D10Resource@@I@Z 0000000180013190 f   cudart_static:cudart_cuda_runtime_api.obj
 0001:00012210       ?cudaApiD3D10ResourceGetSurfaceDimensions@cudart@@YA?AW4cudaError@@PEA_K00PEAUID3D10Resource@@I@Z 0000000180013210 f   cudart_static:cudart_cuda_runtime_api.obj
 0001:000122b0       ?cudaApiD3D10ResourceSetMapFlags@cudart@@YA?AW4cudaError@@PEAUID3D10Resource@@I@Z 00000001800132b0 f   cudart_static:cudart_cuda_runtime_api.obj
 0001:00012330       ?cudaApiD3D10SetDirect3DDevice@cudart@@YA?AW4cudaError@@PEAUID3D10Device@@H@Z 0000000180013330 f   cudart_static:cudart_cuda_runtime_api.obj
 0001:00012450       ?cudaApiD3D10UnmapResources@cudart@@YA?AW4cudaError@@HPEAPEAUID3D10Resource@@@Z 0000000180013450 f   cudart_static:cudart_cuda_runtime_api.obj
 0001:000124d0       ?cudaApiD3D10UnregisterResource@cudart@@YA?AW4cudaError@@PEAUID3D10Resource@@@Z 00000001800134d0 f   cudart_static:cudart_cuda_runtime_api.obj
 0001:00012540       ?cudaApiD3D11GetDevice@cudart@@YA?AW4cudaError@@PEAHPEAUIDXGIAdapter@@@Z 0000000180013540 f   cudart_static:cudart_cuda_runtime_api.obj
 0001:00012590       ?cudaApiD3D11GetDevices@cudart@@YA?AW4cudaError@@PEAIPEAHIPEAUID3D11Device@@W4cudaD3D11DeviceList@@@Z 0000000180013590 f   cudart_static:cudart_cuda_runtime_api.obj
 0001:000126b0       ?cudaApiD3D11GetDirect3DDevice@cudart@@YA?AW4cudaError@@PEAPEAUID3D11Device@@@Z 00000001800136b0 f   cudart_static:cudart_cuda_runtime_api.obj
 0001:00012720       ?cudaApiD3D11SetDirect3DDevice@cudart@@YA?AW4cudaError@@PEAUID3D11Device@@H@Z 0000000180013720 f   cudart_static:cudart_cuda_runtime_api.obj
 0001:00012840       ?cudaApiD3D9Begin@cudart@@YA?AW4cudaError@@PEAUIDirect3DDevice9@@@Z 0000000180013840 f   cudart_static:cudart_cuda_runtime_api.obj
 0001:000128b0       ?cudaApiD3D9End@cudart@@YA?AW4cudaError@@XZ 00000001800138b0 f   cudart_static:cudart_cuda_runtime_api.obj
 0001:00012910       ?cudaApiD3D9GetDevice@cudart@@YA?AW4cudaError@@PEAHPEBD@Z 0000000180013910 f   cudart_static:cudart_cuda_runtime_api.obj
 0001:00012960       ?cudaApiD3D9GetDevices@cudart@@YA?AW4cudaError@@PEAIPEAHIPEAUIDirect3DDevice9@@W4cudaD3D9DeviceList@@@Z 0000000180013960 f   cudart_static:cudart_cuda_runtime_api.obj
 0001:00012aa0       ?cudaApiD3D9GetDirect3DDevice@cudart@@YA?AW4cudaError@@PEAPEAUIDirect3DDevice9@@@Z 0000000180013aa0 f   cudart_static:cudart_cuda_runtime_api.obj
 0001:00012b10       ?cudaApiD3D9MapResources@cudart@@YA?AW4cudaError@@HPEAPEAUIDirect3DResource9@@@Z 0000000180013b10 f   cudart_static:cudart_cuda_runtime_api.obj
 0001:00012b90       ?cudaApiD3D9MapVertexBuffer@cudart@@YA?AW4cudaError@@PEAPEAXPEAUIDirect3DVertexBuffer9@@@Z 0000000180013b90 f   cudart_static:cudart_cuda_runtime_api.obj
 0001:00012c10       ?cudaApiD3D9RegisterResource@cudart@@YA?AW4cudaError@@PEAUIDirect3DResource9@@I@Z 0000000180013c10 f   cudart_static:cudart_cuda_runtime_api.obj
 0001:00012c90       ?cudaApiD3D9RegisterVertexBuffer@cudart@@YA?AW4cudaError@@PEAUIDirect3DVertexBuffer9@@@Z 0000000180013c90 f   cudart_static:cudart_cuda_runtime_api.obj
 0001:00012d00       ?cudaApiD3D9ResourceGetMappedArray@cudart@@YA?AW4cudaError@@PEAPEAUcudaArray@@PEAUIDirect3DResource9@@II@Z 0000000180013d00 f   cudart_static:cudart_cuda_runtime_api.obj
 0001:00012db0       ?cudaApiD3D9ResourceGetMappedPitch@cudart@@YA?AW4cudaError@@PEA_K0PEAUIDirect3DResource9@@II@Z 0000000180013db0 f   cudart_static:cudart_cuda_runtime_api.obj
 0001:00012e50       ?cudaApiD3D9ResourceGetMappedPointer@cudart@@YA?AW4cudaError@@PEAPEAXPEAUIDirect3DResource9@@II@Z 0000000180013e50 f   cudart_static:cudart_cuda_runtime_api.obj
 0001:00012ee0       ?cudaApiD3D9ResourceGetMappedSize@cudart@@YA?AW4cudaError@@PEA_KPEAUIDirect3DResource9@@II@Z 0000000180013ee0 f   cudart_static:cudart_cuda_runtime_api.obj
 0001:00012f70       ?cudaApiD3D9ResourceGetSurfaceDimensions@cudart@@YA?AW4cudaError@@PEA_K00PEAUIDirect3DResource9@@II@Z 0000000180013f70 f   cudart_static:cudart_cuda_runtime_api.obj
 0001:00013010       ?cudaApiD3D9ResourceSetMapFlags@cudart@@YA?AW4cudaError@@PEAUIDirect3DResource9@@I@Z 0000000180014010 f   cudart_static:cudart_cuda_runtime_api.obj
 0001:00013090       ?cudaApiD3D9SetDirect3DDevice@cudart@@YA?AW4cudaError@@PEAUIDirect3DDevice9@@H@Z 0000000180014090 f   cudart_static:cudart_cuda_runtime_api.obj
 0001:000131b0       ?cudaApiD3D9UnmapResources@cudart@@YA?AW4cudaError@@HPEAPEAUIDirect3DResource9@@@Z 00000001800141b0 f   cudart_static:cudart_cuda_runtime_api.obj
 0001:00013230       ?cudaApiD3D9UnmapVertexBuffer@cudart@@YA?AW4cudaError@@PEAUIDirect3DVertexBuffer9@@@Z 0000000180014230 f   cudart_static:cudart_cuda_runtime_api.obj
 0001:000132a0       ?cudaApiD3D9UnregisterResource@cudart@@YA?AW4cudaError@@PEAUIDirect3DResource9@@@Z 00000001800142a0 f   cudart_static:cudart_cuda_runtime_api.obj
 0001:00013310       ?cudaApiD3D9UnregisterVertexBuffer@cudart@@YA?AW4cudaError@@PEAUIDirect3DVertexBuffer9@@@Z 0000000180014310 f   cudart_static:cudart_cuda_runtime_api.obj
 0001:00013380       ?cudaApiDestroyExternalMemory@cudart@@YA?AW4cudaError@@PEAUCUexternalMemory_st@@@Z 0000000180014380 f   cudart_static:cudart_cuda_runtime_api.obj
 0001:000133f0       ?cudaApiDestroyExternalSemaphore@cudart@@YA?AW4cudaError@@PEAUCUexternalSemaphore_st@@@Z 00000001800143f0 f   cudart_static:cudart_cuda_runtime_api.obj
 0001:00013460       ?cudaApiDestroySurfaceObject@cudart@@YA?AW4cudaError@@_K@Z 0000000180014460 f   cudart_static:cudart_cuda_runtime_api.obj
 0001:000134d0       ?cudaApiDestroyTextureObject@cudart@@YA?AW4cudaError@@_K@Z 00000001800144d0 f   cudart_static:cudart_cuda_runtime_api.obj
 0001:00013540       ?cudaApiDeviceCanAccessPeer@cudart@@YA?AW4cudaError@@PEAHHH@Z 0000000180014540 f   cudart_static:cudart_cuda_runtime_api.obj
 0001:00013610       ?cudaApiDeviceDisablePeerAccess@cudart@@YA?AW4cudaError@@H@Z 0000000180014610 f   cudart_static:cudart_cuda_runtime_api.obj
 0001:00013700       ?cudaApiDeviceEnablePeerAccess@cudart@@YA?AW4cudaError@@HI@Z 0000000180014700 f   cudart_static:cudart_cuda_runtime_api.obj
 0001:00013800       ?cudaApiDeviceFlushGPUDirectRDMAWrites@cudart@@YA?AW4cudaError@@W4cudaFlushGPUDirectRDMAWritesTarget@@W4cudaFlushGPUDirectRDMAWritesScope@@@Z 0000000180014800 f   cudart_static:cudart_cuda_runtime_api.obj
 0001:00013880       ?cudaApiDeviceGetAttribute@cudart@@YA?AW4cudaError@@PEAHW4cudaDeviceAttr@@H@Z 0000000180014880 f   cudart_static:cudart_cuda_runtime_api.obj
 0001:000138d0       ?cudaApiDeviceGetByPCIBusId@cudart@@YA?AW4cudaError@@PEAHPEBD@Z 00000001800148d0 f   cudart_static:cudart_cuda_runtime_api.obj
 0001:00013920       ?cudaApiDeviceGetCacheConfig@cudart@@YA?AW4cudaError@@PEAW4cudaFuncCache@@@Z 0000000180014920 f   cudart_static:cudart_cuda_runtime_api.obj
 0001:00013990       ?cudaApiDeviceGetDefaultMemPool@cudart@@YA?AW4cudaError@@PEAPEAUCUmemPoolHandle_st@@H@Z 0000000180014990 f   cudart_static:cudart_cuda_runtime_api.obj
 0001:00013a20       ?cudaApiDeviceGetGraphMemAttribute@cudart@@YA?AW4cudaError@@HW4cudaGraphMemAttributeType@@PEAX@Z 0000000180014a20 f   cudart_static:cudart_cuda_runtime_api.obj
 0001:00013a70       ?cudaApiDeviceGetLimit@cudart@@YA?AW4cudaError@@PEA_KW4cudaLimit@@@Z 0000000180014a70 f   cudart_static:cudart_cuda_runtime_api.obj
 0001:00013af0       ?cudaApiDeviceGetMemPool@cudart@@YA?AW4cudaError@@PEAPEAUCUmemPoolHandle_st@@H@Z 0000000180014af0 f   cudart_static:cudart_cuda_runtime_api.obj
 0001:00013b40       ?cudaApiDeviceGetNvSciSyncAttributes@cudart@@YA?AW4cudaError@@PEAXHH@Z 0000000180014b40 f   cudart_static:cudart_cuda_runtime_api.obj
 0001:00013b50       ?cudaApiDeviceGetP2PAttribute@cudart@@YA?AW4cudaError@@PEAHW4cudaDeviceP2PAttr@@HH@Z 0000000180014b50 f   cudart_static:cudart_cuda_runtime_api.obj
 0001:00013ba0       ?cudaApiDeviceGetPCIBusId@cudart@@YA?AW4cudaError@@PEADHH@Z 0000000180014ba0 f   cudart_static:cudart_cuda_runtime_api.obj
 0001:00013bf0       ?cudaApiDeviceGetSharedMemConfig@cudart@@YA?AW4cudaError@@PEAW4cudaSharedMemConfig@@@Z 0000000180014bf0 f   cudart_static:cudart_cuda_runtime_api.obj
 0001:00013c60       ?cudaApiDeviceGetStreamPriorityRange@cudart@@YA?AW4cudaError@@PEAH0@Z 0000000180014c60 f   cudart_static:cudart_cuda_runtime_api.obj
 0001:00013ce0       ?cudaApiDeviceGetTexture1DLinearMaxWidth@cudart@@YA?AW4cudaError@@PEA_KPEBUcudaChannelFormatDesc@@H@Z 0000000180014ce0 f   cudart_static:cudart_cuda_runtime_api.obj
 0001:00013d90       ?cudaApiDeviceGraphMemTrim@cudart@@YA?AW4cudaError@@H@Z 0000000180014d90 f   cudart_static:cudart_cuda_runtime_api.obj
 0001:00013de0       ?cudaApiDeviceReset@cudart@@YA?AW4cudaError@@XZ 0000000180014de0 f   cudart_static:cudart_cuda_runtime_api.obj
 0001:00013eb0       ?cudaApiDeviceSetCacheConfig@cudart@@YA?AW4cudaError@@W4cudaFuncCache@@@Z 0000000180014eb0 f   cudart_static:cudart_cuda_runtime_api.obj
 0001:00013f20       ?cudaApiDeviceSetGraphMemAttribute@cudart@@YA?AW4cudaError@@HW4cudaGraphMemAttributeType@@PEAX@Z 0000000180014f20 f   cudart_static:cudart_cuda_runtime_api.obj
 0001:00013f70       ?cudaApiDeviceSetLimit@cudart@@YA?AW4cudaError@@W4cudaLimit@@_K@Z 0000000180014f70 f   cudart_static:cudart_cuda_runtime_api.obj
 0001:00013ff0       ?cudaApiDeviceSetMemPool@cudart@@YA?AW4cudaError@@HPEAUCUmemPoolHandle_st@@@Z 0000000180014ff0 f   cudart_static:cudart_cuda_runtime_api.obj
 0001:00014040       ?cudaApiDeviceSetSharedMemConfig@cudart@@YA?AW4cudaError@@W4cudaSharedMemConfig@@@Z 0000000180015040 f   cudart_static:cudart_cuda_runtime_api.obj
 0001:000140b0       ?cudaApiDeviceSynchronize@cudart@@YA?AW4cudaError@@XZ 00000001800150b0 f   cudart_static:cudart_cuda_runtime_api.obj
 0001:00014110       ?cudaApiDriverGetVersion@cudart@@YA?AW4cudaError@@PEAH@Z 0000000180015110 f   cudart_static:cudart_cuda_runtime_api.obj
 0001:00014160       ?cudaApiEventCreate@cudart@@YA?AW4cudaError@@PEAPEAUCUevent_st@@@Z 0000000180015160 f   cudart_static:cudart_cuda_runtime_api.obj
 0001:000141d0       ?cudaApiEventCreateWithFlags@cudart@@YA?AW4cudaError@@PEAPEAUCUevent_st@@I@Z 00000001800151d0 f   cudart_static:cudart_cuda_runtime_api.obj
 0001:00014270       ?cudaApiEventDestroy@cudart@@YA?AW4cudaError@@PEAUCUevent_st@@@Z 0000000180015270 f   cudart_static:cudart_cuda_runtime_api.obj
 0001:000142e0       ?cudaApiEventElapsedTime@cudart@@YA?AW4cudaError@@PEAMPEAUCUevent_st@@1@Z 00000001800152e0 f   cudart_static:cudart_cuda_runtime_api.obj
 0001:00014380       ?cudaApiEventQuery@cudart@@YA?AW4cudaError@@PEAUCUevent_st@@@Z 0000000180015380 f   cudart_static:cudart_cuda_runtime_api.obj
 0001:000143e0       ?cudaApiEventRecord@cudart@@YA?AW4cudaError@@PEAUCUevent_st@@PEAUCUstream_st@@@Z 00000001800153e0 f   cudart_static:cudart_cuda_runtime_api.obj
 0001:000144f0       ?cudaApiEventRecordWithFlags@cudart@@YA?AW4cudaError@@PEAUCUevent_st@@PEAUCUstream_st@@I@Z 00000001800154f0 f   cudart_static:cudart_cuda_runtime_api.obj
 0001:00014610       ?cudaApiEventRecordWithFlags_ptsz@cudart@@YA?AW4cudaError@@PEAUCUevent_st@@PEAUCUstream_st@@I@Z 0000000180015610 f   cudart_static:cudart_cuda_runtime_api.obj
 0001:00014690       ?cudaApiEventRecord_ptsz@cudart@@YA?AW4cudaError@@PEAUCUevent_st@@PEAUCUstream_st@@@Z 0000000180015690 f   cudart_static:cudart_cuda_runtime_api.obj
 0001:00014710       ?cudaApiEventSynchronize@cudart@@YA?AW4cudaError@@PEAUCUevent_st@@@Z 0000000180015710 f   cudart_static:cudart_cuda_runtime_api.obj
 0001:00014760       ?cudaApiExternalMemoryGetMappedBuffer@cudart@@YA?AW4cudaError@@PEAPEAXPEAUCUexternalMemory_st@@PEBUcudaExternalMemoryBufferDesc@@@Z 0000000180015760 f   cudart_static:cudart_cuda_runtime_api.obj
 0001:00014820       ?cudaApiExternalMemoryGetMappedMipmappedArray@cudart@@YA?AW4cudaError@@PEAPEAUcudaMipmappedArray@@PEAUCUexternalMemory_st@@PEBUcudaExternalMemoryMipmappedArrayDesc@@@Z 0000000180015820 f   cudart_static:cudart_cuda_runtime_api.obj
 0001:00014920       ?cudaApiFree@cudart@@YA?AW4cudaError@@PEAX@Z 0000000180015920 f   cudart_static:cudart_cuda_runtime_api.obj
 0001:00014990       ?cudaApiFreeArray@cudart@@YA?AW4cudaError@@PEAUcudaArray@@@Z 0000000180015990 f   cudart_static:cudart_cuda_runtime_api.obj
 0001:00014a00       ?cudaApiFreeAsync@cudart@@YA?AW4cudaError@@PEAXPEAUCUstream_st@@@Z 0000000180015a00 f   cudart_static:cudart_cuda_runtime_api.obj
 0001:00014b70       ?cudaApiFreeAsync_ptsz@cudart@@YA?AW4cudaError@@PEAXPEAUCUstream_st@@@Z 0000000180015b70 f   cudart_static:cudart_cuda_runtime_api.obj
 0001:00014c10       ?cudaApiFreeHost@cudart@@YA?AW4cudaError@@PEAX@Z 0000000180015c10 f   cudart_static:cudart_cuda_runtime_api.obj
 0001:00014c80       ?cudaApiFreeMipmappedArray@cudart@@YA?AW4cudaError@@PEAUcudaMipmappedArray@@@Z 0000000180015c80 f   cudart_static:cudart_cuda_runtime_api.obj
 0001:00014cf0       ?cudaApiFuncGetAttributes@cudart@@YA?AW4cudaError@@PEAUcudaFuncAttributes@@PEBX@Z 0000000180015cf0 f   cudart_static:cudart_cuda_runtime_api.obj
 0001:00014fc0       ?cudaApiFuncSetAttribute@cudart@@YA?AW4cudaError@@PEBXW4cudaFuncAttribute@@H@Z 0000000180015fc0 f   cudart_static:cudart_cuda_runtime_api.obj
 0001:00015120       ?cudaApiFuncSetCacheConfig@cudart@@YA?AW4cudaError@@PEBXW4cudaFuncCache@@@Z 0000000180016120 f   cudart_static:cudart_cuda_runtime_api.obj
 0001:00015200       ?cudaApiFuncSetSharedMemConfig@cudart@@YA?AW4cudaError@@PEBXW4cudaSharedMemConfig@@@Z 0000000180016200 f   cudart_static:cudart_cuda_runtime_api.obj
 0001:000152e0       ?cudaApiGLGetDevices@cudart@@YA?AW4cudaError@@PEAIPEAHIW4cudaGLDeviceList@@@Z 00000001800162e0 f   cudart_static:cudart_cuda_runtime_api.obj
 0001:00015420       ?cudaApiGLMapBufferObject@cudart@@YA?AW4cudaError@@PEAPEAXI@Z 0000000180016420 f   cudart_static:cudart_cuda_runtime_api.obj
 0001:000154b0       ?cudaApiGLMapBufferObjectAsync@cudart@@YA?AW4cudaError@@PEAPEAXIPEAUCUstream_st@@@Z 00000001800164b0 f   cudart_static:cudart_cuda_runtime_api.obj
 0001:00015530       ?cudaApiGLRegisterBufferObject@cudart@@YA?AW4cudaError@@I@Z 0000000180016530 f   cudart_static:cudart_cuda_runtime_api.obj
 0001:000155a0       ?cudaApiGLSetBufferObjectMapFlags@cudart@@YA?AW4cudaError@@II@Z 00000001800165a0 f   cudart_static:cudart_cuda_runtime_api.obj
 0001:00015620       ?cudaApiGLSetGLDevice@cudart@@YA?AW4cudaError@@H@Z 0000000180016620 f   cudart_static:cudart_cuda_runtime_api.obj
 0001:00015710       ?cudaApiGLUnmapBufferObject@cudart@@YA?AW4cudaError@@I@Z 0000000180016710 f   cudart_static:cudart_cuda_runtime_api.obj
 0001:00015780       ?cudaApiGLUnmapBufferObjectAsync@cudart@@YA?AW4cudaError@@IPEAUCUstream_st@@@Z 0000000180016780 f   cudart_static:cudart_cuda_runtime_api.obj
 0001:00015800       ?cudaApiGLUnregisterBufferObject@cudart@@YA?AW4cudaError@@I@Z 0000000180016800 f   cudart_static:cudart_cuda_runtime_api.obj
 0001:00015870       ?cudaApiGetChannelDesc@cudart@@YA?AW4cudaError@@PEAUcudaChannelFormatDesc@@PEBUcudaArray@@@Z 0000000180016870 f   cudart_static:cudart_cuda_runtime_api.obj
 0001:00015900       ?cudaApiGetDevice@cudart@@YA?AW4cudaError@@PEAH@Z 0000000180016900 f   cudart_static:cudart_cuda_runtime_api.obj
 0001:000159f0       ?cudaApiGetDeviceCount@cudart@@YA?AW4cudaError@@PEAH@Z 00000001800169f0 f   cudart_static:cudart_cuda_runtime_api.obj
 0001:00015a50       ?cudaApiGetDeviceFlags@cudart@@YA?AW4cudaError@@PEAI@Z 0000000180016a50 f   cudart_static:cudart_cuda_runtime_api.obj
 0001:00015b90       ?cudaApiGetDeviceProperties@cudart@@YA?AW4cudaError@@PEAUcudaDeviceProp@@H@Z 0000000180016b90 f   cudart_static:cudart_cuda_runtime_api.obj
 0001:00015cb0       ?cudaApiGetDeviceProperties_v2@cudart@@YA?AW4cudaError@@PEAUcudaDeviceProp@@H@Z 0000000180016cb0 f   cudart_static:cudart_cuda_runtime_api.obj
 0001:00015db0       ?cudaApiGetDriverEntryPoint@cudart@@YA?AW4cudaError@@PEBDPEAPEAX_KPEAW4cudaDriverEntryPointQueryResult@@@Z 0000000180016db0 f   cudart_static:cudart_cuda_runtime_api.obj
 0001:00015e10       ?cudaApiGetDriverEntryPoint_ptsz@cudart@@YA?AW4cudaError@@PEBDPEAPEAX_KPEAW4cudaDriverEntryPointQueryResult@@@Z 0000000180016e10 f   cudart_static:cudart_cuda_runtime_api.obj
 0001:00015e70       ?cudaApiGetErrorName@cudart@@YAPEBDW4cudaError@@@Z 0000000180016e70 f   cudart_static:cudart_cuda_runtime_api.obj
 0001:00015eb0       ?cudaApiGetErrorString@cudart@@YAPEBDW4cudaError@@@Z 0000000180016eb0 f   cudart_static:cudart_cuda_runtime_api.obj
 0001:00015ef0       ?cudaApiGetFuncBySymbol@cudart@@YA?AW4cudaError@@PEAPEAUCUfunc_st@@PEBX@Z 0000000180016ef0 f   cudart_static:cudart_cuda_runtime_api.obj
 0001:00015fc0       ?cudaApiGetKernel@cudart@@YA?AW4cudaError@@PEAPEAUCUkern_st@@PEBX@Z 0000000180016fc0 f   cudart_static:cudart_cuda_runtime_api.obj
 0001:00016010       ?cudaApiGetLastError@cudart@@YA?AW4cudaError@@XZ 0000000180017010 f   cudart_static:cudart_cuda_runtime_api.obj
 0001:00016040       ?cudaApiGetMipmappedArrayLevel@cudart@@YA?AW4cudaError@@PEAPEAUcudaArray@@PEBUcudaMipmappedArray@@I@Z 0000000180017040 f   cudart_static:cudart_cuda_runtime_api.obj
 0001:000160c0       ?cudaApiGetSurfaceObjectResourceDesc@cudart@@YA?AW4cudaError@@PEAUcudaResourceDesc@@_K@Z 00000001800170c0 f   cudart_static:cudart_cuda_runtime_api.obj
 0001:00016190       ?cudaApiGetSymbolAddress@cudart@@YA?AW4cudaError@@PEAPEAXPEBX@Z 0000000180017190 f   cudart_static:cudart_cuda_runtime_api.obj
 0001:00016260       ?cudaApiGetSymbolSize@cudart@@YA?AW4cudaError@@PEA_KPEBX@Z 0000000180017260 f   cudart_static:cudart_cuda_runtime_api.obj
 0001:00016330       ?cudaApiGetTextureObjectResourceDesc@cudart@@YA?AW4cudaError@@PEAUcudaResourceDesc@@_K@Z 0000000180017330 f   cudart_static:cudart_cuda_runtime_api.obj
 0001:00016400       ?cudaApiGetTextureObjectResourceViewDesc@cudart@@YA?AW4cudaError@@PEAUcudaResourceViewDesc@@_K@Z 0000000180017400 f   cudart_static:cudart_cuda_runtime_api.obj
 0001:000164e0       ?cudaApiGetTextureObjectTextureDesc@cudart@@YA?AW4cudaError@@PEAUcudaTextureDesc@@_K@Z 00000001800174e0 f   cudart_static:cudart_cuda_runtime_api.obj
 0001:000165d0       ?cudaApiGraphAddChildGraphNode@cudart@@YA?AW4cudaError@@PEAPEAUCUgraphNode_st@@PEAUCUgraph_st@@PEBQEAU3@_K1@Z 00000001800175d0 f   cudart_static:cudart_cuda_runtime_api.obj
 0001:00016670       ?cudaApiGraphAddDependencies@cudart@@YA?AW4cudaError@@PEAUCUgraph_st@@PEBQEAUCUgraphNode_st@@1_K@Z 0000000180017670 f   cudart_static:cudart_cuda_runtime_api.obj
 0001:00016700       ?cudaApiGraphAddEmptyNode@cudart@@YA?AW4cudaError@@PEAPEAUCUgraphNode_st@@PEAUCUgraph_st@@PEBQEAU3@_K@Z 0000000180017700 f   cudart_static:cudart_cuda_runtime_api.obj
 0001:00016790       ?cudaApiGraphAddEventRecordNode@cudart@@YA?AW4cudaError@@PEAPEAUCUgraphNode_st@@PEAUCUgraph_st@@PEBQEAU3@_KPEAUCUevent_st@@@Z 0000000180017790 f   cudart_static:cudart_cuda_runtime_api.obj
 0001:00016830       ?cudaApiGraphAddEventWaitNode@cudart@@YA?AW4cudaError@@PEAPEAUCUgraphNode_st@@PEAUCUgraph_st@@PEBQEAU3@_KPEAUCUevent_st@@@Z 0000000180017830 f   cudart_static:cudart_cuda_runtime_api.obj
 0001:000168d0       ?cudaApiGraphAddExternalSemaphoresSignalNode@cudart@@YA?AW4cudaError@@PEAPEAUCUgraphNode_st@@PEAUCUgraph_st@@PEBQEAU3@_KPEBUcudaExternalSemaphoreSignalNodeParams@@@Z 00000001800178d0 f   cudart_static:cudart_cuda_runtime_api.obj
 0001:00016970       ?cudaApiGraphAddExternalSemaphoresWaitNode@cudart@@YA?AW4cudaError@@PEAPEAUCUgraphNode_st@@PEAUCUgraph_st@@PEBQEAU3@_KPEBUcudaExternalSemaphoreWaitNodeParams@@@Z 0000000180017970 f   cudart_static:cudart_cuda_runtime_api.obj
 0001:00016a10       ?cudaApiGraphAddHostNode@cudart@@YA?AW4cudaError@@PEAPEAUCUgraphNode_st@@PEAUCUgraph_st@@PEBQEAU3@_KPEBUcudaHostNodeParams@@@Z 0000000180017a10 f   cudart_static:cudart_cuda_runtime_api.obj
 0001:00016ad0       ?cudaApiGraphAddKernelNode@cudart@@YA?AW4cudaError@@PEAPEAUCUgraphNode_st@@PEAUCUgraph_st@@PEBQEAU3@_KPEBUcudaKernelNodeParams@@@Z 0000000180017ad0 f   cudart_static:cudart_cuda_runtime_api.obj
 0001:00016bb0       ?cudaApiGraphAddMemAllocNode@cudart@@YA?AW4cudaError@@PEAPEAUCUgraphNode_st@@PEAUCUgraph_st@@PEBQEAU3@_KPEAUcudaMemAllocNodeParams@@@Z 0000000180017bb0 f   cudart_static:cudart_cuda_runtime_api.obj
 0001:00016c50       ?cudaApiGraphAddMemFreeNode@cudart@@YA?AW4cudaError@@PEAPEAUCUgraphNode_st@@PEAUCUgraph_st@@PEBQEAU3@_KPEAX@Z 0000000180017c50 f   cudart_static:cudart_cuda_runtime_api.obj
 0001:00016cf0       ?cudaApiGraphAddMemcpyNode1D@cudart@@YA?AW4cudaError@@PEAPEAUCUgraphNode_st@@PEAUCUgraph_st@@PEBQEAU3@_KPEAXPEBX3W4cudaMemcpyKind@@@Z 0000000180017cf0 f   cudart_static:cudart_cuda_runtime_api.obj
 0001:00016e40       ?cudaApiGraphAddMemcpyNode@cudart@@YA?AW4cudaError@@PEAPEAUCUgraphNode_st@@PEAUCUgraph_st@@PEBQEAU3@_KPEBUcudaMemcpy3DParms@@@Z 0000000180017e40 f   cudart_static:cudart_cuda_runtime_api.obj
 0001:00016f30       ?cudaApiGraphAddMemcpyNodeFromSymbol@cudart@@YA?AW4cudaError@@PEAPEAUCUgraphNode_st@@PEAUCUgraph_st@@PEBQEAU3@_KPEAXPEBX33W4cudaMemcpyKind@@@Z 0000000180017f30 f   cudart_static:cudart_cuda_runtime_api.obj
 0001:00017060       ?cudaApiGraphAddMemcpyNodeToSymbol@cudart@@YA?AW4cudaError@@PEAPEAUCUgraphNode_st@@PEAUCUgraph_st@@PEBQEAU3@_KPEBX433W4cudaMemcpyKind@@@Z 0000000180018060 f   cudart_static:cudart_cuda_runtime_api.obj
 0001:00017190       ?cudaApiGraphAddMemsetNode@cudart@@YA?AW4cudaError@@PEAPEAUCUgraphNode_st@@PEAUCUgraph_st@@PEBQEAU3@_KPEBUcudaMemsetParams@@@Z 0000000180018190 f   cudart_static:cudart_cuda_runtime_api.obj
 0001:00017290       ?cudaApiGraphAddNode@cudart@@YA?AW4cudaError@@PEAPEAUCUgraphNode_st@@PEAUCUgraph_st@@PEBQEAU3@_KPEAUcudaGraphNodeParams@@@Z 0000000180018290 f   cudart_static:cudart_cuda_runtime_api.obj
 0001:00017370       ?cudaApiGraphChildGraphNodeGetGraph@cudart@@YA?AW4cudaError@@PEAUCUgraphNode_st@@PEAPEAUCUgraph_st@@@Z 0000000180018370 f   cudart_static:cudart_cuda_runtime_api.obj
 0001:000173f0       ?cudaApiGraphClone@cudart@@YA?AW4cudaError@@PEAPEAUCUgraph_st@@PEAU3@@Z 00000001800183f0 f   cudart_static:cudart_cuda_runtime_api.obj
 0001:00017470       ?cudaApiGraphCreate@cudart@@YA?AW4cudaError@@PEAPEAUCUgraph_st@@I@Z 0000000180018470 f   cudart_static:cudart_cuda_runtime_api.obj
 0001:000174f0       ?cudaApiGraphDebugDotPrint@cudart@@YA?AW4cudaError@@PEAUCUgraph_st@@PEBDI@Z 00000001800184f0 f   cudart_static:cudart_cuda_runtime_api.obj
 0001:00017570       ?cudaApiGraphDestroy@cudart@@YA?AW4cudaError@@PEAUCUgraph_st@@@Z 0000000180018570 f   cudart_static:cudart_cuda_runtime_api.obj
 0001:000175e0       ?cudaApiGraphDestroyNode@cudart@@YA?AW4cudaError@@PEAUCUgraphNode_st@@@Z 00000001800185e0 f   cudart_static:cudart_cuda_runtime_api.obj
 0001:00017650       ?cudaApiGraphEventRecordNodeGetEvent@cudart@@YA?AW4cudaError@@PEAUCUgraphNode_st@@PEAPEAUCUevent_st@@@Z 0000000180018650 f   cudart_static:cudart_cuda_runtime_api.obj
 0001:000176e0       ?cudaApiGraphEventRecordNodeSetEvent@cudart@@YA?AW4cudaError@@PEAUCUgraphNode_st@@PEAUCUevent_st@@@Z 00000001800186e0 f   cudart_static:cudart_cuda_runtime_api.obj
 0001:00017770       ?cudaApiGraphEventWaitNodeGetEvent@cudart@@YA?AW4cudaError@@PEAUCUgraphNode_st@@PEAPEAUCUevent_st@@@Z 0000000180018770 f   cudart_static:cudart_cuda_runtime_api.obj
 0001:00017800       ?cudaApiGraphEventWaitNodeSetEvent@cudart@@YA?AW4cudaError@@PEAUCUgraphNode_st@@PEAUCUevent_st@@@Z 0000000180018800 f   cudart_static:cudart_cuda_runtime_api.obj
 0001:00017890       ?cudaApiGraphExecChildGraphNodeSetParams@cudart@@YA?AW4cudaError@@PEAUCUgraphExec_st@@PEAUCUgraphNode_st@@PEAUCUgraph_st@@@Z 0000000180018890 f   cudart_static:cudart_cuda_runtime_api.obj
 0001:00017920       ?cudaApiGraphExecDestroy@cudart@@YA?AW4cudaError@@PEAUCUgraphExec_st@@@Z 0000000180018920 f   cudart_static:cudart_cuda_runtime_api.obj
 0001:00017990       ?cudaApiGraphExecEventRecordNodeSetEvent@cudart@@YA?AW4cudaError@@PEAUCUgraphExec_st@@PEAUCUgraphNode_st@@PEAUCUevent_st@@@Z 0000000180018990 f   cudart_static:cudart_cuda_runtime_api.obj
 0001:00017a20       ?cudaApiGraphExecEventWaitNodeSetEvent@cudart@@YA?AW4cudaError@@PEAUCUgraphExec_st@@PEAUCUgraphNode_st@@PEAUCUevent_st@@@Z 0000000180018a20 f   cudart_static:cudart_cuda_runtime_api.obj
 0001:00017ab0       ?cudaApiGraphExecExternalSemaphoresSignalNodeSetParams@cudart@@YA?AW4cudaError@@PEAUCUgraphExec_st@@PEAUCUgraphNode_st@@PEBUcudaExternalSemaphoreSignalNodeParams@@@Z 0000000180018ab0 f   cudart_static:cudart_cuda_runtime_api.obj
 0001:00017b40       ?cudaApiGraphExecExternalSemaphoresWaitNodeSetParams@cudart@@YA?AW4cudaError@@PEAUCUgraphExec_st@@PEAUCUgraphNode_st@@PEBUcudaExternalSemaphoreWaitNodeParams@@@Z 0000000180018b40 f   cudart_static:cudart_cuda_runtime_api.obj
 0001:00017bd0       ?cudaApiGraphExecGetFlags@cudart@@YA?AW4cudaError@@PEAUCUgraphExec_st@@PEA_K@Z 0000000180018bd0 f   cudart_static:cudart_cuda_runtime_api.obj
 0001:00017c50       ?cudaApiGraphExecHostNodeSetParams@cudart@@YA?AW4cudaError@@PEAUCUgraphExec_st@@PEAUCUgraphNode_st@@PEBUcudaHostNodeParams@@@Z 0000000180018c50 f   cudart_static:cudart_cuda_runtime_api.obj
 0001:00017cf0       ?cudaApiGraphExecKernelNodeSetParams@cudart@@YA?AW4cudaError@@PEAUCUgraphExec_st@@PEAUCUgraphNode_st@@PEBUcudaKernelNodeParams@@@Z 0000000180018cf0 f   cudart_static:cudart_cuda_runtime_api.obj
 0001:00017d90       ?cudaApiGraphExecMemcpyNodeSetParams1D@cudart@@YA?AW4cudaError@@PEAUCUgraphExec_st@@PEAUCUgraphNode_st@@PEAXPEBX_KW4cudaMemcpyKind@@@Z 0000000180018d90 f   cudart_static:cudart_cuda_runtime_api.obj
 0001:00017ed0       ?cudaApiGraphExecMemcpyNodeSetParams@cudart@@YA?AW4cudaError@@PEAUCUgraphExec_st@@PEAUCUgraphNode_st@@PEBUcudaMemcpy3DParms@@@Z 0000000180018ed0 f   cudart_static:cudart_cuda_runtime_api.obj
 0001:00017f90       ?cudaApiGraphExecMemcpyNodeSetParamsFromSymbol@cudart@@YA?AW4cudaError@@PEAUCUgraphExec_st@@PEAUCUgraphNode_st@@PEAXPEBX_K4W4cudaMemcpyKind@@@Z 0000000180018f90 f   cudart_static:cudart_cuda_runtime_api.obj
 0001:000180a0       ?cudaApiGraphExecMemcpyNodeSetParamsToSymbol@cudart@@YA?AW4cudaError@@PEAUCUgraphExec_st@@PEAUCUgraphNode_st@@PEBX2_K3W4cudaMemcpyKind@@@Z 00000001800190a0 f   cudart_static:cudart_cuda_runtime_api.obj
 0001:000181b0       ?cudaApiGraphExecMemsetNodeSetParams@cudart@@YA?AW4cudaError@@PEAUCUgraphExec_st@@PEAUCUgraphNode_st@@PEBUcudaMemsetParams@@@Z 00000001800191b0 f   cudart_static:cudart_cuda_runtime_api.obj
 0001:00018290       ?cudaApiGraphExecNodeSetParams@cudart@@YA?AW4cudaError@@PEAUCUgraphExec_st@@PEAUCUgraphNode_st@@PEAUcudaGraphNodeParams@@@Z 0000000180019290 f   cudart_static:cudart_cuda_runtime_api.obj
 0001:00018360       ?cudaApiGraphExecUpdate@cudart@@YA?AW4cudaError@@PEAUCUgraphExec_st@@PEAUCUgraph_st@@PEAUcudaGraphExecUpdateResultInfo_st@@@Z 0000000180019360 f   cudart_static:cudart_cuda_runtime_api.obj
 0001:00018420       ?cudaApiGraphExternalSemaphoresSignalNodeGetParams@cudart@@YA?AW4cudaError@@PEAUCUgraphNode_st@@PEAUcudaExternalSemaphoreSignalNodeParams@@@Z 0000000180019420 f   cudart_static:cudart_cuda_runtime_api.obj
 0001:000184b0       ?cudaApiGraphExternalSemaphoresSignalNodeSetParams@cudart@@YA?AW4cudaError@@PEAUCUgraphNode_st@@PEBUcudaExternalSemaphoreSignalNodeParams@@@Z 00000001800194b0 f   cudart_static:cudart_cuda_runtime_api.obj
 0001:00018540       ?cudaApiGraphExternalSemaphoresWaitNodeGetParams@cudart@@YA?AW4cudaError@@PEAUCUgraphNode_st@@PEAUcudaExternalSemaphoreWaitNodeParams@@@Z 0000000180019540 f   cudart_static:cudart_cuda_runtime_api.obj
 0001:000185d0       ?cudaApiGraphExternalSemaphoresWaitNodeSetParams@cudart@@YA?AW4cudaError@@PEAUCUgraphNode_st@@PEBUcudaExternalSemaphoreWaitNodeParams@@@Z 00000001800195d0 f   cudart_static:cudart_cuda_runtime_api.obj
 0001:00018660       ?cudaApiGraphGetEdges@cudart@@YA?AW4cudaError@@PEAUCUgraph_st@@PEAPEAUCUgraphNode_st@@1PEA_K@Z 0000000180019660 f   cudart_static:cudart_cuda_runtime_api.obj
 0001:000186f0       ?cudaApiGraphGetNodes@cudart@@YA?AW4cudaError@@PEAUCUgraph_st@@PEAPEAUCUgraphNode_st@@PEA_K@Z 00000001800196f0 f   cudart_static:cudart_cuda_runtime_api.obj
 0001:00018770       ?cudaApiGraphGetRootNodes@cudart@@YA?AW4cudaError@@PEAUCUgraph_st@@PEAPEAUCUgraphNode_st@@PEA_K@Z 0000000180019770 f   cudart_static:cudart_cuda_runtime_api.obj
 0001:000187f0       ?cudaApiGraphHostNodeGetParams@cudart@@YA?AW4cudaError@@PEAUCUgraphNode_st@@PEAUcudaHostNodeParams@@@Z 00000001800197f0 f   cudart_static:cudart_cuda_runtime_api.obj
 0001:00018890       ?cudaApiGraphHostNodeSetParams@cudart@@YA?AW4cudaError@@PEAUCUgraphNode_st@@PEBUcudaHostNodeParams@@@Z 0000000180019890 f   cudart_static:cudart_cuda_runtime_api.obj
 0001:00018930       ?cudaApiGraphInstantiate@cudart@@YA?AW4cudaError@@PEAPEAUCUgraphExec_st@@PEAUCUgraph_st@@_K@Z 0000000180019930 f   cudart_static:cudart_cuda_runtime_api.obj
 0001:000189b0       ?cudaApiGraphInstantiateWithFlags@cudart@@YA?AW4cudaError@@PEAPEAUCUgraphExec_st@@PEAUCUgraph_st@@_K@Z 00000001800199b0 f   cudart_static:cudart_cuda_runtime_api.obj
 0001:00018a30       ?cudaApiGraphInstantiateWithParams@cudart@@YA?AW4cudaError@@PEAPEAUCUgraphExec_st@@PEAUCUgraph_st@@PEAUcudaGraphInstantiateParams_st@@@Z 0000000180019a30 f   cudart_static:cudart_cuda_runtime_api.obj
 0001:00018ab0       ?cudaApiGraphInstantiateWithParamsCommon@cudart@@YA?AW4cudaError@@PEAPEAUCUgraphExec_st@@PEAUCUgraph_st@@PEAUcudaGraphInstantiateParams_st@@_N@Z 0000000180019ab0 f   cudart_static:cudart_cuda_runtime_api.obj
 0001:00018b50       ?cudaApiGraphInstantiateWithParams_ptsz@cudart@@YA?AW4cudaError@@PEAPEAUCUgraphExec_st@@PEAUCUgraph_st@@PEAUcudaGraphInstantiateParams_st@@@Z 0000000180019b50 f   cudart_static:cudart_cuda_runtime_api.obj
 0001:00018bd0       ?cudaApiGraphKernelNodeCopyAttributes@cudart@@YA?AW4cudaError@@PEAUCUgraphNode_st@@0@Z 0000000180019bd0 f   cudart_static:cudart_cuda_runtime_api.obj
 0001:00018c50       ?cudaApiGraphKernelNodeGetAttribute@cudart@@YA?AW4cudaError@@PEAUCUgraphNode_st@@W4cudaLaunchAttributeID@@PEATcudaLaunchAttributeValue@@@Z 0000000180019c50 f   cudart_static:cudart_cuda_runtime_api.obj
 0001:00018da0       ?cudaApiGraphKernelNodeGetParams@cudart@@YA?AW4cudaError@@PEAUCUgraphNode_st@@PEAUcudaKernelNodeParams@@@Z 0000000180019da0 f   cudart_static:cudart_cuda_runtime_api.obj
 0001:00018ea0       ?cudaApiGraphKernelNodeSetAttribute@cudart@@YA?AW4cudaError@@PEAUCUgraphNode_st@@W4cudaLaunchAttributeID@@PEBTcudaLaunchAttributeValue@@@Z 0000000180019ea0 f   cudart_static:cudart_cuda_runtime_api.obj
 0001:00018fd0       ?cudaApiGraphKernelNodeSetParams@cudart@@YA?AW4cudaError@@PEAUCUgraphNode_st@@PEBUcudaKernelNodeParams@@@Z 0000000180019fd0 f   cudart_static:cudart_cuda_runtime_api.obj
 0001:00019080       ?cudaApiGraphLaunch@cudart@@YA?AW4cudaError@@PEAUCUgraphExec_st@@PEAUCUstream_st@@@Z 000000018001a080 f   cudart_static:cudart_cuda_runtime_api.obj
 0001:00019190       ?cudaApiGraphLaunch_ptsz@cudart@@YA?AW4cudaError@@PEAUCUgraphExec_st@@PEAUCUstream_st@@@Z 000000018001a190 f   cudart_static:cudart_cuda_runtime_api.obj
 0001:00019210       ?cudaApiGraphMemAllocNodeGetParams@cudart@@YA?AW4cudaError@@PEAUCUgraphNode_st@@PEAUcudaMemAllocNodeParams@@@Z 000000018001a210 f   cudart_static:cudart_cuda_runtime_api.obj
 0001:000192a0       ?cudaApiGraphMemFreeNodeGetParams@cudart@@YA?AW4cudaError@@PEAUCUgraphNode_st@@PEAX@Z 000000018001a2a0 f   cudart_static:cudart_cuda_runtime_api.obj
 0001:00019330       ?cudaApiGraphMemcpyNodeGetParams@cudart@@YA?AW4cudaError@@PEAUCUgraphNode_st@@PEAUcudaMemcpy3DParms@@@Z 000000018001a330 f   cudart_static:cudart_cuda_runtime_api.obj
 0001:000193d0       ?cudaApiGraphMemcpyNodeSetParams1D@cudart@@YA?AW4cudaError@@PEAUCUgraphNode_st@@PEAXPEBX_KW4cudaMemcpyKind@@@Z 000000018001a3d0 f   cudart_static:cudart_cuda_runtime_api.obj
 0001:000194f0       ?cudaApiGraphMemcpyNodeSetParams@cudart@@YA?AW4cudaError@@PEAUCUgraphNode_st@@PEBUcudaMemcpy3DParms@@@Z 000000018001a4f0 f   cudart_static:cudart_cuda_runtime_api.obj
 0001:000195a0       ?cudaApiGraphMemcpyNodeSetParamsFromSymbol@cudart@@YA?AW4cudaError@@PEAUCUgraphNode_st@@PEAXPEBX_K3W4cudaMemcpyKind@@@Z 000000018001a5a0 f   cudart_static:cudart_cuda_runtime_api.obj
 0001:00019690       ?cudaApiGraphMemcpyNodeSetParamsToSymbol@cudart@@YA?AW4cudaError@@PEAUCUgraphNode_st@@PEBX1_K2W4cudaMemcpyKind@@@Z 000000018001a690 f   cudart_static:cudart_cuda_runtime_api.obj
 0001:00019780       ?cudaApiGraphMemsetNodeGetParams@cudart@@YA?AW4cudaError@@PEAUCUgraphNode_st@@PEAUcudaMemsetParams@@@Z 000000018001a780 f   cudart_static:cudart_cuda_runtime_api.obj
 0001:00019850       ?cudaApiGraphMemsetNodeSetParams@cudart@@YA?AW4cudaError@@PEAUCUgraphNode_st@@PEBUcudaMemsetParams@@@Z 000000018001a850 f   cudart_static:cudart_cuda_runtime_api.obj
 0001:000198d0       ?cudaApiGraphNodeFindInClone@cudart@@YA?AW4cudaError@@PEAPEAUCUgraphNode_st@@PEAU3@PEAUCUgraph_st@@@Z 000000018001a8d0 f   cudart_static:cudart_cuda_runtime_api.obj
 0001:00019950       ?cudaApiGraphNodeGetDependencies@cudart@@YA?AW4cudaError@@PEAUCUgraphNode_st@@PEAPEAU3@PEA_K@Z 000000018001a950 f   cudart_static:cudart_cuda_runtime_api.obj
 0001:000199d0       ?cudaApiGraphNodeGetDependentNodes@cudart@@YA?AW4cudaError@@PEAUCUgraphNode_st@@PEAPEAU3@PEA_K@Z 000000018001a9d0 f   cudart_static:cudart_cuda_runtime_api.obj
 0001:00019a50       ?cudaApiGraphNodeGetEnabled@cudart@@YA?AW4cudaError@@PEAUCUgraphExec_st@@PEAUCUgraphNode_st@@PEAI@Z 000000018001aa50 f   cudart_static:cudart_cuda_runtime_api.obj
 0001:00019ab0       ?cudaApiGraphNodeGetType@cudart@@YA?AW4cudaError@@PEAUCUgraphNode_st@@PEAW4cudaGraphNodeType@@@Z 000000018001aab0 f   cudart_static:cudart_cuda_runtime_api.obj
 0001:00019b50       ?cudaApiGraphNodeSetEnabled@cudart@@YA?AW4cudaError@@PEAUCUgraphExec_st@@PEAUCUgraphNode_st@@I@Z 000000018001ab50 f   cudart_static:cudart_cuda_runtime_api.obj
 0001:00019ba0       ?cudaApiGraphNodeSetParams@cudart@@YA?AW4cudaError@@PEAUCUgraphNode_st@@PEAUcudaGraphNodeParams@@@Z 000000018001aba0 f   cudart_static:cudart_cuda_runtime_api.obj
 0001:00019c70       ?cudaApiGraphReleaseUserObject@cudart@@YA?AW4cudaError@@PEAUCUgraph_st@@PEAUCUuserObject_st@@I@Z 000000018001ac70 f   cudart_static:cudart_cuda_runtime_api.obj
 0001:00019cc0       ?cudaApiGraphRemoveDependencies@cudart@@YA?AW4cudaError@@PEAUCUgraph_st@@PEBQEAUCUgraphNode_st@@1_K@Z 000000018001acc0 f   cudart_static:cudart_cuda_runtime_api.obj
 0001:00019d50       ?cudaApiGraphRetainUserObject@cudart@@YA?AW4cudaError@@PEAUCUgraph_st@@PEAUCUuserObject_st@@II@Z 000000018001ad50 f   cudart_static:cudart_cuda_runtime_api.obj
 0001:00019da0       ?cudaApiGraphUpload@cudart@@YA?AW4cudaError@@PEAUCUgraphExec_st@@PEAUCUstream_st@@@Z 000000018001ada0 f   cudart_static:cudart_cuda_runtime_api.obj
 0001:00019eb0       ?cudaApiGraphUpload_ptsz@cudart@@YA?AW4cudaError@@PEAUCUgraphExec_st@@PEAUCUstream_st@@@Z 000000018001aeb0 f   cudart_static:cudart_cuda_runtime_api.obj
 0001:00019f30       ?cudaApiGraphicsD3D10RegisterResource@cudart@@YA?AW4cudaError@@PEAPEAUcudaGraphicsResource@@PEAUID3D10Resource@@I@Z 000000018001af30 f   cudart_static:cudart_cuda_runtime_api.obj
 0001:00019fb0       ?cudaApiGraphicsD3D11RegisterResource@cudart@@YA?AW4cudaError@@PEAPEAUcudaGraphicsResource@@PEAUID3D11Resource@@I@Z 000000018001afb0 f   cudart_static:cudart_cuda_runtime_api.obj
 0001:0001a030       ?cudaApiGraphicsD3D9RegisterResource@cudart@@YA?AW4cudaError@@PEAPEAUcudaGraphicsResource@@PEAUIDirect3DResource9@@I@Z 000000018001b030 f   cudart_static:cudart_cuda_runtime_api.obj
 0001:0001a0b0       ?cudaApiGraphicsGLRegisterBuffer@cudart@@YA?AW4cudaError@@PEAPEAUcudaGraphicsResource@@II@Z 000000018001b0b0 f   cudart_static:cudart_cuda_runtime_api.obj
 0001:0001a130       ?cudaApiGraphicsGLRegisterImage@cudart@@YA?AW4cudaError@@PEAPEAUcudaGraphicsResource@@III@Z 000000018001b130 f   cudart_static:cudart_cuda_runtime_api.obj
 0001:0001a1c0       ?cudaApiGraphicsMapResources@cudart@@YA?AW4cudaError@@HPEAPEAUcudaGraphicsResource@@PEAUCUstream_st@@@Z 000000018001b1c0 f   cudart_static:cudart_cuda_runtime_api.obj
 0001:0001a240       ?cudaApiGraphicsResourceGetMappedMipmappedArray@cudart@@YA?AW4cudaError@@PEAPEAUcudaMipmappedArray@@PEAUcudaGraphicsResource@@@Z 000000018001b240 f   cudart_static:cudart_cuda_runtime_api.obj
 0001:0001a2d0       ?cudaApiGraphicsResourceGetMappedPointer@cudart@@YA?AW4cudaError@@PEAPEAXPEA_KPEAUcudaGraphicsResource@@@Z 000000018001b2d0 f   cudart_static:cudart_cuda_runtime_api.obj
 0001:0001a320       ?cudaApiGraphicsResourceSetMapFlags@cudart@@YA?AW4cudaError@@PEAUcudaGraphicsResource@@I@Z 000000018001b320 f   cudart_static:cudart_cuda_runtime_api.obj
 0001:0001a3b0       ?cudaApiGraphicsSubResourceGetMappedArray@cudart@@YA?AW4cudaError@@PEAPEAUcudaArray@@PEAUcudaGraphicsResource@@II@Z 000000018001b3b0 f   cudart_static:cudart_cuda_runtime_api.obj
 0001:0001a450       ?cudaApiGraphicsUnmapResources@cudart@@YA?AW4cudaError@@HPEAPEAUcudaGraphicsResource@@PEAUCUstream_st@@@Z 000000018001b450 f   cudart_static:cudart_cuda_runtime_api.obj
 0001:0001a4d0       ?cudaApiGraphicsUnregisterResource@cudart@@YA?AW4cudaError@@PEAUcudaGraphicsResource@@@Z 000000018001b4d0 f   cudart_static:cudart_cuda_runtime_api.obj
 0001:0001a540       ?cudaApiHostAlloc@cudart@@YA?AW4cudaError@@PEAPEAX_KI@Z 000000018001b540 f   cudart_static:cudart_cuda_runtime_api.obj
 0001:0001a5c0       ?cudaApiHostGetDevicePointer@cudart@@YA?AW4cudaError@@PEAPEAXPEAXI@Z 000000018001b5c0 f   cudart_static:cudart_cuda_runtime_api.obj
 0001:0001a650       ?cudaApiHostGetFlags@cudart@@YA?AW4cudaError@@PEAIPEAX@Z 000000018001b650 f   cudart_static:cudart_cuda_runtime_api.obj
 0001:0001a6e0       ?cudaApiHostRegister@cudart@@YA?AW4cudaError@@PEAX_KI@Z 000000018001b6e0 f   cudart_static:cudart_cuda_runtime_api.obj
 0001:0001a760       ?cudaApiHostUnregister@cudart@@YA?AW4cudaError@@PEAX@Z 000000018001b760 f   cudart_static:cudart_cuda_runtime_api.obj
 0001:0001a7d0       ?cudaApiImportExternalMemory@cudart@@YA?AW4cudaError@@PEAPEAUCUexternalMemory_st@@PEBUcudaExternalMemoryHandleDesc@@@Z 000000018001b7d0 f   cudart_static:cudart_cuda_runtime_api.obj
 0001:0001a930       ?cudaApiImportExternalSemaphore@cudart@@YA?AW4cudaError@@PEAPEAUCUexternalSemaphore_st@@PEBUcudaExternalSemaphoreHandleDesc@@@Z 000000018001b930 f   cudart_static:cudart_cuda_runtime_api.obj
 0001:0001aab0       ?cudaApiInitDevice@cudart@@YA?AW4cudaError@@HII@Z 000000018001bab0 f   cudart_static:cudart_cuda_runtime_api.obj
 0001:0001ac00       ?cudaApiIpcCloseMemHandle@cudart@@YA?AW4cudaError@@PEAX@Z 000000018001bc00 f   cudart_static:cudart_cuda_runtime_api.obj
 0001:0001ac70       ?cudaApiIpcGetEventHandle@cudart@@YA?AW4cudaError@@PEAUcudaIpcEventHandle_st@@PEAUCUevent_st@@@Z 000000018001bc70 f   cudart_static:cudart_cuda_runtime_api.obj
 0001:0001ad30       ?cudaApiIpcGetMemHandle@cudart@@YA?AW4cudaError@@PEAUcudaIpcMemHandle_st@@PEAX@Z 000000018001bd30 f   cudart_static:cudart_cuda_runtime_api.obj
 0001:0001adf0       ?cudaApiIpcOpenEventHandle@cudart@@YA?AW4cudaError@@PEAPEAUCUevent_st@@UcudaIpcEventHandle_st@@@Z 000000018001bdf0 f   cudart_static:cudart_cuda_runtime_api.obj
 0001:0001aed0       ?cudaApiIpcOpenMemHandle@cudart@@YA?AW4cudaError@@PEAPEAXUcudaIpcMemHandle_st@@I@Z 000000018001bed0 f   cudart_static:cudart_cuda_runtime_api.obj
 0001:0001afb0       ?cudaApiLaunchCooperativeKernel@cudart@@YA?AW4cudaError@@PEBXUdim3@@1PEAPEAX_KPEAUCUstream_st@@@Z 000000018001bfb0 f   cudart_static:cudart_cuda_runtime_api.obj
 0001:0001b1b0       ?cudaApiLaunchCooperativeKernelMultiDevice@cudart@@YA?AW4cudaError@@PEAUcudaLaunchParams@@II@Z 000000018001c1b0 f   cudart_static:cudart_cuda_runtime_api.obj
 0001:0001b480       ?cudaApiLaunchCooperativeKernel_ptsz@cudart@@YA?AW4cudaError@@PEBXUdim3@@1PEAPEAX_KPEAUCUstream_st@@@Z 000000018001c480 f   cudart_static:cudart_cuda_runtime_api.obj
 0001:0001b4e0       ?cudaApiLaunchHostFunc@cudart@@YA?AW4cudaError@@PEAUCUstream_st@@P6AXPEAX@Z1@Z 000000018001c4e0 f   cudart_static:cudart_cuda_runtime_api.obj
 0001:0001b600       ?cudaApiLaunchHostFunc_ptsz@cudart@@YA?AW4cudaError@@PEAUCUstream_st@@P6AXPEAX@Z1@Z 000000018001c600 f   cudart_static:cudart_cuda_runtime_api.obj
 0001:0001b680       ?cudaApiLaunchKernel@cudart@@YA?AW4cudaError@@PEBXUdim3@@1PEAPEAX_KPEAUCUstream_st@@@Z 000000018001c680 f   cudart_static:cudart_cuda_runtime_api.obj
 0001:0001b880       ?cudaApiLaunchKernelExC@cudart@@YA?AW4cudaError@@PEBUcudaLaunchConfig_st@@PEBXPEAPEAX@Z 000000018001c880 f   cudart_static:cudart_cuda_runtime_api.obj
 0001:0001b890       ?cudaApiLaunchKernelExC_ptsz@cudart@@YA?AW4cudaError@@PEBUcudaLaunchConfig_st@@PEBXPEAPEAX@Z 000000018001c890 f   cudart_static:cudart_cuda_runtime_api.obj
 0001:0001ba30       ?cudaApiLaunchKernel_ptsz@cudart@@YA?AW4cudaError@@PEBXUdim3@@1PEAPEAX_KPEAUCUstream_st@@@Z 000000018001ca30 f   cudart_static:cudart_cuda_runtime_api.obj
 0001:0001ba90       ?cudaApiMalloc3D@cudart@@YA?AW4cudaError@@PEAUcudaPitchedPtr@@UcudaExtent@@@Z 000000018001ca90 f   cudart_static:cudart_cuda_runtime_api.obj
 0001:0001bb40       ?cudaApiMalloc3DArray@cudart@@YA?AW4cudaError@@PEAPEAUcudaArray@@PEBUcudaChannelFormatDesc@@UcudaExtent@@I@Z 000000018001cb40 f   cudart_static:cudart_cuda_runtime_api.obj
 0001:0001bbf0       ?cudaApiMalloc@cudart@@YA?AW4cudaError@@PEAPEAX_K@Z 000000018001cbf0 f   cudart_static:cudart_cuda_runtime_api.obj
 0001:0001bc80       ?cudaApiMallocArray@cudart@@YA?AW4cudaError@@PEAPEAUcudaArray@@PEBUcudaChannelFormatDesc@@_K2I@Z 000000018001cc80 f   cudart_static:cudart_cuda_runtime_api.obj
 0001:0001bd30       ?cudaApiMallocAsync@cudart@@YA?AW4cudaError@@PEAPEAX_KPEAUCUstream_st@@@Z 000000018001cd30 f   cudart_static:cudart_cuda_runtime_api.obj
 0001:0001beb0       ?cudaApiMallocAsync_ptsz@cudart@@YA?AW4cudaError@@PEAPEAX_KPEAUCUstream_st@@@Z 000000018001ceb0 f   cudart_static:cudart_cuda_runtime_api.obj
 0001:0001bf50       ?cudaApiMallocFromPoolAsync@cudart@@YA?AW4cudaError@@PEAPEAX_KPEAUCUmemPoolHandle_st@@PEAUCUstream_st@@@Z 000000018001cf50 f   cudart_static:cudart_cuda_runtime_api.obj
 0001:0001c0f0       ?cudaApiMallocFromPoolAsync_ptsz@cudart@@YA?AW4cudaError@@PEAPEAX_KPEAUCUmemPoolHandle_st@@PEAUCUstream_st@@@Z 000000018001d0f0 f   cudart_static:cudart_cuda_runtime_api.obj
 0001:0001c1a0       ?cudaApiMallocHost@cudart@@YA?AW4cudaError@@PEAPEAX_K@Z 000000018001d1a0 f   cudart_static:cudart_cuda_runtime_api.obj
 0001:0001c220       ?cudaApiMallocManaged@cudart@@YA?AW4cudaError@@PEAPEAX_KI@Z 000000018001d220 f   cudart_static:cudart_cuda_runtime_api.obj
 0001:0001c2b0       ?cudaApiMallocMipmappedArray@cudart@@YA?AW4cudaError@@PEAPEAUcudaMipmappedArray@@PEBUcudaChannelFormatDesc@@UcudaExtent@@II@Z 000000018001d2b0 f   cudart_static:cudart_cuda_runtime_api.obj
 0001:0001c360       ?cudaApiMallocPitch@cudart@@YA?AW4cudaError@@PEAPEAXPEA_K_K2@Z 000000018001d360 f   cudart_static:cudart_cuda_runtime_api.obj
 0001:0001c400       ?cudaApiMemAdvise@cudart@@YA?AW4cudaError@@PEBX_KW4cudaMemoryAdvise@@H@Z 000000018001d400 f   cudart_static:cudart_cuda_runtime_api.obj
 0001:0001c450       ?cudaApiMemAdvise_v2@cudart@@YA?AW4cudaError@@PEBX_KW4cudaMemoryAdvise@@UcudaMemLocation@@@Z 000000018001d450 f   cudart_static:cudart_cuda_runtime_api.obj
 0001:0001c4b0       ?cudaApiMemGetInfo@cudart@@YA?AW4cudaError@@PEA_K0@Z 000000018001d4b0 f   cudart_static:cudart_cuda_runtime_api.obj
 0001:0001c530       ?cudaApiMemPoolCreate@cudart@@YA?AW4cudaError@@PEAPEAUCUmemPoolHandle_st@@PEBUcudaMemPoolProps@@@Z 000000018001d530 f   cudart_static:cudart_cuda_runtime_api.obj
 0001:0001c600       ?cudaApiMemPoolDestroy@cudart@@YA?AW4cudaError@@PEAUCUmemPoolHandle_st@@@Z 000000018001d600 f   cudart_static:cudart_cuda_runtime_api.obj
 0001:0001c650       ?cudaApiMemPoolExportPointer@cudart@@YA?AW4cudaError@@PEAUcudaMemPoolPtrExportData@@PEAX@Z 000000018001d650 f   cudart_static:cudart_cuda_runtime_api.obj
 0001:0001c6a0       ?cudaApiMemPoolExportToShareableHandle@cudart@@YA?AW4cudaError@@PEAXPEAUCUmemPoolHandle_st@@W4cudaMemAllocationHandleType@@I@Z 000000018001d6a0 f   cudart_static:cudart_cuda_runtime_api.obj
 0001:0001c6f0       ?cudaApiMemPoolGetAccess@cudart@@YA?AW4cudaError@@PEAW4cudaMemAccessFlags@@PEAUCUmemPoolHandle_st@@PEAUcudaMemLocation@@@Z 000000018001d6f0 f   cudart_static:cudart_cuda_runtime_api.obj
 0001:0001c770       ?cudaApiMemPoolGetAttribute@cudart@@YA?AW4cudaError@@PEAUCUmemPoolHandle_st@@W4cudaMemPoolAttr@@PEAX@Z 000000018001d770 f   cudart_static:cudart_cuda_runtime_api.obj
 0001:0001c7c0       ?cudaApiMemPoolImportFromShareableHandle@cudart@@YA?AW4cudaError@@PEAPEAUCUmemPoolHandle_st@@PEAXW4cudaMemAllocationHandleType@@I@Z 000000018001d7c0 f   cudart_static:cudart_cuda_runtime_api.obj
 0001:0001c810       ?cudaApiMemPoolImportPointer@cudart@@YA?AW4cudaError@@PEAPEAXPEAUCUmemPoolHandle_st@@PEAUcudaMemPoolPtrExportData@@@Z 000000018001d810 f   cudart_static:cudart_cuda_runtime_api.obj
 0001:0001c860       ?cudaApiMemPoolSetAccess@cudart@@YA?AW4cudaError@@PEAUCUmemPoolHandle_st@@PEBUcudaMemAccessDesc@@_K@Z 000000018001d860 f   cudart_static:cudart_cuda_runtime_api.obj
 0001:0001c960       ?cudaApiMemPoolSetAttribute@cudart@@YA?AW4cudaError@@PEAUCUmemPoolHandle_st@@W4cudaMemPoolAttr@@PEAX@Z 000000018001d960 f   cudart_static:cudart_cuda_runtime_api.obj
 0001:0001c9b0       ?cudaApiMemPoolTrimTo@cudart@@YA?AW4cudaError@@PEAUCUmemPoolHandle_st@@_K@Z 000000018001d9b0 f   cudart_static:cudart_cuda_runtime_api.obj
 0001:0001ca00       ?cudaApiMemPrefetchAsync@cudart@@YA?AW4cudaError@@PEBX_KHPEAUCUstream_st@@@Z 000000018001da00 f   cudart_static:cudart_cuda_runtime_api.obj
 0001:0001cbd0       ?cudaApiMemPrefetchAsync_ptsz@cudart@@YA?AW4cudaError@@PEBX_KHPEAUCUstream_st@@@Z 000000018001dbd0 f   cudart_static:cudart_cuda_runtime_api.obj
 0001:0001cc60       ?cudaApiMemPrefetchAsync_v2@cudart@@YA?AW4cudaError@@PEBX_KUcudaMemLocation@@IPEAUCUstream_st@@@Z 000000018001dc60 f   cudart_static:cudart_cuda_runtime_api.obj
 0001:0001ccf0       ?cudaApiMemPrefetchAsync_v2_ptsz@cudart@@YA?AW4cudaError@@PEBX_KUcudaMemLocation@@IPEAUCUstream_st@@@Z 000000018001dcf0 f   cudart_static:cudart_cuda_runtime_api.obj
 0001:0001cd80       ?cudaApiMemRangeGetAttribute@cudart@@YA?AW4cudaError@@PEAX_KW4cudaMemRangeAttribute@@PEBX1@Z 000000018001dd80 f   cudart_static:cudart_cuda_runtime_api.obj
 0001:0001cdd0       ?cudaApiMemRangeGetAttributes@cudart@@YA?AW4cudaError@@PEAPEAXPEA_KPEAW4cudaMemRangeAttribute@@_KPEBX3@Z 000000018001ddd0 f   cudart_static:cudart_cuda_runtime_api.obj
 0001:0001ce30       ?cudaApiMemcpy2D@cudart@@YA?AW4cudaError@@PEAX_KPEBX111W4cudaMemcpyKind@@@Z 000000018001de30 f   cudart_static:cudart_cuda_runtime_api.obj
 0001:0001ce70       ?cudaApiMemcpy2DArrayToArray@cudart@@YA?AW4cudaError@@PEAUcudaArray@@_K1PEBU3@1111W4cudaMemcpyKind@@@Z 000000018001de70 f   cudart_static:cudart_cuda_runtime_api.obj
 0001:0001cfb0       ?cudaApiMemcpy2DArrayToArray_ptds@cudart@@YA?AW4cudaError@@PEAUcudaArray@@_K1PEBU3@1111W4cudaMemcpyKind@@@Z 000000018001dfb0 f   cudart_static:cudart_cuda_runtime_api.obj
 0001:0001d010       ?cudaApiMemcpy2DAsync@cudart@@YA?AW4cudaError@@PEAX_KPEBX111W4cudaMemcpyKind@@PEAUCUstream_st@@@Z 000000018001e010 f   cudart_static:cudart_cuda_runtime_api.obj
 0001:0001d130       ?cudaApiMemcpy2DAsync_ptsz@cudart@@YA?AW4cudaError@@PEAX_KPEBX111W4cudaMemcpyKind@@PEAUCUstream_st@@@Z 000000018001e130 f   cudart_static:cudart_cuda_runtime_api.obj
 0001:0001d250       ?cudaApiMemcpy2DFromArray@cudart@@YA?AW4cudaError@@PEAX_KPEBUcudaArray@@1111W4cudaMemcpyKind@@@Z 000000018001e250 f   cudart_static:cudart_cuda_runtime_api.obj
 0001:0001d2a0       ?cudaApiMemcpy2DFromArrayAsync@cudart@@YA?AW4cudaError@@PEAX_KPEBUcudaArray@@1111W4cudaMemcpyKind@@PEAUCUstream_st@@@Z 000000018001e2a0 f   cudart_static:cudart_cuda_runtime_api.obj
 0001:0001d3e0       ?cudaApiMemcpy2DFromArrayAsync_ptsz@cudart@@YA?AW4cudaError@@PEAX_KPEBUcudaArray@@1111W4cudaMemcpyKind@@PEAUCUstream_st@@@Z 000000018001e3e0 f   cudart_static:cudart_cuda_runtime_api.obj
 0001:0001d520       ?cudaApiMemcpy2DFromArray_ptds@cudart@@YA?AW4cudaError@@PEAX_KPEBUcudaArray@@1111W4cudaMemcpyKind@@@Z 000000018001e520 f   cudart_static:cudart_cuda_runtime_api.obj
 0001:0001d570       ?cudaApiMemcpy2DToArray@cudart@@YA?AW4cudaError@@PEAUcudaArray@@_K1PEBX111W4cudaMemcpyKind@@@Z 000000018001e570 f   cudart_static:cudart_cuda_runtime_api.obj
 0001:0001d5c0       ?cudaApiMemcpy2DToArrayAsync@cudart@@YA?AW4cudaError@@PEAUcudaArray@@_K1PEBX111W4cudaMemcpyKind@@PEAUCUstream_st@@@Z 000000018001e5c0 f   cudart_static:cudart_cuda_runtime_api.obj
 0001:0001d700       ?cudaApiMemcpy2DToArrayAsync_ptsz@cudart@@YA?AW4cudaError@@PEAUcudaArray@@_K1PEBX111W4cudaMemcpyKind@@PEAUCUstream_st@@@Z 000000018001e700 f   cudart_static:cudart_cuda_runtime_api.obj
 0001:0001d840       ?cudaApiMemcpy2DToArray_ptds@cudart@@YA?AW4cudaError@@PEAUcudaArray@@_K1PEBX111W4cudaMemcpyKind@@@Z 000000018001e840 f   cudart_static:cudart_cuda_runtime_api.obj
 0001:0001d890       ?cudaApiMemcpy2D_ptds@cudart@@YA?AW4cudaError@@PEAX_KPEBX111W4cudaMemcpyKind@@@Z 000000018001e890 f   cudart_static:cudart_cuda_runtime_api.obj
 0001:0001d8d0       ?cudaApiMemcpy3D@cudart@@YA?AW4cudaError@@PEBUcudaMemcpy3DParms@@@Z 000000018001e8d0 f   cudart_static:cudart_cuda_runtime_api.obj
 0001:0001d8e0       ?cudaApiMemcpy3DAsync@cudart@@YA?AW4cudaError@@PEBUcudaMemcpy3DParms@@PEAUCUstream_st@@@Z 000000018001e8e0 f   cudart_static:cudart_cuda_runtime_api.obj
 0001:0001d990       ?cudaApiMemcpy3DAsync_ptsz@cudart@@YA?AW4cudaError@@PEBUcudaMemcpy3DParms@@PEAUCUstream_st@@@Z 000000018001e990 f   cudart_static:cudart_cuda_runtime_api.obj
 0001:0001da40       ?cudaApiMemcpy3DPeer@cudart@@YA?AW4cudaError@@PEBUcudaMemcpy3DPeerParms@@@Z 000000018001ea40 f   cudart_static:cudart_cuda_runtime_api.obj
 0001:0001da50       ?cudaApiMemcpy3DPeerAsync@cudart@@YA?AW4cudaError@@PEBUcudaMemcpy3DPeerParms@@PEAUCUstream_st@@@Z 000000018001ea50 f   cudart_static:cudart_cuda_runtime_api.obj
 0001:0001dbe0       ?cudaApiMemcpy3DPeerAsync_ptsz@cudart@@YA?AW4cudaError@@PEBUcudaMemcpy3DPeerParms@@PEAUCUstream_st@@@Z 000000018001ebe0 f   cudart_static:cudart_cuda_runtime_api.obj
 0001:0001dd70       ?cudaApiMemcpy3DPeer_ptds@cudart@@YA?AW4cudaError@@PEBUcudaMemcpy3DPeerParms@@@Z 000000018001ed70 f   cudart_static:cudart_cuda_runtime_api.obj
 0001:0001dd80       ?cudaApiMemcpy3D_ptds@cudart@@YA?AW4cudaError@@PEBUcudaMemcpy3DParms@@@Z 000000018001ed80 f   cudart_static:cudart_cuda_runtime_api.obj
 0001:0001dd90       ?cudaApiMemcpy@cudart@@YA?AW4cudaError@@PEAXPEBX_KW4cudaMemcpyKind@@@Z 000000018001ed90 f   cudart_static:cudart_cuda_runtime_api.obj
 0001:0001ddb0       ?cudaApiMemcpyArrayToArray@cudart@@YA?AW4cudaError@@PEAUcudaArray@@_K1PEBU3@111W4cudaMemcpyKind@@@Z 000000018001edb0 f   cudart_static:cudart_cuda_runtime_api.obj
 0001:0001ded0       ?cudaApiMemcpyArrayToArray_ptds@cudart@@YA?AW4cudaError@@PEAUcudaArray@@_K1PEBU3@111W4cudaMemcpyKind@@@Z 000000018001eed0 f   cudart_static:cudart_cuda_runtime_api.obj
 0001:0001df20       ?cudaApiMemcpyAsync@cudart@@YA?AW4cudaError@@PEAXPEBX_KW4cudaMemcpyKind@@PEAUCUstream_st@@@Z 000000018001ef20 f   cudart_static:cudart_cuda_runtime_api.obj
 0001:0001dfe0       ?cudaApiMemcpyAsync_ptsz@cudart@@YA?AW4cudaError@@PEAXPEBX_KW4cudaMemcpyKind@@PEAUCUstream_st@@@Z 000000018001efe0 f   cudart_static:cudart_cuda_runtime_api.obj
 0001:0001e0a0       ?cudaApiMemcpyFromArray@cudart@@YA?AW4cudaError@@PEAXPEBUcudaArray@@_K22W4cudaMemcpyKind@@@Z 000000018001f0a0 f   cudart_static:cudart_cuda_runtime_api.obj
 0001:0001e0d0       ?cudaApiMemcpyFromArrayAsync@cudart@@YA?AW4cudaError@@PEAXPEBUcudaArray@@_K22W4cudaMemcpyKind@@PEAUCUstream_st@@@Z 000000018001f0d0 f   cudart_static:cudart_cuda_runtime_api.obj
 0001:0001e1e0       ?cudaApiMemcpyFromArrayAsync_ptsz@cudart@@YA?AW4cudaError@@PEAXPEBUcudaArray@@_K22W4cudaMemcpyKind@@PEAUCUstream_st@@@Z 000000018001f1e0 f   cudart_static:cudart_cuda_runtime_api.obj
 0001:0001e2e0       ?cudaApiMemcpyFromArray_ptds@cudart@@YA?AW4cudaError@@PEAXPEBUcudaArray@@_K22W4cudaMemcpyKind@@@Z 000000018001f2e0 f   cudart_static:cudart_cuda_runtime_api.obj
 0001:0001e310       ?cudaApiMemcpyFromSymbol@cudart@@YA?AW4cudaError@@PEAXPEBX_K2W4cudaMemcpyKind@@@Z 000000018001f310 f   cudart_static:cudart_cuda_runtime_api.obj
 0001:0001e330       ?cudaApiMemcpyFromSymbolAsync@cudart@@YA?AW4cudaError@@PEAXPEBX_K2W4cudaMemcpyKind@@PEAUCUstream_st@@@Z 000000018001f330 f   cudart_static:cudart_cuda_runtime_api.obj
 0001:0001e480       ?cudaApiMemcpyFromSymbolAsync_ptsz@cudart@@YA?AW4cudaError@@PEAXPEBX_K2W4cudaMemcpyKind@@PEAUCUstream_st@@@Z 000000018001f480 f   cudart_static:cudart_cuda_runtime_api.obj
 0001:0001e600       ?cudaApiMemcpyFromSymbol_ptds@cudart@@YA?AW4cudaError@@PEAXPEBX_K2W4cudaMemcpyKind@@@Z 000000018001f600 f   cudart_static:cudart_cuda_runtime_api.obj
 0001:0001e620       ?cudaApiMemcpyPeer@cudart@@YA?AW4cudaError@@PEAXHPEBXH_K@Z 000000018001f620 f   cudart_static:cudart_cuda_runtime_api.obj
 0001:0001e760       ?cudaApiMemcpyPeerAsync@cudart@@YA?AW4cudaError@@PEAXHPEBXH_KPEAUCUstream_st@@@Z 000000018001f760 f   cudart_static:cudart_cuda_runtime_api.obj
 0001:0001e8b0       ?cudaApiMemcpyToArray@cudart@@YA?AW4cudaError@@PEAUcudaArray@@_K1PEBX1W4cudaMemcpyKind@@@Z 000000018001f8b0 f   cudart_static:cudart_cuda_runtime_api.obj
 0001:0001e8e0       ?cudaApiMemcpyToArrayAsync@cudart@@YA?AW4cudaError@@PEAUcudaArray@@_K1PEBX1W4cudaMemcpyKind@@PEAUCUstream_st@@@Z 000000018001f8e0 f   cudart_static:cudart_cuda_runtime_api.obj
 0001:0001e9f0       ?cudaApiMemcpyToArrayAsync_ptsz@cudart@@YA?AW4cudaError@@PEAUcudaArray@@_K1PEBX1W4cudaMemcpyKind@@PEAUCUstream_st@@@Z 000000018001f9f0 f   cudart_static:cudart_cuda_runtime_api.obj
 0001:0001eaf0       ?cudaApiMemcpyToArray_ptds@cudart@@YA?AW4cudaError@@PEAUcudaArray@@_K1PEBX1W4cudaMemcpyKind@@@Z 000000018001faf0 f   cudart_static:cudart_cuda_runtime_api.obj
 0001:0001eb20       ?cudaApiMemcpyToSymbol@cudart@@YA?AW4cudaError@@PEBX0_K1W4cudaMemcpyKind@@@Z 000000018001fb20 f   cudart_static:cudart_cuda_runtime_api.obj
 0001:0001eb40       ?cudaApiMemcpyToSymbolAsync@cudart@@YA?AW4cudaError@@PEBX0_K1W4cudaMemcpyKind@@PEAUCUstream_st@@@Z 000000018001fb40 f   cudart_static:cudart_cuda_runtime_api.obj
 0001:0001eca0       ?cudaApiMemcpyToSymbolAsync_ptsz@cudart@@YA?AW4cudaError@@PEBX0_K1W4cudaMemcpyKind@@PEAUCUstream_st@@@Z 000000018001fca0 f   cudart_static:cudart_cuda_runtime_api.obj
 0001:0001ee30       ?cudaApiMemcpyToSymbol_ptds@cudart@@YA?AW4cudaError@@PEBX0_K1W4cudaMemcpyKind@@@Z 000000018001fe30 f   cudart_static:cudart_cuda_runtime_api.obj
 0001:0001ee50       ?cudaApiMemcpy_ptds@cudart@@YA?AW4cudaError@@PEAXPEBX_KW4cudaMemcpyKind@@@Z 000000018001fe50 f   cudart_static:cudart_cuda_runtime_api.obj
 0001:0001ee70       ?cudaApiMemset2D@cudart@@YA?AW4cudaError@@PEAX_KH11@Z 000000018001fe70 f   cudart_static:cudart_cuda_runtime_api.obj
 0001:0001ee90       ?cudaApiMemset2DAsync@cudart@@YA?AW4cudaError@@PEAX_KH11PEAUCUstream_st@@@Z 000000018001fe90 f   cudart_static:cudart_cuda_runtime_api.obj
 0001:0001ef80       ?cudaApiMemset2DAsync_ptsz@cudart@@YA?AW4cudaError@@PEAX_KH11PEAUCUstream_st@@@Z 000000018001ff80 f   cudart_static:cudart_cuda_runtime_api.obj
 0001:0001f070       ?cudaApiMemset2D_ptds@cudart@@YA?AW4cudaError@@PEAX_KH11@Z 0000000180020070 f   cudart_static:cudart_cuda_runtime_api.obj
 0001:0001f090       ?cudaApiMemset3D@cudart@@YA?AW4cudaError@@UcudaPitchedPtr@@HUcudaExtent@@@Z 0000000180020090 f   cudart_static:cudart_cuda_runtime_api.obj
 0001:0001f170       ?cudaApiMemset3DAsync@cudart@@YA?AW4cudaError@@UcudaPitchedPtr@@HUcudaExtent@@PEAUCUstream_st@@@Z 0000000180020170 f   cudart_static:cudart_cuda_runtime_api.obj
 0001:0001f320       ?cudaApiMemset3DAsync_ptsz@cudart@@YA?AW4cudaError@@UcudaPitchedPtr@@HUcudaExtent@@PEAUCUstream_st@@@Z 0000000180020320 f   cudart_static:cudart_cuda_runtime_api.obj
 0001:0001f4d0       ?cudaApiMemset3D_ptds@cudart@@YA?AW4cudaError@@UcudaPitchedPtr@@HUcudaExtent@@@Z 00000001800204d0 f   cudart_static:cudart_cuda_runtime_api.obj
 0001:0001f5c0       ?cudaApiMemset@cudart@@YA?AW4cudaError@@PEAXH_K@Z 00000001800205c0 f   cudart_static:cudart_cuda_runtime_api.obj
 0001:0001f5d0       ?cudaApiMemsetAsync@cudart@@YA?AW4cudaError@@PEAXH_KPEAUCUstream_st@@@Z 00000001800205d0 f   cudart_static:cudart_cuda_runtime_api.obj
 0001:0001f690       ?cudaApiMemsetAsync_ptsz@cudart@@YA?AW4cudaError@@PEAXH_KPEAUCUstream_st@@@Z 0000000180020690 f   cudart_static:cudart_cuda_runtime_api.obj
 0001:0001f750       ?cudaApiMemset_ptds@cudart@@YA?AW4cudaError@@PEAXH_K@Z 0000000180020750 f   cudart_static:cudart_cuda_runtime_api.obj
 0001:0001f760       ?cudaApiMipmappedArrayGetMemoryRequirements@cudart@@YA?AW4cudaError@@PEAUcudaArrayMemoryRequirements@@PEAUcudaMipmappedArray@@H@Z 0000000180020760 f   cudart_static:cudart_cuda_runtime_api.obj
 0001:0001f800       ?cudaApiMipmappedArrayGetSparseProperties@cudart@@YA?AW4cudaError@@PEAUcudaArraySparseProperties@@PEAUcudaMipmappedArray@@@Z 0000000180020800 f   cudart_static:cudart_cuda_runtime_api.obj
 0001:0001f8c0       ?cudaApiOccupancyAvailableDynamicSMemPerBlock@cudart@@YA?AW4cudaError@@PEA_KPEBXHH@Z 00000001800208c0 f   cudart_static:cudart_cuda_runtime_api.obj
 0001:0001f9b0       ?cudaApiOccupancyMaxActiveBlocksPerMultiprocessor@cudart@@YA?AW4cudaError@@PEAHPEBXH_K@Z 00000001800209b0 f   cudart_static:cudart_cuda_runtime_api.obj
 0001:0001f9d0       ?cudaApiOccupancyMaxActiveBlocksPerMultiprocessorWithFlags@cudart@@YA?AW4cudaError@@PEAHPEBXH_KI@Z 00000001800209d0 f   cudart_static:cudart_cuda_runtime_api.obj
 0001:0001fad0       ?cudaApiOccupancyMaxActiveClusters@cudart@@YA?AW4cudaError@@PEAHPEBXPEBUcudaLaunchConfig_st@@@Z 0000000180020ad0 f   cudart_static:cudart_cuda_runtime_api.obj
 0001:0001fc10       ?cudaApiOccupancyMaxPotentialClusterSize@cudart@@YA?AW4cudaError@@PEAHPEBXPEBUcudaLaunchConfig_st@@@Z 0000000180020c10 f   cudart_static:cudart_cuda_runtime_api.obj
 0001:0001fd50       ?cudaApiPeekAtLastError@cudart@@YA?AW4cudaError@@XZ 0000000180020d50 f   cudart_static:cudart_cuda_runtime_api.obj
 0001:0001fd80       ?cudaApiPointerGetAttributes@cudart@@YA?AW4cudaError@@PEAUcudaPointerAttributes@@PEBX@Z 0000000180020d80 f   cudart_static:cudart_cuda_runtime_api.obj
 0001:0001fec0       ?cudaApiProfilerStart@cudart@@YA?AW4cudaError@@XZ 0000000180020ec0 f   cudart_static:cudart_cuda_runtime_api.obj
 0001:0001ff20       ?cudaApiProfilerStop@cudart@@YA?AW4cudaError@@XZ 0000000180020f20 f   cudart_static:cudart_cuda_runtime_api.obj
 0001:0001ffa0       ?cudaApiRuntimeGetVersion@cudart@@YA?AW4cudaError@@PEAH@Z 0000000180020fa0 f   cudart_static:cudart_cuda_runtime_api.obj
 0001:0001fff0       ?cudaApiSetDevice@cudart@@YA?AW4cudaError@@H@Z 0000000180020ff0 f   cudart_static:cudart_cuda_runtime_api.obj
 0001:000200a0       ?cudaApiSetDeviceFlags@cudart@@YA?AW4cudaError@@I@Z 00000001800210a0 f   cudart_static:cudart_cuda_runtime_api.obj
 0001:00020150       ?cudaApiSetDoubleForDevice@cudart@@YA?AW4cudaError@@PEAN@Z 0000000180021150 f   cudart_static:cudart_cuda_runtime_api.obj
 0001:00020160       ?cudaApiSetDoubleForHost@cudart@@YA?AW4cudaError@@PEAN@Z 0000000180021160 f   cudart_static:cudart_cuda_runtime_api.obj
 0001:00020170       ?cudaApiSetValidDevices@cudart@@YA?AW4cudaError@@PEAHH@Z 0000000180021170 f   cudart_static:cudart_cuda_runtime_api.obj
 0001:00020200       ?cudaApiSignalExternalSemaphoresAsync@cudart@@YA?AW4cudaError@@PEBQEAUCUexternalSemaphore_st@@PEBUcudaExternalSemaphoreSignalParams_v1@@IPEAUCUstream_st@@@Z 0000000180021200 f   cudart_static:cudart_cuda_runtime_api.obj
 0001:00020430       ?cudaApiSignalExternalSemaphoresAsync_ptsz@cudart@@YA?AW4cudaError@@PEBQEAUCUexternalSemaphore_st@@PEBUcudaExternalSemaphoreSignalParams_v1@@IPEAUCUstream_st@@@Z 0000000180021430 f   cudart_static:cudart_cuda_runtime_api.obj
 0001:00020450       ?cudaApiSignalExternalSemaphoresAsync_v2@cudart@@YA?AW4cudaError@@PEBQEAUCUexternalSemaphore_st@@PEBUcudaExternalSemaphoreSignalParams@@IPEAUCUstream_st@@@Z 0000000180021450 f   cudart_static:cudart_cuda_runtime_api.obj
 0001:000204e0       ?cudaApiSignalExternalSemaphoresAsync_v2_ptsz@cudart@@YA?AW4cudaError@@PEBQEAUCUexternalSemaphore_st@@PEBUcudaExternalSemaphoreSignalParams@@IPEAUCUstream_st@@@Z 00000001800214e0 f   cudart_static:cudart_cuda_runtime_api.obj
 0001:00020570       ?cudaApiStreamAddCallback@cudart@@YA?AW4cudaError@@PEAUCUstream_st@@P6AX0W42@PEAX@Z2I@Z 0000000180021570 f   cudart_static:cudart_cuda_runtime_api.obj
 0001:00020660       ?cudaApiStreamAddCallback_ptsz@cudart@@YA?AW4cudaError@@PEAUCUstream_st@@P6AX0W42@PEAX@Z2I@Z 0000000180021660 f   cudart_static:cudart_cuda_runtime_api.obj
 0001:00020680       ?cudaApiStreamAttachMemAsync@cudart@@YA?AW4cudaError@@PEAUCUstream_st@@PEAX_KI@Z 0000000180021680 f   cudart_static:cudart_cuda_runtime_api.obj
 0001:000207b0       ?cudaApiStreamAttachMemAsync_ptsz@cudart@@YA?AW4cudaError@@PEAUCUstream_st@@PEAX_KI@Z 00000001800217b0 f   cudart_static:cudart_cuda_runtime_api.obj
 0001:00020840       ?cudaApiStreamBeginCapture@cudart@@YA?AW4cudaError@@PEAUCUstream_st@@W4cudaStreamCaptureMode@@@Z 0000000180021840 f   cudart_static:cudart_cuda_runtime_api.obj
 0001:00020950       ?cudaApiStreamBeginCapture_ptsz@cudart@@YA?AW4cudaError@@PEAUCUstream_st@@W4cudaStreamCaptureMode@@@Z 0000000180021950 f   cudart_static:cudart_cuda_runtime_api.obj
 0001:000209d0       ?cudaApiStreamCopyAttributes@cudart@@YA?AW4cudaError@@PEAUCUstream_st@@0@Z 00000001800219d0 f   cudart_static:cudart_cuda_runtime_api.obj
 0001:00020ae0       ?cudaApiStreamCopyAttributes_ptsz@cudart@@YA?AW4cudaError@@PEAUCUstream_st@@0@Z 0000000180021ae0 f   cudart_static:cudart_cuda_runtime_api.obj
 0001:00020b60       ?cudaApiStreamCreate@cudart@@YA?AW4cudaError@@PEAPEAUCUstream_st@@@Z 0000000180021b60 f   cudart_static:cudart_cuda_runtime_api.obj
 0001:00020bd0       ?cudaApiStreamCreateWithFlags@cudart@@YA?AW4cudaError@@PEAPEAUCUstream_st@@I@Z 0000000180021bd0 f   cudart_static:cudart_cuda_runtime_api.obj
 0001:00020c50       ?cudaApiStreamCreateWithPriority@cudart@@YA?AW4cudaError@@PEAPEAUCUstream_st@@IH@Z 0000000180021c50 f   cudart_static:cudart_cuda_runtime_api.obj
 0001:00020cd0       ?cudaApiStreamDestroy@cudart@@YA?AW4cudaError@@PEAUCUstream_st@@@Z 0000000180021cd0 f   cudart_static:cudart_cuda_runtime_api.obj
 0001:00020d40       ?cudaApiStreamEndCapture@cudart@@YA?AW4cudaError@@PEAUCUstream_st@@PEAPEAUCUgraph_st@@@Z 0000000180021d40 f   cudart_static:cudart_cuda_runtime_api.obj
 0001:00020e50       ?cudaApiStreamEndCapture_ptsz@cudart@@YA?AW4cudaError@@PEAUCUstream_st@@PEAPEAUCUgraph_st@@@Z 0000000180021e50 f   cudart_static:cudart_cuda_runtime_api.obj
 0001:00020ed0       ?cudaApiStreamGetAttribute@cudart@@YA?AW4cudaError@@PEAUCUstream_st@@W4cudaLaunchAttributeID@@PEATcudaLaunchAttributeValue@@@Z 0000000180021ed0 f   cudart_static:cudart_cuda_runtime_api.obj
 0001:00020ff0       ?cudaApiStreamGetAttribute_ptsz@cudart@@YA?AW4cudaError@@PEAUCUstream_st@@W4cudaLaunchAttributeID@@PEATcudaLaunchAttributeValue@@@Z 0000000180021ff0 f   cudart_static:cudart_cuda_runtime_api.obj
 0001:00021000       ?cudaApiStreamGetCaptureInfo@cudart@@YA?AW4cudaError@@PEAUCUstream_st@@PEAW4cudaStreamCaptureStatus@@PEA_K@Z 0000000180022000 f   cudart_static:cudart_cuda_runtime_api.obj
 0001:000211b0       ?cudaApiStreamGetCaptureInfo_ptsz@cudart@@YA?AW4cudaError@@PEAUCUstream_st@@PEAW4cudaStreamCaptureStatus@@PEA_K@Z 00000001800221b0 f   cudart_static:cudart_cuda_runtime_api.obj
 0001:00021270       ?cudaApiStreamGetCaptureInfo_v2@cudart@@YA?AW4cudaError@@PEAUCUstream_st@@PEAW4cudaStreamCaptureStatus@@PEA_KPEAPEAUCUgraph_st@@PEAPEBQEAUCUgraphNode_st@@2@Z 0000000180022270 f   cudart_static:cudart_cuda_runtime_api.obj
 0001:00021350       ?cudaApiStreamGetCaptureInfo_v2_ptsz@cudart@@YA?AW4cudaError@@PEAUCUstream_st@@PEAW4cudaStreamCaptureStatus@@PEA_KPEAPEAUCUgraph_st@@PEAPEBQEAUCUgraphNode_st@@2@Z 0000000180022350 f   cudart_static:cudart_cuda_runtime_api.obj
 0001:00021430       ?cudaApiStreamGetFlags@cudart@@YA?AW4cudaError@@PEAUCUstream_st@@PEAI@Z 0000000180022430 f   cudart_static:cudart_cuda_runtime_api.obj
 0001:00021540       ?cudaApiStreamGetFlags_ptsz@cudart@@YA?AW4cudaError@@PEAUCUstream_st@@PEAI@Z 0000000180022540 f   cudart_static:cudart_cuda_runtime_api.obj
 0001:000215c0       ?cudaApiStreamGetId@cudart@@YA?AW4cudaError@@PEAUCUstream_st@@PEA_K@Z 00000001800225c0 f   cudart_static:cudart_cuda_runtime_api.obj
 0001:000216d0       ?cudaApiStreamGetId_ptsz@cudart@@YA?AW4cudaError@@PEAUCUstream_st@@PEA_K@Z 00000001800226d0 f   cudart_static:cudart_cuda_runtime_api.obj
 0001:00021750       ?cudaApiStreamGetPriority@cudart@@YA?AW4cudaError@@PEAUCUstream_st@@PEAH@Z 0000000180022750 f   cudart_static:cudart_cuda_runtime_api.obj
 0001:00021860       ?cudaApiStreamGetPriority_ptsz@cudart@@YA?AW4cudaError@@PEAUCUstream_st@@PEAH@Z 0000000180022860 f   cudart_static:cudart_cuda_runtime_api.obj
 0001:000218e0       ?cudaApiStreamIsCapturing@cudart@@YA?AW4cudaError@@PEAUCUstream_st@@PEAW4cudaStreamCaptureStatus@@@Z 00000001800228e0 f   cudart_static:cudart_cuda_runtime_api.obj
 0001:000219d0       ?cudaApiStreamIsCapturing_ptsz@cudart@@YA?AW4cudaError@@PEAUCUstream_st@@PEAW4cudaStreamCaptureStatus@@@Z 00000001800229d0 f   cudart_static:cudart_cuda_runtime_api.obj
 0001:000219e0       ?cudaApiStreamQuery@cudart@@YA?AW4cudaError@@PEAUCUstream_st@@@Z 00000001800229e0 f   cudart_static:cudart_cuda_runtime_api.obj
 0001:00021b00       ?cudaApiStreamQuery_ptsz@cudart@@YA?AW4cudaError@@PEAUCUstream_st@@@Z 0000000180022b00 f   cudart_static:cudart_cuda_runtime_api.obj
 0001:00021b80       ?cudaApiStreamSetAttribute@cudart@@YA?AW4cudaError@@PEAUCUstream_st@@W4cudaLaunchAttributeID@@PEBTcudaLaunchAttributeValue@@@Z 0000000180022b80 f   cudart_static:cudart_cuda_runtime_api.obj
 0001:00021ca0       ?cudaApiStreamSetAttribute_ptsz@cudart@@YA?AW4cudaError@@PEAUCUstream_st@@W4cudaLaunchAttributeID@@PEBTcudaLaunchAttributeValue@@@Z 0000000180022ca0 f   cudart_static:cudart_cuda_runtime_api.obj
 0001:00021cb0       ?cudaApiStreamSynchronize@cudart@@YA?AW4cudaError@@PEAUCUstream_st@@@Z 0000000180022cb0 f   cudart_static:cudart_cuda_runtime_api.obj
 0001:00021d20       ?cudaApiStreamSynchronize_ptsz@cudart@@YA?AW4cudaError@@PEAUCUstream_st@@@Z 0000000180022d20 f   cudart_static:cudart_cuda_runtime_api.obj
 0001:00021d90       ?cudaApiStreamUpdateCaptureDependencies@cudart@@YA?AW4cudaError@@PEAUCUstream_st@@PEAPEAUCUgraphNode_st@@_KI@Z 0000000180022d90 f   cudart_static:cudart_cuda_runtime_api.obj
 0001:00021ec0       ?cudaApiStreamUpdateCaptureDependencies_ptsz@cudart@@YA?AW4cudaError@@PEAUCUstream_st@@PEAPEAUCUgraphNode_st@@_KI@Z 0000000180022ec0 f   cudart_static:cudart_cuda_runtime_api.obj
 0001:00021f50       ?cudaApiStreamWaitEvent@cudart@@YA?AW4cudaError@@PEAUCUstream_st@@PEAUCUevent_st@@I@Z 0000000180022f50 f   cudart_static:cudart_cuda_runtime_api.obj
 0001:00021fd0       ?cudaApiStreamWaitEvent_ptsz@cudart@@YA?AW4cudaError@@PEAUCUstream_st@@PEAUCUevent_st@@I@Z 0000000180022fd0 f   cudart_static:cudart_cuda_runtime_api.obj
 0001:00022050       ?cudaApiThreadExchangeStreamCaptureMode@cudart@@YA?AW4cudaError@@PEAW4cudaStreamCaptureMode@@@Z 0000000180023050 f   cudart_static:cudart_cuda_runtime_api.obj
 0001:000220c0       ?cudaApiThreadExit@cudart@@YA?AW4cudaError@@XZ 00000001800230c0 f   cudart_static:cudart_cuda_runtime_api.obj
 0001:000221a0       ?cudaApiThreadGetCacheConfig@cudart@@YA?AW4cudaError@@PEAW4cudaFuncCache@@@Z 00000001800231a0 f   cudart_static:cudart_cuda_runtime_api.obj
 0001:00022210       ?cudaApiThreadGetLimit@cudart@@YA?AW4cudaError@@PEA_KW4cudaLimit@@@Z 0000000180023210 f   cudart_static:cudart_cuda_runtime_api.obj
 0001:00022290       ?cudaApiThreadSetCacheConfig@cudart@@YA?AW4cudaError@@W4cudaFuncCache@@@Z 0000000180023290 f   cudart_static:cudart_cuda_runtime_api.obj
 0001:00022300       ?cudaApiThreadSetLimit@cudart@@YA?AW4cudaError@@W4cudaLimit@@_K@Z 0000000180023300 f   cudart_static:cudart_cuda_runtime_api.obj
 0001:00022380       ?cudaApiThreadSynchronize@cudart@@YA?AW4cudaError@@XZ 0000000180023380 f   cudart_static:cudart_cuda_runtime_api.obj
 0001:000223e0       ?cudaApiUserObjectCreate@cudart@@YA?AW4cudaError@@PEAPEAUCUuserObject_st@@PEAXP6AX1@ZII@Z 00000001800233e0 f   cudart_static:cudart_cuda_runtime_api.obj
 0001:00022430       ?cudaApiUserObjectRelease@cudart@@YA?AW4cudaError@@PEAUCUuserObject_st@@I@Z 0000000180023430 f   cudart_static:cudart_cuda_runtime_api.obj
 0001:00022480       ?cudaApiUserObjectRetain@cudart@@YA?AW4cudaError@@PEAUCUuserObject_st@@I@Z 0000000180023480 f   cudart_static:cudart_cuda_runtime_api.obj
 0001:000224d0       ?cudaApiWGLGetDevice@cudart@@YA?AW4cudaError@@PEAHPEAX@Z 00000001800234d0 f   cudart_static:cudart_cuda_runtime_api.obj
 0001:00022520       ?cudaApiWaitExternalSemaphoresAsync@cudart@@YA?AW4cudaError@@PEBQEAUCUexternalSemaphore_st@@PEBUcudaExternalSemaphoreWaitParams_v1@@IPEAUCUstream_st@@@Z 0000000180023520 f   cudart_static:cudart_cuda_runtime_api.obj
 0001:00022750       ?cudaApiWaitExternalSemaphoresAsync_ptsz@cudart@@YA?AW4cudaError@@PEBQEAUCUexternalSemaphore_st@@PEBUcudaExternalSemaphoreWaitParams_v1@@IPEAUCUstream_st@@@Z 0000000180023750 f   cudart_static:cudart_cuda_runtime_api.obj
 0001:00022770       ?cudaApiWaitExternalSemaphoresAsync_v2@cudart@@YA?AW4cudaError@@PEBQEAUCUexternalSemaphore_st@@PEBUcudaExternalSemaphoreWaitParams@@IPEAUCUstream_st@@@Z 0000000180023770 f   cudart_static:cudart_cuda_runtime_api.obj
 0001:00022800       ?cudaApiWaitExternalSemaphoresAsync_v2_ptsz@cudart@@YA?AW4cudaError@@PEBQEAUCUexternalSemaphore_st@@PEBUcudaExternalSemaphoreWaitParams@@IPEAUCUstream_st@@@Z 0000000180023800 f   cudart_static:cudart_cuda_runtime_api.obj
 0001:00022950       ?getContextStateManager@globalState@cudart@@QEAAPEAVcontextStateManager@2@XZ 0000000180023950 f i cudart_static:cudart_cuda_runtime_api.obj
 0001:00022960       ?getCtxStateMgr@cudart@@YAPEAVcontextStateManager@1@XZ 0000000180023960 f i cudart_static:cudart_cuda_runtime_api.obj
 0001:00022980       ?getCudaVersion@globalState@cudart@@QEAAHXZ 0000000180023980 f i cudart_static:cudart_cuda_runtime_api.obj
 0001:00022990       ?getCudartError@cudart@@YA?AW4cudaError@@W4cudaError_enum@@@Z 0000000180023990 f   cudart_static:cudart_cuda_runtime_api.obj
 0001:000229a0       ?getCudartEtbl@globalState@cudart@@QEAAPEAUCUetblCudartInterface_st@@XZ 00000001800239a0 f i cudart_static:cudart_cuda_runtime_api.obj
 0001:000229b0       ?getDeviceCount@deviceMgr@cudart@@QEBAHXZ 00000001800239b0 f i cudart_static:cudart_cuda_runtime_api.obj
 0001:000229c0       ?getDeviceMgr@cudart@@YAPEAVdeviceMgr@1@XZ 00000001800239c0 f i cudart_static:cudart_cuda_runtime_api.obj
 0001:000229e0       ?getDeviceMgr@globalState@cudart@@QEAAPEAVdeviceMgr@2@XZ 00000001800239e0 f i cudart_static:cudart_cuda_runtime_api.obj
 0001:000229f0       ?getDriverContext@contextState@cudart@@QEAAPEAUCUctx_st@@XZ 00000001800239f0 f i cudart_static:cudart_cuda_runtime_api.obj
 0001:00022a00       ?getLaunchState@threadState@cudart@@QEAAPEAUthreadLaunchState@2@XZ 0000000180023a00 f i cudart_static:cudart_cuda_runtime_api.obj
 0001:00022a10       ?getRequestedDevice@threadState@cudart@@QEAAHXZ 0000000180023a10 f i cudart_static:cudart_cuda_runtime_api.obj
 0001:00022a20       ?hasInitializedDriver@globalState@cudart@@QEAA_NXZ 0000000180023a20 f i cudart_static:cudart_cuda_runtime_api.obj
 0001:00022a30       ?init@contextStateAuto@cudart@@QEAA?AW4cudaError@@XZ 0000000180023a30 f i cudart_static:cudart_cuda_runtime_api.obj
 0001:00022bd0       ?lock@contextState@cudart@@QEAAXXZ 0000000180023bd0 f i cudart_static:cudart_cuda_runtime_api.obj
 0001:00022be0       ?setRequestedDevice@threadState@cudart@@QEAAXH@Z 0000000180023be0 f i cudart_static:cudart_cuda_runtime_api.obj
 0001:00022bf0       ?toCudartGraphExecUpdateResult@cudart@@YAXW4CUgraphExecUpdateResult_enum@@PEAW4cudaGraphExecUpdateResult@@@Z 0000000180023bf0 f   cudart_static:cudart_cuda_runtime_api.obj
 0001:00022c20       ?toCudartGraphNodeType@cudart@@YA?AW4cudaError@@W4CUgraphNodeType_enum@@PEAW4cudaGraphNodeType@@@Z 0000000180023c20 f   cudart_static:cudart_cuda_runtime_api.obj
 0001:00022f70       ?toDriverHostNodeParams@cudart@@YAXPEBUcudaHostNodeParams@@PEAUCUDA_HOST_NODE_PARAMS_st@@@Z 0000000180023f70 f   cudart_static:cudart_cuda_runtime_api.obj
 0001:00022f80       ?toDriverKernelNodeParams@cudart@@YA?AW4cudaError@@PEBUcudaKernelNodeParams@@PEAUCUDA_KERNEL_NODE_PARAMS_v2_st@@@Z 0000000180023f80 f   cudart_static:cudart_cuda_runtime_api.obj
 0001:00023050       ?toDriverMemsetNodeParams@cudart@@YAXPEBUcudaMemsetParams@@PEAUCUDA_MEMSET_NODE_PARAMS_st@@@Z 0000000180024050 f   cudart_static:cudart_cuda_runtime_api.obj
 0001:00023080       ?toRuntimeHostNodeParams@cudart@@YAXPEBUCUDA_HOST_NODE_PARAMS_st@@PEAUcudaHostNodeParams@@@Z 0000000180024080 f   cudart_static:cudart_cuda_runtime_api.obj
 0001:00023090       ?toRuntimeKernelNodeParams@cudart@@YA?AW4cudaError@@PEBUCUDA_KERNEL_NODE_PARAMS_v2_st@@PEAUcudaKernelNodeParams@@@Z 0000000180024090 f   cudart_static:cudart_cuda_runtime_api.obj
 0001:00023110       ?toRuntimeMemsetNodeParams@cudart@@YAXPEBUCUDA_MEMSET_NODE_PARAMS_st@@PEAUcudaMemsetParams@@@Z 0000000180024110 f   cudart_static:cudart_cuda_runtime_api.obj
 0001:00023140       ?toRuntimeStreamCaptureStatus@cudart@@YA?AW4cudaError@@W4CUstreamCaptureStatus_enum@@PEAW4cudaStreamCaptureStatus@@@Z 0000000180024140 f   cudart_static:cudart_cuda_runtime_api.obj
 0001:00023170       ?toolsInternalCallbackEnabled@globalState@cudart@@QEAAII@Z 0000000180024170 f i cudart_static:cudart_cuda_runtime_api.obj
 0001:00023180       ?toolsInternalIssueCallback@globalState@cudart@@QEAAXIPEBX@Z 0000000180024180 f i cudart_static:cudart_cuda_runtime_api.obj
 0001:000231a0       ?unlock@contextState@cudart@@QEAAXXZ 00000001800241a0 f i cudart_static:cudart_cuda_runtime_api.obj
 0001:000231b0       __cudaGetKernel            00000001800241b0 f   cudart_static:cudart_cuda_runtime_api.obj
 0001:00023200       __cudaInitModule           0000000180024200 f   cudart_static:cudart_cuda_runtime_api.obj
 0001:000232d0       __cudaLaunchKernel         00000001800242d0 f   cudart_static:cudart_cuda_runtime_api.obj
 0001:00023330       __cudaLaunchKernel_ptsz    0000000180024330 f   cudart_static:cudart_cuda_runtime_api.obj
 0001:00023390       __cudaPopCallConfiguration 0000000180024390 f   cudart_static:cudart_cuda_runtime_api.obj
 0001:00023460       __cudaPushCallConfiguration 0000000180024460 f   cudart_static:cudart_cuda_runtime_api.obj
 0001:00023520       __cudaRegisterFatBinary    0000000180024520 f   cudart_static:cudart_cuda_runtime_api.obj
 0001:00023550       __cudaRegisterFatBinaryEnd 0000000180024550 f   cudart_static:cudart_cuda_runtime_api.obj
 0001:00023570       __cudaRegisterFunction     0000000180024570 f   cudart_static:cudart_cuda_runtime_api.obj
 0001:00023610       __cudaRegisterHostVar      0000000180024610 f   cudart_static:cudart_cuda_runtime_api.obj
 0001:00023660       __cudaRegisterManagedVar   0000000180024660 f   cudart_static:cudart_cuda_runtime_api.obj
 0001:00023710       __cudaRegisterUnifiedTable 0000000180024710 f   cudart_static:cudart_cuda_runtime_api.obj
 0001:00023770       __cudaRegisterVar          0000000180024770 f   cudart_static:cudart_cuda_runtime_api.obj
 0001:00023820       __cudaUnregisterFatBinary  0000000180024820 f   cudart_static:cudart_cuda_runtime_api.obj
 0001:00023850       cudaGetExportTable         0000000180024850 f   cudart_static:cudart_cuda_runtime_api.obj
 0001:000238a0       ??0cudaLaunchCooperativeKernel_ptsz_v9000_params_st@@QEAA@XZ 00000001800248a0 f i cudart_static:cudart_generated_cuda_runtime_api.obj
 0001:000238d0       ??0cudaLaunchCooperativeKernel_v9000_params_st@@QEAA@XZ 00000001800248d0 f i cudart_static:cudart_generated_cuda_runtime_api.obj
 0001:00023900       ??0cudaLaunchKernel_ptsz_v7000_params_st@@QEAA@XZ 0000000180024900 f i cudart_static:cudart_generated_cuda_runtime_api.obj
 0001:00023930       ??0cudaLaunchKernel_v7000_params_st@@QEAA@XZ 0000000180024930 f i cudart_static:cudart_generated_cuda_runtime_api.obj
 0001:00023960       ??0dim3@@QEAA@III@Z        0000000180024960 f i cudart_static:cudart_generated_cuda_runtime_api.obj
 0001:00023980       ?toolsCallbackEnabled@globalState@cudart@@QEAAII@Z 0000000180024980 f i cudart_static:cudart_generated_cuda_runtime_api.obj
 0001:00023990       ?toolsGetContextId@globalState@cudart@@QEAA?AW4cudaError_enum@@PEAUCUctx_st@@PEA_K@Z 0000000180024990 f i cudart_static:cudart_generated_cuda_runtime_api.obj
 0001:000239b0       ?toolsGetCurrentContext@globalState@cudart@@QEAAXPEAPEAUCUctx_st@@@Z 00000001800249b0 f i cudart_static:cudart_generated_cuda_runtime_api.obj
 0001:000239c0       ?toolsGetStreamId@globalState@cudart@@QEAA?AW4cudaError_enum@@PEAUCUctx_st@@PEAUCUstream_st@@PEA_K@Z 00000001800249c0 f i cudart_static:cudart_generated_cuda_runtime_api.obj
 0001:000239e0       ?toolsIssueCallback@globalState@cudart@@QEAAXIPEBX@Z 00000001800249e0 f i cudart_static:cudart_generated_cuda_runtime_api.obj
 0001:00023a00       cudaArrayGetInfo           0000000180024a00 f   cudart_static:cudart_generated_cuda_runtime_api.obj
 0001:00023b80       cudaArrayGetMemoryRequirements 0000000180024b80 f   cudart_static:cudart_generated_cuda_runtime_api.obj
 0001:00023ce0       cudaArrayGetPlane          0000000180024ce0 f   cudart_static:cudart_generated_cuda_runtime_api.obj
 0001:00023e40       cudaArrayGetSparseProperties 0000000180024e40 f   cudart_static:cudart_generated_cuda_runtime_api.obj
 0001:00023f90       cudaChooseDevice           0000000180024f90 f   cudart_static:cudart_generated_cuda_runtime_api.obj
 0001:000240e0       cudaCreateChannelDesc      00000001800250e0 f   cudart_static:cudart_generated_cuda_runtime_api.obj
 0001:000242a0       cudaCreateSurfaceObject    00000001800252a0 f   cudart_static:cudart_generated_cuda_runtime_api.obj
 0001:000243f0       cudaCreateTextureObject    00000001800253f0 f   cudart_static:cudart_generated_cuda_runtime_api.obj
 0001:00024570       cudaCtxResetPersistingL2Cache 0000000180025570 f   cudart_static:cudart_generated_cuda_runtime_api.obj
 0001:00024690       cudaDestroyExternalMemory  0000000180025690 f   cudart_static:cudart_generated_cuda_runtime_api.obj
 0001:000247c0       cudaDestroyExternalSemaphore 00000001800257c0 f   cudart_static:cudart_generated_cuda_runtime_api.obj
 0001:000248f0       cudaDestroySurfaceObject   00000001800258f0 f   cudart_static:cudart_generated_cuda_runtime_api.obj
 0001:00024a20       cudaDestroyTextureObject   0000000180025a20 f   cudart_static:cudart_generated_cuda_runtime_api.obj
 0001:00024b50       cudaDeviceCanAccessPeer    0000000180025b50 f   cudart_static:cudart_generated_cuda_runtime_api.obj
 0001:00024cb0       cudaDeviceDisablePeerAccess 0000000180025cb0 f   cudart_static:cudart_generated_cuda_runtime_api.obj
 0001:00024de0       cudaDeviceEnablePeerAccess 0000000180025de0 f   cudart_static:cudart_generated_cuda_runtime_api.obj
 0001:00024f30       cudaDeviceFlushGPUDirectRDMAWrites 0000000180025f30 f   cudart_static:cudart_generated_cuda_runtime_api.obj
 0001:00025080       cudaDeviceGetAttribute     0000000180026080 f   cudart_static:cudart_generated_cuda_runtime_api.obj
 0001:000251e0       cudaDeviceGetByPCIBusId    00000001800261e0 f   cudart_static:cudart_generated_cuda_runtime_api.obj
 0001:00025330       cudaDeviceGetCacheConfig   0000000180026330 f   cudart_static:cudart_generated_cuda_runtime_api.obj
 0001:00025460       cudaDeviceGetDefaultMemPool 0000000180026460 f   cudart_static:cudart_generated_cuda_runtime_api.obj
 0001:000255b0       cudaDeviceGetGraphMemAttribute 00000001800265b0 f   cudart_static:cudart_generated_cuda_runtime_api.obj
 0001:00025710       cudaDeviceGetLimit         0000000180026710 f   cudart_static:cudart_generated_cuda_runtime_api.obj
 0001:00025860       cudaDeviceGetMemPool       0000000180026860 f   cudart_static:cudart_generated_cuda_runtime_api.obj
 0001:000259b0       cudaDeviceGetNvSciSyncAttributes 00000001800269b0 f   cudart_static:cudart_generated_cuda_runtime_api.obj
 0001:00025b10       cudaDeviceGetP2PAttribute  0000000180026b10 f   cudart_static:cudart_generated_cuda_runtime_api.obj
 0001:00025c90       cudaDeviceGetPCIBusId      0000000180026c90 f   cudart_static:cudart_generated_cuda_runtime_api.obj
 0001:00025df0       cudaDeviceGetSharedMemConfig 0000000180026df0 f   cudart_static:cudart_generated_cuda_runtime_api.obj
 0001:00025f20       cudaDeviceGetStreamPriorityRange 0000000180026f20 f   cudart_static:cudart_generated_cuda_runtime_api.obj
 0001:00026070       cudaDeviceGetTexture1DLinearMaxWidth 0000000180027070 f   cudart_static:cudart_generated_cuda_runtime_api.obj
 0001:000261d0       cudaDeviceGraphMemTrim     00000001800271d0 f   cudart_static:cudart_generated_cuda_runtime_api.obj
 0001:00026300       cudaDeviceReset            0000000180027300 f   cudart_static:cudart_generated_cuda_runtime_api.obj
 0001:00026420       cudaDeviceSetCacheConfig   0000000180027420 f   cudart_static:cudart_generated_cuda_runtime_api.obj
 0001:00026550       cudaDeviceSetGraphMemAttribute 0000000180027550 f   cudart_static:cudart_generated_cuda_runtime_api.obj
 0001:000266b0       cudaDeviceSetLimit         00000001800276b0 f   cudart_static:cudart_generated_cuda_runtime_api.obj
 0001:00026810       cudaDeviceSetMemPool       0000000180027810 f   cudart_static:cudart_generated_cuda_runtime_api.obj
 0001:00026960       cudaDeviceSetSharedMemConfig 0000000180027960 f   cudart_static:cudart_generated_cuda_runtime_api.obj
 0001:00026a90       cudaDeviceSynchronize      0000000180027a90 f   cudart_static:cudart_generated_cuda_runtime_api.obj
 0001:00026bb0       cudaDriverGetVersion       0000000180027bb0 f   cudart_static:cudart_generated_cuda_runtime_api.obj
 0001:00026cd0       cudaEventCreate            0000000180027cd0 f   cudart_static:cudart_generated_cuda_runtime_api.obj
 0001:00026e00       cudaEventCreateWithFlags   0000000180027e00 f   cudart_static:cudart_generated_cuda_runtime_api.obj
 0001:00026f50       cudaEventDestroy           0000000180027f50 f   cudart_static:cudart_generated_cuda_runtime_api.obj
 0001:00027080       cudaEventElapsedTime       0000000180028080 f   cudart_static:cudart_generated_cuda_runtime_api.obj
 0001:000271e0       cudaEventQuery             00000001800281e0 f   cudart_static:cudart_generated_cuda_runtime_api.obj
 0001:00027310       cudaEventRecord            0000000180028310 f   cudart_static:cudart_generated_cuda_runtime_api.obj
 0001:00027480       cudaEventRecordWithFlags   0000000180028480 f   cudart_static:cudart_generated_cuda_runtime_api.obj
 0001:00027600       cudaEventRecordWithFlags_ptsz 0000000180028600 f   cudart_static:cudart_generated_cuda_runtime_api.obj
 0001:00027780       cudaEventRecord_ptsz       0000000180028780 f   cudart_static:cudart_generated_cuda_runtime_api.obj
 0001:000278f0       cudaEventSynchronize       00000001800288f0 f   cudart_static:cudart_generated_cuda_runtime_api.obj
 0001:00027a20       cudaExternalMemoryGetMappedBuffer 0000000180028a20 f   cudart_static:cudart_generated_cuda_runtime_api.obj
 0001:00027b80       cudaExternalMemoryGetMappedMipmappedArray 0000000180028b80 f   cudart_static:cudart_generated_cuda_runtime_api.obj
 0001:00027ce0       cudaFree                   0000000180028ce0 f   cudart_static:cudart_generated_cuda_runtime_api.obj
 0001:00027e10       cudaFreeArray              0000000180028e10 f   cudart_static:cudart_generated_cuda_runtime_api.obj
 0001:00027f40       cudaFreeAsync              0000000180028f40 f   cudart_static:cudart_generated_cuda_runtime_api.obj
 0001:00028090       cudaFreeAsync_ptsz         0000000180029090 f   cudart_static:cudart_generated_cuda_runtime_api.obj
 0001:000281e0       cudaFreeHost               00000001800291e0 f   cudart_static:cudart_generated_cuda_runtime_api.obj
 0001:00028310       cudaFreeMipmappedArray     0000000180029310 f   cudart_static:cudart_generated_cuda_runtime_api.obj
 0001:00028440       cudaFuncGetAttributes      0000000180029440 f   cudart_static:cudart_generated_cuda_runtime_api.obj
 0001:00028590       cudaFuncSetAttribute       0000000180029590 f   cudart_static:cudart_generated_cuda_runtime_api.obj
 0001:000286f0       cudaFuncSetCacheConfig     00000001800296f0 f   cudart_static:cudart_generated_cuda_runtime_api.obj
 0001:00028830       cudaFuncSetSharedMemConfig 0000000180029830 f   cudart_static:cudart_generated_cuda_runtime_api.obj
 0001:00028980       cudaGetChannelDesc         0000000180029980 f   cudart_static:cudart_generated_cuda_runtime_api.obj
 0001:00028ad0       cudaGetDevice              0000000180029ad0 f   cudart_static:cudart_generated_cuda_runtime_api.obj
 0001:00028c00       cudaGetDeviceCount         0000000180029c00 f   cudart_static:cudart_generated_cuda_runtime_api.obj
 0001:00028d30       cudaGetDeviceFlags         0000000180029d30 f   cudart_static:cudart_generated_cuda_runtime_api.obj
 0001:00028e60       cudaGetDeviceProperties    0000000180029e60 f   cudart_static:cudart_generated_cuda_runtime_api.obj
 0001:00028fa0       cudaGetDeviceProperties_v2 0000000180029fa0 f   cudart_static:cudart_generated_cuda_runtime_api.obj
 0001:000290f0       cudaGetDriverEntryPoint    000000018002a0f0 f   cudart_static:cudart_generated_cuda_runtime_api.obj
 0001:00029270       cudaGetDriverEntryPoint_ptsz 000000018002a270 f   cudart_static:cudart_generated_cuda_runtime_api.obj
 0001:000293f0       cudaGetErrorName           000000018002a3f0 f   cudart_static:cudart_generated_cuda_runtime_api.obj
 0001:00029540       cudaGetErrorString         000000018002a540 f   cudart_static:cudart_generated_cuda_runtime_api.obj
 0001:00029690       cudaGetFuncBySymbol        000000018002a690 f   cudart_static:cudart_generated_cuda_runtime_api.obj
 0001:000297e0       cudaGetKernel              000000018002a7e0 f   cudart_static:cudart_generated_cuda_runtime_api.obj
 0001:00029930       cudaGetLastError           000000018002a930 f   cudart_static:cudart_generated_cuda_runtime_api.obj
 0001:00029a50       cudaGetMipmappedArrayLevel 000000018002aa50 f   cudart_static:cudart_generated_cuda_runtime_api.obj
 0001:00029bb0       cudaGetSurfaceObjectResourceDesc 000000018002abb0 f   cudart_static:cudart_generated_cuda_runtime_api.obj
 0001:00029d00       cudaGetSymbolAddress       000000018002ad00 f   cudart_static:cudart_generated_cuda_runtime_api.obj
 0001:00029e50       cudaGetSymbolSize          000000018002ae50 f   cudart_static:cudart_generated_cuda_runtime_api.obj
 0001:00029fa0       cudaGetTextureObjectResourceDesc 000000018002afa0 f   cudart_static:cudart_generated_cuda_runtime_api.obj
 0001:0002a0f0       cudaGetTextureObjectResourceViewDesc 000000018002b0f0 f   cudart_static:cudart_generated_cuda_runtime_api.obj
 0001:0002a240       cudaGetTextureObjectTextureDesc 000000018002b240 f   cudart_static:cudart_generated_cuda_runtime_api.obj
 0001:0002a390       cudaGraphAddChildGraphNode 000000018002b390 f   cudart_static:cudart_generated_cuda_runtime_api.obj
 0001:0002a530       cudaGraphAddDependencies   000000018002b530 f   cudart_static:cudart_generated_cuda_runtime_api.obj
 0001:0002a6b0       cudaGraphAddEmptyNode      000000018002b6b0 f   cudart_static:cudart_generated_cuda_runtime_api.obj
 0001:0002a830       cudaGraphAddEventRecordNode 000000018002b830 f   cudart_static:cudart_generated_cuda_runtime_api.obj
 0001:0002a9d0       cudaGraphAddEventWaitNode  000000018002b9d0 f   cudart_static:cudart_generated_cuda_runtime_api.obj
 0001:0002ab70       cudaGraphAddExternalSemaphoresSignalNode 000000018002bb70 f   cudart_static:cudart_generated_cuda_runtime_api.obj
 0001:0002ad10       cudaGraphAddExternalSemaphoresWaitNode 000000018002bd10 f   cudart_static:cudart_generated_cuda_runtime_api.obj
 0001:0002aeb0       cudaGraphAddHostNode       000000018002beb0 f   cudart_static:cudart_generated_cuda_runtime_api.obj
 0001:0002b050       cudaGraphAddKernelNode     000000018002c050 f   cudart_static:cudart_generated_cuda_runtime_api.obj
 0001:0002b1f0       cudaGraphAddMemAllocNode   000000018002c1f0 f   cudart_static:cudart_generated_cuda_runtime_api.obj
 0001:0002b390       cudaGraphAddMemFreeNode    000000018002c390 f   cudart_static:cudart_generated_cuda_runtime_api.obj
 0001:0002b530       cudaGraphAddMemcpyNode     000000018002c530 f   cudart_static:cudart_generated_cuda_runtime_api.obj
 0001:0002b6d0       cudaGraphAddMemcpyNode1D   000000018002c6d0 f   cudart_static:cudart_generated_cuda_runtime_api.obj
 0001:0002b8e0       cudaGraphAddMemcpyNodeFromSymbol 000000018002c8e0 f   cudart_static:cudart_generated_cuda_runtime_api.obj
 0001:0002bb20       cudaGraphAddMemcpyNodeToSymbol 000000018002cb20 f   cudart_static:cudart_generated_cuda_runtime_api.obj
 0001:0002bd60       cudaGraphAddMemsetNode     000000018002cd60 f   cudart_static:cudart_generated_cuda_runtime_api.obj
 0001:0002bf00       cudaGraphAddNode           000000018002cf00 f   cudart_static:cudart_generated_cuda_runtime_api.obj
 0001:0002c0a0       cudaGraphChildGraphNodeGetGraph 000000018002d0a0 f   cudart_static:cudart_generated_cuda_runtime_api.obj
 0001:0002c1f0       cudaGraphClone             000000018002d1f0 f   cudart_static:cudart_generated_cuda_runtime_api.obj
 0001:0002c340       cudaGraphCreate            000000018002d340 f   cudart_static:cudart_generated_cuda_runtime_api.obj
 0001:0002c490       cudaGraphDebugDotPrint     000000018002d490 f   cudart_static:cudart_generated_cuda_runtime_api.obj
 0001:0002c5f0       cudaGraphDestroy           000000018002d5f0 f   cudart_static:cudart_generated_cuda_runtime_api.obj
 0001:0002c720       cudaGraphDestroyNode       000000018002d720 f   cudart_static:cudart_generated_cuda_runtime_api.obj
 0001:0002c850       cudaGraphEventRecordNodeGetEvent 000000018002d850 f   cudart_static:cudart_generated_cuda_runtime_api.obj
 0001:0002c9a0       cudaGraphEventRecordNodeSetEvent 000000018002d9a0 f   cudart_static:cudart_generated_cuda_runtime_api.obj
 0001:0002caf0       cudaGraphEventWaitNodeGetEvent 000000018002daf0 f   cudart_static:cudart_generated_cuda_runtime_api.obj
 0001:0002cc40       cudaGraphEventWaitNodeSetEvent 000000018002dc40 f   cudart_static:cudart_generated_cuda_runtime_api.obj
 0001:0002cd90       cudaGraphExecChildGraphNodeSetParams 000000018002dd90 f   cudart_static:cudart_generated_cuda_runtime_api.obj
 0001:0002cef0       cudaGraphExecDestroy       000000018002def0 f   cudart_static:cudart_generated_cuda_runtime_api.obj
 0001:0002d020       cudaGraphExecEventRecordNodeSetEvent 000000018002e020 f   cudart_static:cudart_generated_cuda_runtime_api.obj
 0001:0002d180       cudaGraphExecEventWaitNodeSetEvent 000000018002e180 f   cudart_static:cudart_generated_cuda_runtime_api.obj
 0001:0002d2e0       cudaGraphExecExternalSemaphoresSignalNodeSetParams 000000018002e2e0 f   cudart_static:cudart_generated_cuda_runtime_api.obj
 0001:0002d440       cudaGraphExecExternalSemaphoresWaitNodeSetParams 000000018002e440 f   cudart_static:cudart_generated_cuda_runtime_api.obj
 0001:0002d5a0       cudaGraphExecGetFlags      000000018002e5a0 f   cudart_static:cudart_generated_cuda_runtime_api.obj
 0001:0002d6f0       cudaGraphExecHostNodeSetParams 000000018002e6f0 f   cudart_static:cudart_generated_cuda_runtime_api.obj
 0001:0002d850       cudaGraphExecKernelNodeSetParams 000000018002e850 f   cudart_static:cudart_generated_cuda_runtime_api.obj
 0001:0002d9b0       cudaGraphExecMemcpyNodeSetParams 000000018002e9b0 f   cudart_static:cudart_generated_cuda_runtime_api.obj
 0001:0002db10       cudaGraphExecMemcpyNodeSetParams1D 000000018002eb10 f   cudart_static:cudart_generated_cuda_runtime_api.obj
 0001:0002dcd0       cudaGraphExecMemcpyNodeSetParamsFromSymbol 000000018002ecd0 f   cudart_static:cudart_generated_cuda_runtime_api.obj
 0001:0002deb0       cudaGraphExecMemcpyNodeSetParamsToSymbol 000000018002eeb0 f   cudart_static:cudart_generated_cuda_runtime_api.obj
 0001:0002e090       cudaGraphExecMemsetNodeSetParams 000000018002f090 f   cudart_static:cudart_generated_cuda_runtime_api.obj
 0001:0002e1f0       cudaGraphExecNodeSetParams 000000018002f1f0 f   cudart_static:cudart_generated_cuda_runtime_api.obj
 0001:0002e350       cudaGraphExecUpdate        000000018002f350 f   cudart_static:cudart_generated_cuda_runtime_api.obj
 0001:0002e4b0       cudaGraphExternalSemaphoresSignalNodeGetParams 000000018002f4b0 f   cudart_static:cudart_generated_cuda_runtime_api.obj
 0001:0002e600       cudaGraphExternalSemaphoresSignalNodeSetParams 000000018002f600 f   cudart_static:cudart_generated_cuda_runtime_api.obj
 0001:0002e750       cudaGraphExternalSemaphoresWaitNodeGetParams 000000018002f750 f   cudart_static:cudart_generated_cuda_runtime_api.obj
 0001:0002e8a0       cudaGraphExternalSemaphoresWaitNodeSetParams 000000018002f8a0 f   cudart_static:cudart_generated_cuda_runtime_api.obj
 0001:0002e9f0       cudaGraphGetEdges          000000018002f9f0 f   cudart_static:cudart_generated_cuda_runtime_api.obj
 0001:0002eb70       cudaGraphGetNodes          000000018002fb70 f   cudart_static:cudart_generated_cuda_runtime_api.obj
 0001:0002ecd0       cudaGraphGetRootNodes      000000018002fcd0 f   cudart_static:cudart_generated_cuda_runtime_api.obj
 0001:0002ee30       cudaGraphHostNodeGetParams 000000018002fe30 f   cudart_static:cudart_generated_cuda_runtime_api.obj
 0001:0002ef80       cudaGraphHostNodeSetParams 000000018002ff80 f   cudart_static:cudart_generated_cuda_runtime_api.obj
 0001:0002f0d0       cudaGraphInstantiate       00000001800300d0 f   cudart_static:cudart_generated_cuda_runtime_api.obj
 0001:0002f230       cudaGraphInstantiateWithFlags 0000000180030230 f   cudart_static:cudart_generated_cuda_runtime_api.obj
 0001:0002f390       cudaGraphInstantiateWithParams 0000000180030390 f   cudart_static:cudart_generated_cuda_runtime_api.obj
 0001:0002f4f0       cudaGraphInstantiateWithParams_ptsz 00000001800304f0 f   cudart_static:cudart_generated_cuda_runtime_api.obj
 0001:0002f650       cudaGraphKernelNodeCopyAttributes 0000000180030650 f   cudart_static:cudart_generated_cuda_runtime_api.obj
 0001:0002f7a0       cudaGraphKernelNodeGetAttribute 00000001800307a0 f   cudart_static:cudart_generated_cuda_runtime_api.obj
 0001:0002f900       cudaGraphKernelNodeGetParams 0000000180030900 f   cudart_static:cudart_generated_cuda_runtime_api.obj
 0001:0002fa50       cudaGraphKernelNodeSetAttribute 0000000180030a50 f   cudart_static:cudart_generated_cuda_runtime_api.obj
 0001:0002fbb0       cudaGraphKernelNodeSetParams 0000000180030bb0 f   cudart_static:cudart_generated_cuda_runtime_api.obj
 0001:0002fd00       cudaGraphLaunch            0000000180030d00 f   cudart_static:cudart_generated_cuda_runtime_api.obj
 0001:0002fe70       cudaGraphLaunch_ptsz       0000000180030e70 f   cudart_static:cudart_generated_cuda_runtime_api.obj
 0001:0002ffe0       cudaGraphMemAllocNodeGetParams 0000000180030fe0 f   cudart_static:cudart_generated_cuda_runtime_api.obj
 0001:00030130       cudaGraphMemFreeNodeGetParams 0000000180031130 f   cudart_static:cudart_generated_cuda_runtime_api.obj
 0001:00030280       cudaGraphMemcpyNodeGetParams 0000000180031280 f   cudart_static:cudart_generated_cuda_runtime_api.obj
 0001:000303d0       cudaGraphMemcpyNodeSetParams 00000001800313d0 f   cudart_static:cudart_generated_cuda_runtime_api.obj
 0001:00030520       cudaGraphMemcpyNodeSetParams1D 0000000180031520 f   cudart_static:cudart_generated_cuda_runtime_api.obj
 0001:000306c0       cudaGraphMemcpyNodeSetParamsFromSymbol 00000001800316c0 f   cudart_static:cudart_generated_cuda_runtime_api.obj
 0001:00030880       cudaGraphMemcpyNodeSetParamsToSymbol 0000000180031880 f   cudart_static:cudart_generated_cuda_runtime_api.obj
 0001:00030a40       cudaGraphMemsetNodeGetParams 0000000180031a40 f   cudart_static:cudart_generated_cuda_runtime_api.obj
 0001:00030b90       cudaGraphMemsetNodeSetParams 0000000180031b90 f   cudart_static:cudart_generated_cuda_runtime_api.obj
 0001:00030ce0       cudaGraphNodeFindInClone   0000000180031ce0 f   cudart_static:cudart_generated_cuda_runtime_api.obj
 0001:00030e40       cudaGraphNodeGetDependencies 0000000180031e40 f   cudart_static:cudart_generated_cuda_runtime_api.obj
 0001:00030fa0       cudaGraphNodeGetDependentNodes 0000000180031fa0 f   cudart_static:cudart_generated_cuda_runtime_api.obj
 0001:00031100       cudaGraphNodeGetEnabled    0000000180032100 f   cudart_static:cudart_generated_cuda_runtime_api.obj
 0001:00031260       cudaGraphNodeGetType       0000000180032260 f   cudart_static:cudart_generated_cuda_runtime_api.obj
 0001:000313b0       cudaGraphNodeSetEnabled    00000001800323b0 f   cudart_static:cudart_generated_cuda_runtime_api.obj
 0001:00031510       cudaGraphNodeSetParams     0000000180032510 f   cudart_static:cudart_generated_cuda_runtime_api.obj
 0001:00031660       cudaGraphReleaseUserObject 0000000180032660 f   cudart_static:cudart_generated_cuda_runtime_api.obj
 0001:000317c0       cudaGraphRemoveDependencies 00000001800327c0 f   cudart_static:cudart_generated_cuda_runtime_api.obj
 0001:00031940       cudaGraphRetainUserObject  0000000180032940 f   cudart_static:cudart_generated_cuda_runtime_api.obj
 0001:00031ac0       cudaGraphUpload            0000000180032ac0 f   cudart_static:cudart_generated_cuda_runtime_api.obj
 0001:00031c30       cudaGraphUpload_ptsz       0000000180032c30 f   cudart_static:cudart_generated_cuda_runtime_api.obj
 0001:00031da0       cudaGraphicsMapResources   0000000180032da0 f   cudart_static:cudart_generated_cuda_runtime_api.obj
 0001:00031f20       cudaGraphicsResourceGetMappedMipmappedArray 0000000180032f20 f   cudart_static:cudart_generated_cuda_runtime_api.obj
 0001:00032070       cudaGraphicsResourceGetMappedPointer 0000000180033070 f   cudart_static:cudart_generated_cuda_runtime_api.obj
 0001:000321d0       cudaGraphicsResourceSetMapFlags 00000001800331d0 f   cudart_static:cudart_generated_cuda_runtime_api.obj
 0001:00032310       cudaGraphicsSubResourceGetMappedArray 0000000180033310 f   cudart_static:cudart_generated_cuda_runtime_api.obj
 0001:00032490       cudaGraphicsUnmapResources 0000000180033490 f   cudart_static:cudart_generated_cuda_runtime_api.obj
 0001:00032610       cudaGraphicsUnregisterResource 0000000180033610 f   cudart_static:cudart_generated_cuda_runtime_api.obj
 0001:00032740       cudaHostAlloc              0000000180033740 f   cudart_static:cudart_generated_cuda_runtime_api.obj
 0001:000328a0       cudaHostGetDevicePointer   00000001800338a0 f   cudart_static:cudart_generated_cuda_runtime_api.obj
 0001:00032a00       cudaHostGetFlags           0000000180033a00 f   cudart_static:cudart_generated_cuda_runtime_api.obj
 0001:00032b50       cudaHostRegister           0000000180033b50 f   cudart_static:cudart_generated_cuda_runtime_api.obj
 0001:00032cb0       cudaHostUnregister         0000000180033cb0 f   cudart_static:cudart_generated_cuda_runtime_api.obj
 0001:00032de0       cudaImportExternalMemory   0000000180033de0 f   cudart_static:cudart_generated_cuda_runtime_api.obj
 0001:00032f30       cudaImportExternalSemaphore 0000000180033f30 f   cudart_static:cudart_generated_cuda_runtime_api.obj
 0001:00033080       cudaInitDevice             0000000180034080 f   cudart_static:cudart_generated_cuda_runtime_api.obj
 0001:000331f0       cudaIpcCloseMemHandle      00000001800341f0 f   cudart_static:cudart_generated_cuda_runtime_api.obj
 0001:00033320       cudaIpcGetEventHandle      0000000180034320 f   cudart_static:cudart_generated_cuda_runtime_api.obj
 0001:00033470       cudaIpcGetMemHandle        0000000180034470 f   cudart_static:cudart_generated_cuda_runtime_api.obj
 0001:000335c0       cudaIpcOpenEventHandle     00000001800345c0 f   cudart_static:cudart_generated_cuda_runtime_api.obj
 0001:000337a0       cudaIpcOpenMemHandle       00000001800347a0 f   cudart_static:cudart_generated_cuda_runtime_api.obj
 0001:00033980       cudaLaunchCooperativeKernel 0000000180034980 f   cudart_static:cudart_generated_cuda_runtime_api.obj
 0001:00033c00       cudaLaunchCooperativeKernelMultiDevice 0000000180034c00 f   cudart_static:cudart_generated_cuda_runtime_api.obj
 0001:00033d60       cudaLaunchCooperativeKernel_ptsz 0000000180034d60 f   cudart_static:cudart_generated_cuda_runtime_api.obj
 0001:00033fe0       cudaLaunchHostFunc         0000000180034fe0 f   cudart_static:cudart_generated_cuda_runtime_api.obj
 0001:00034160       cudaLaunchHostFunc_ptsz    0000000180035160 f   cudart_static:cudart_generated_cuda_runtime_api.obj
 0001:000342e0       cudaLaunchKernel           00000001800352e0 f   cudart_static:cudart_generated_cuda_runtime_api.obj
 0001:00034560       cudaLaunchKernelExC        0000000180035560 f   cudart_static:cudart_generated_cuda_runtime_api.obj
 0001:00034700       cudaLaunchKernelExC_ptsz   0000000180035700 f   cudart_static:cudart_generated_cuda_runtime_api.obj
 0001:000348a0       cudaLaunchKernel_ptsz      00000001800358a0 f   cudart_static:cudart_generated_cuda_runtime_api.obj
 0001:00034b20       cudaMalloc                 0000000180035b20 f   cudart_static:cudart_generated_cuda_runtime_api.obj
 0001:00034c70       cudaMalloc3D               0000000180035c70 f   cudart_static:cudart_generated_cuda_runtime_api.obj
 0001:00034e10       cudaMalloc3DArray          0000000180035e10 f   cudart_static:cudart_generated_cuda_runtime_api.obj
 0001:00034fc0       cudaMallocArray            0000000180035fc0 f   cudart_static:cudart_generated_cuda_runtime_api.obj
 0001:00035150       cudaMallocAsync            0000000180036150 f   cudart_static:cudart_generated_cuda_runtime_api.obj
 0001:000352b0       cudaMallocAsync_ptsz       00000001800362b0 f   cudart_static:cudart_generated_cuda_runtime_api.obj
 0001:00035410       cudaMallocFromPoolAsync    0000000180036410 f   cudart_static:cudart_generated_cuda_runtime_api.obj
 0001:000355b0       cudaMallocFromPoolAsync_ptsz 00000001800365b0 f   cudart_static:cudart_generated_cuda_runtime_api.obj
 0001:00035750       cudaMallocHost             0000000180036750 f   cudart_static:cudart_generated_cuda_runtime_api.obj
 0001:000358a0       cudaMallocManaged          00000001800368a0 f   cudart_static:cudart_generated_cuda_runtime_api.obj
 0001:00035a00       cudaMallocMipmappedArray   0000000180036a00 f   cudart_static:cudart_generated_cuda_runtime_api.obj
 0001:00035be0       cudaMallocPitch            0000000180036be0 f   cudart_static:cudart_generated_cuda_runtime_api.obj
 0001:00035d60       cudaMemAdvise              0000000180036d60 f   cudart_static:cudart_generated_cuda_runtime_api.obj
 0001:00035ee0       cudaMemAdvise_v2           0000000180036ee0 f   cudart_static:cudart_generated_cuda_runtime_api.obj
 0001:00036060       cudaMemGetInfo             0000000180037060 f   cudart_static:cudart_generated_cuda_runtime_api.obj
 0001:000361b0       cudaMemPoolCreate          00000001800371b0 f   cudart_static:cudart_generated_cuda_runtime_api.obj
 0001:00036300       cudaMemPoolDestroy         0000000180037300 f   cudart_static:cudart_generated_cuda_runtime_api.obj
 0001:00036430       cudaMemPoolExportPointer   0000000180037430 f   cudart_static:cudart_generated_cuda_runtime_api.obj
 0001:00036580       cudaMemPoolExportToShareableHandle 0000000180037580 f   cudart_static:cudart_generated_cuda_runtime_api.obj
 0001:00036700       cudaMemPoolGetAccess       0000000180037700 f   cudart_static:cudart_generated_cuda_runtime_api.obj
 0001:00036860       cudaMemPoolGetAttribute    0000000180037860 f   cudart_static:cudart_generated_cuda_runtime_api.obj
 0001:000369c0       cudaMemPoolImportFromShareableHandle 00000001800379c0 f   cudart_static:cudart_generated_cuda_runtime_api.obj
 0001:00036b40       cudaMemPoolImportPointer   0000000180037b40 f   cudart_static:cudart_generated_cuda_runtime_api.obj
 0001:00036ca0       cudaMemPoolSetAccess       0000000180037ca0 f   cudart_static:cudart_generated_cuda_runtime_api.obj
 0001:00036e00       cudaMemPoolSetAttribute    0000000180037e00 f   cudart_static:cudart_generated_cuda_runtime_api.obj
 0001:00036f60       cudaMemPoolTrimTo          0000000180037f60 f   cudart_static:cudart_generated_cuda_runtime_api.obj
 0001:000370b0       cudaMemPrefetchAsync       00000001800380b0 f   cudart_static:cudart_generated_cuda_runtime_api.obj
 0001:00037250       cudaMemPrefetchAsync_ptsz  0000000180038250 f   cudart_static:cudart_generated_cuda_runtime_api.obj
 0001:000373f0       cudaMemPrefetchAsync_v2    00000001800383f0 f   cudart_static:cudart_generated_cuda_runtime_api.obj
 0001:000375b0       cudaMemPrefetchAsync_v2_ptsz 00000001800385b0 f   cudart_static:cudart_generated_cuda_runtime_api.obj
 0001:00037770       cudaMemRangeGetAttribute   0000000180038770 f   cudart_static:cudart_generated_cuda_runtime_api.obj
 0001:00037910       cudaMemRangeGetAttributes  0000000180038910 f   cudart_static:cudart_generated_cuda_runtime_api.obj
 0001:00037ad0       cudaMemcpy                 0000000180038ad0 f   cudart_static:cudart_generated_cuda_runtime_api.obj
 0001:00037c40       cudaMemcpy2D               0000000180038c40 f   cudart_static:cudart_generated_cuda_runtime_api.obj
 0001:00037e20       cudaMemcpy2DArrayToArray   0000000180038e20 f   cudart_static:cudart_generated_cuda_runtime_api.obj
 0001:00038060       cudaMemcpy2DArrayToArray_ptds 0000000180039060 f   cudart_static:cudart_generated_cuda_runtime_api.obj
 0001:000382a0       cudaMemcpy2DAsync          00000001800392a0 f   cudart_static:cudart_generated_cuda_runtime_api.obj
 0001:000384b0       cudaMemcpy2DAsync_ptsz     00000001800394b0 f   cudart_static:cudart_generated_cuda_runtime_api.obj
 0001:000386c0       cudaMemcpy2DFromArray      00000001800396c0 f   cudart_static:cudart_generated_cuda_runtime_api.obj
 0001:000388d0       cudaMemcpy2DFromArrayAsync 00000001800398d0 f   cudart_static:cudart_generated_cuda_runtime_api.obj
 0001:00038b20       cudaMemcpy2DFromArrayAsync_ptsz 0000000180039b20 f   cudart_static:cudart_generated_cuda_runtime_api.obj
 0001:00038d70       cudaMemcpy2DFromArray_ptds 0000000180039d70 f   cudart_static:cudart_generated_cuda_runtime_api.obj
 0001:00038f80       cudaMemcpy2DToArray        0000000180039f80 f   cudart_static:cudart_generated_cuda_runtime_api.obj
 0001:00039190       cudaMemcpy2DToArrayAsync   000000018003a190 f   cudart_static:cudart_generated_cuda_runtime_api.obj
 0001:000393e0       cudaMemcpy2DToArrayAsync_ptsz 000000018003a3e0 f   cudart_static:cudart_generated_cuda_runtime_api.obj
 0001:00039630       cudaMemcpy2DToArray_ptds   000000018003a630 f   cudart_static:cudart_generated_cuda_runtime_api.obj
 0001:00039840       cudaMemcpy2D_ptds          000000018003a840 f   cudart_static:cudart_generated_cuda_runtime_api.obj
 0001:00039a20       cudaMemcpy3D               000000018003aa20 f   cudart_static:cudart_generated_cuda_runtime_api.obj
 0001:00039b50       cudaMemcpy3DAsync          000000018003ab50 f   cudart_static:cudart_generated_cuda_runtime_api.obj
 0001:00039cc0       cudaMemcpy3DAsync_ptsz     000000018003acc0 f   cudart_static:cudart_generated_cuda_runtime_api.obj
 0001:00039e30       cudaMemcpy3DPeer           000000018003ae30 f   cudart_static:cudart_generated_cuda_runtime_api.obj
 0001:00039f60       cudaMemcpy3DPeerAsync      000000018003af60 f   cudart_static:cudart_generated_cuda_runtime_api.obj
 0001:0003a0d0       cudaMemcpy3DPeerAsync_ptsz 000000018003b0d0 f   cudart_static:cudart_generated_cuda_runtime_api.obj
 0001:0003a240       cudaMemcpy3DPeer_ptds      000000018003b240 f   cudart_static:cudart_generated_cuda_runtime_api.obj
 0001:0003a370       cudaMemcpy3D_ptds          000000018003b370 f   cudart_static:cudart_generated_cuda_runtime_api.obj
 0001:0003a4a0       cudaMemcpyArrayToArray     000000018003b4a0 f   cudart_static:cudart_generated_cuda_runtime_api.obj
 0001:0003a6b0       cudaMemcpyArrayToArray_ptds 000000018003b6b0 f   cudart_static:cudart_generated_cuda_runtime_api.obj
 0001:0003a8c0       cudaMemcpyAsync            000000018003b8c0 f   cudart_static:cudart_generated_cuda_runtime_api.obj
 0001:0003aa80       cudaMemcpyAsync_ptsz       000000018003ba80 f   cudart_static:cudart_generated_cuda_runtime_api.obj
 0001:0003ac40       cudaMemcpyFromArray        000000018003bc40 f   cudart_static:cudart_generated_cuda_runtime_api.obj
 0001:0003ae00       cudaMemcpyFromArrayAsync   000000018003be00 f   cudart_static:cudart_generated_cuda_runtime_api.obj
 0001:0003aff0       cudaMemcpyFromArrayAsync_ptsz 000000018003bff0 f   cudart_static:cudart_generated_cuda_runtime_api.obj
 0001:0003b1e0       cudaMemcpyFromArray_ptds   000000018003c1e0 f   cudart_static:cudart_generated_cuda_runtime_api.obj
 0001:0003b3a0       cudaMemcpyFromSymbol       000000018003c3a0 f   cudart_static:cudart_generated_cuda_runtime_api.obj
 0001:0003b540       cudaMemcpyFromSymbolAsync  000000018003c540 f   cudart_static:cudart_generated_cuda_runtime_api.obj
 0001:0003b720       cudaMemcpyFromSymbolAsync_ptsz 000000018003c720 f   cudart_static:cudart_generated_cuda_runtime_api.obj
 0001:0003b900       cudaMemcpyFromSymbol_ptds  000000018003c900 f   cudart_static:cudart_generated_cuda_runtime_api.obj
 0001:0003baa0       cudaMemcpyPeer             000000018003caa0 f   cudart_static:cudart_generated_cuda_runtime_api.obj
 0001:0003bc40       cudaMemcpyPeerAsync        000000018003cc40 f   cudart_static:cudart_generated_cuda_runtime_api.obj
 0001:0003be20       cudaMemcpyToArray          000000018003ce20 f   cudart_static:cudart_generated_cuda_runtime_api.obj
 0001:0003bfe0       cudaMemcpyToArrayAsync     000000018003cfe0 f   cudart_static:cudart_generated_cuda_runtime_api.obj
 0001:0003c1d0       cudaMemcpyToArrayAsync_ptsz 000000018003d1d0 f   cudart_static:cudart_generated_cuda_runtime_api.obj
 0001:0003c3c0       cudaMemcpyToArray_ptds     000000018003d3c0 f   cudart_static:cudart_generated_cuda_runtime_api.obj
 0001:0003c580       cudaMemcpyToSymbol         000000018003d580 f   cudart_static:cudart_generated_cuda_runtime_api.obj
 0001:0003c720       cudaMemcpyToSymbolAsync    000000018003d720 f   cudart_static:cudart_generated_cuda_runtime_api.obj
 0001:0003c900       cudaMemcpyToSymbolAsync_ptsz 000000018003d900 f   cudart_static:cudart_generated_cuda_runtime_api.obj
 0001:0003cae0       cudaMemcpyToSymbol_ptds    000000018003dae0 f   cudart_static:cudart_generated_cuda_runtime_api.obj
 0001:0003cc80       cudaMemcpy_ptds            000000018003dc80 f   cudart_static:cudart_generated_cuda_runtime_api.obj
 0001:0003ce00       cudaMemset                 000000018003de00 f   cudart_static:cudart_generated_cuda_runtime_api.obj
 0001:0003cf60       cudaMemset2D               000000018003df60 f   cudart_static:cudart_generated_cuda_runtime_api.obj
 0001:0003d100       cudaMemset2DAsync          000000018003e100 f   cudart_static:cudart_generated_cuda_runtime_api.obj
 0001:0003d2e0       cudaMemset2DAsync_ptsz     000000018003e2e0 f   cudart_static:cudart_generated_cuda_runtime_api.obj
 0001:0003d4c0       cudaMemset2D_ptds          000000018003e4c0 f   cudart_static:cudart_generated_cuda_runtime_api.obj
 0001:0003d660       cudaMemset3D               000000018003e660 f   cudart_static:cudart_generated_cuda_runtime_api.obj
 0001:0003d840       cudaMemset3DAsync          000000018003e840 f   cudart_static:cudart_generated_cuda_runtime_api.obj
 0001:0003da60       cudaMemset3DAsync_ptsz     000000018003ea60 f   cudart_static:cudart_generated_cuda_runtime_api.obj
 0001:0003dc80       cudaMemset3D_ptds          000000018003ec80 f   cudart_static:cudart_generated_cuda_runtime_api.obj
 0001:0003de60       cudaMemsetAsync            000000018003ee60 f   cudart_static:cudart_generated_cuda_runtime_api.obj
 0001:0003e000       cudaMemsetAsync_ptsz       000000018003f000 f   cudart_static:cudart_generated_cuda_runtime_api.obj
 0001:0003e1a0       cudaMemset_ptds            000000018003f1a0 f   cudart_static:cudart_generated_cuda_runtime_api.obj
 0001:0003e300       cudaMipmappedArrayGetMemoryRequirements 000000018003f300 f   cudart_static:cudart_generated_cuda_runtime_api.obj
 0001:0003e460       cudaMipmappedArrayGetSparseProperties 000000018003f460 f   cudart_static:cudart_generated_cuda_runtime_api.obj
 0001:0003e5b0       cudaOccupancyAvailableDynamicSMemPerBlock 000000018003f5b0 f   cudart_static:cudart_generated_cuda_runtime_api.obj
 0001:0003e730       cudaOccupancyMaxActiveBlocksPerMultiprocessor 000000018003f730 f   cudart_static:cudart_generated_cuda_runtime_api.obj
 0001:0003e8b0       cudaOccupancyMaxActiveBlocksPerMultiprocessorWithFlags 000000018003f8b0 f   cudart_static:cudart_generated_cuda_runtime_api.obj
 0001:0003ea50       cudaOccupancyMaxActiveClusters 000000018003fa50 f   cudart_static:cudart_generated_cuda_runtime_api.obj
 0001:0003ebb0       cudaOccupancyMaxPotentialClusterSize 000000018003fbb0 f   cudart_static:cudart_generated_cuda_runtime_api.obj
 0001:0003ed10       cudaPeekAtLastError        000000018003fd10 f   cudart_static:cudart_generated_cuda_runtime_api.obj
 0001:0003ee30       cudaPointerGetAttributes   000000018003fe30 f   cudart_static:cudart_generated_cuda_runtime_api.obj
 0001:0003ef80       cudaRuntimeGetVersion      000000018003ff80 f   cudart_static:cudart_generated_cuda_runtime_api.obj
 0001:0003f0a0       cudaSetDevice              00000001800400a0 f   cudart_static:cudart_generated_cuda_runtime_api.obj
 0001:0003f1d0       cudaSetDeviceFlags         00000001800401d0 f   cudart_static:cudart_generated_cuda_runtime_api.obj
 0001:0003f300       cudaSetDoubleForDevice     0000000180040300 f   cudart_static:cudart_generated_cuda_runtime_api.obj
 0001:0003f430       cudaSetDoubleForHost       0000000180040430 f   cudart_static:cudart_generated_cuda_runtime_api.obj
 0001:0003f560       cudaSetValidDevices        0000000180040560 f   cudart_static:cudart_generated_cuda_runtime_api.obj
 0001:0003f6a0       cudaSignalExternalSemaphoresAsync 00000001800406a0 f   cudart_static:cudart_generated_cuda_runtime_api.obj
 0001:0003f840       cudaSignalExternalSemaphoresAsync_ptsz 0000000180040840 f   cudart_static:cudart_generated_cuda_runtime_api.obj
 0001:0003f9e0       cudaSignalExternalSemaphoresAsync_v2 00000001800409e0 f   cudart_static:cudart_generated_cuda_runtime_api.obj
 0001:0003fb80       cudaSignalExternalSemaphoresAsync_v2_ptsz 0000000180040b80 f   cudart_static:cudart_generated_cuda_runtime_api.obj
 0001:0003fd20       cudaStreamAddCallback      0000000180040d20 f   cudart_static:cudart_generated_cuda_runtime_api.obj
 0001:0003fec0       cudaStreamAddCallback_ptsz 0000000180040ec0 f   cudart_static:cudart_generated_cuda_runtime_api.obj
 0001:00040060       cudaStreamAttachMemAsync   0000000180041060 f   cudart_static:cudart_generated_cuda_runtime_api.obj
 0001:00040200       cudaStreamAttachMemAsync_ptsz 0000000180041200 f   cudart_static:cudart_generated_cuda_runtime_api.obj
 0001:000403a0       cudaStreamBeginCapture     00000001800413a0 f   cudart_static:cudart_generated_cuda_runtime_api.obj
 0001:00040500       cudaStreamBeginCapture_ptsz 0000000180041500 f   cudart_static:cudart_generated_cuda_runtime_api.obj
 0001:00040660       cudaStreamCopyAttributes   0000000180041660 f   cudart_static:cudart_generated_cuda_runtime_api.obj
 0001:000407b0       cudaStreamCopyAttributes_ptsz 00000001800417b0 f   cudart_static:cudart_generated_cuda_runtime_api.obj
 0001:00040900       cudaStreamCreate           0000000180041900 f   cudart_static:cudart_generated_cuda_runtime_api.obj
 0001:00040a30       cudaStreamCreateWithFlags  0000000180041a30 f   cudart_static:cudart_generated_cuda_runtime_api.obj
 0001:00040b80       cudaStreamCreateWithPriority 0000000180041b80 f   cudart_static:cudart_generated_cuda_runtime_api.obj
 0001:00040ce0       cudaStreamDestroy          0000000180041ce0 f   cudart_static:cudart_generated_cuda_runtime_api.obj
 0001:00040e30       cudaStreamEndCapture       0000000180041e30 f   cudart_static:cudart_generated_cuda_runtime_api.obj
 0001:00040fa0       cudaStreamEndCapture_ptsz  0000000180041fa0 f   cudart_static:cudart_generated_cuda_runtime_api.obj
 0001:00041110       cudaStreamGetAttribute     0000000180042110 f   cudart_static:cudart_generated_cuda_runtime_api.obj
 0001:00041290       cudaStreamGetAttribute_ptsz 0000000180042290 f   cudart_static:cudart_generated_cuda_runtime_api.obj
 0001:000413f0       cudaStreamGetCaptureInfo   00000001800423f0 f   cudart_static:cudart_generated_cuda_runtime_api.obj
 0001:00041570       cudaStreamGetCaptureInfo_ptsz 0000000180042570 f   cudart_static:cudart_generated_cuda_runtime_api.obj
 0001:000416f0       cudaStreamGetCaptureInfo_v2 00000001800426f0 f   cudart_static:cudart_generated_cuda_runtime_api.obj
 0001:000418d0       cudaStreamGetCaptureInfo_v2_ptsz 00000001800428d0 f   cudart_static:cudart_generated_cuda_runtime_api.obj
 0001:00041ab0       cudaStreamGetFlags         0000000180042ab0 f   cudart_static:cudart_generated_cuda_runtime_api.obj
 0001:00041c00       cudaStreamGetFlags_ptsz    0000000180042c00 f   cudart_static:cudart_generated_cuda_runtime_api.obj
 0001:00041d50       cudaStreamGetId            0000000180042d50 f   cudart_static:cudart_generated_cuda_runtime_api.obj
 0001:00041ea0       cudaStreamGetId_ptsz       0000000180042ea0 f   cudart_static:cudart_generated_cuda_runtime_api.obj
 0001:00041ff0       cudaStreamGetPriority      0000000180042ff0 f   cudart_static:cudart_generated_cuda_runtime_api.obj
 0001:00042140       cudaStreamGetPriority_ptsz 0000000180043140 f   cudart_static:cudart_generated_cuda_runtime_api.obj
 0001:00042290       cudaStreamIsCapturing      0000000180043290 f   cudart_static:cudart_generated_cuda_runtime_api.obj
 0001:00042400       cudaStreamIsCapturing_ptsz 0000000180043400 f   cudart_static:cudart_generated_cuda_runtime_api.obj
 0001:00042570       cudaStreamQuery            0000000180043570 f   cudart_static:cudart_generated_cuda_runtime_api.obj
 0001:000426c0       cudaStreamQuery_ptsz       00000001800436c0 f   cudart_static:cudart_generated_cuda_runtime_api.obj
 0001:00042810       cudaStreamSetAttribute     0000000180043810 f   cudart_static:cudart_generated_cuda_runtime_api.obj
 0001:00042990       cudaStreamSetAttribute_ptsz 0000000180043990 f   cudart_static:cudart_generated_cuda_runtime_api.obj
 0001:00042af0       cudaStreamSynchronize      0000000180043af0 f   cudart_static:cudart_generated_cuda_runtime_api.obj
 0001:00042c40       cudaStreamSynchronize_ptsz 0000000180043c40 f   cudart_static:cudart_generated_cuda_runtime_api.obj
 0001:00042d90       cudaStreamUpdateCaptureDependencies 0000000180043d90 f   cudart_static:cudart_generated_cuda_runtime_api.obj
 0001:00042f30       cudaStreamUpdateCaptureDependencies_ptsz 0000000180043f30 f   cudart_static:cudart_generated_cuda_runtime_api.obj
 0001:000430d0       cudaStreamWaitEvent        00000001800440d0 f   cudart_static:cudart_generated_cuda_runtime_api.obj
 0001:00043250       cudaStreamWaitEvent_ptsz   0000000180044250 f   cudart_static:cudart_generated_cuda_runtime_api.obj
 0001:000433d0       cudaThreadExchangeStreamCaptureMode 00000001800443d0 f   cudart_static:cudart_generated_cuda_runtime_api.obj
 0001:00043500       cudaThreadExit             0000000180044500 f   cudart_static:cudart_generated_cuda_runtime_api.obj
 0001:00043620       cudaThreadGetCacheConfig   0000000180044620 f   cudart_static:cudart_generated_cuda_runtime_api.obj
 0001:00043750       cudaThreadGetLimit         0000000180044750 f   cudart_static:cudart_generated_cuda_runtime_api.obj
 0001:00043890       cudaThreadSetCacheConfig   0000000180044890 f   cudart_static:cudart_generated_cuda_runtime_api.obj
 0001:000439c0       cudaThreadSetLimit         00000001800449c0 f   cudart_static:cudart_generated_cuda_runtime_api.obj
 0001:00043b20       cudaThreadSynchronize      0000000180044b20 f   cudart_static:cudart_generated_cuda_runtime_api.obj
 0001:00043c40       cudaUserObjectCreate       0000000180044c40 f   cudart_static:cudart_generated_cuda_runtime_api.obj
 0001:00043dd0       cudaUserObjectRelease      0000000180044dd0 f   cudart_static:cudart_generated_cuda_runtime_api.obj
 0001:00043f20       cudaUserObjectRetain       0000000180044f20 f   cudart_static:cudart_generated_cuda_runtime_api.obj
 0001:00044070       cudaWaitExternalSemaphoresAsync 0000000180045070 f   cudart_static:cudart_generated_cuda_runtime_api.obj
 0001:00044210       cudaWaitExternalSemaphoresAsync_ptsz 0000000180045210 f   cudart_static:cudart_generated_cuda_runtime_api.obj
 0001:000443b0       cudaWaitExternalSemaphoresAsync_v2 00000001800453b0 f   cudart_static:cudart_generated_cuda_runtime_api.obj
 0001:00044550       cudaWaitExternalSemaphoresAsync_v2_ptsz 0000000180045550 f   cudart_static:cudart_generated_cuda_runtime_api.obj
 0001:00044770       ?StringCbCopyA@@YAJPEAD_KPEBD@Z 0000000180045770 f i cudart_static:cudart_cuoswin32.obj
 0001:00044800       ?StringCchCatA@@YAJPEAD_KPEBD@Z 0000000180045800 f i cudart_static:cudart_cuoswin32.obj
 0001:00044a30       ?cuosAcquireReaderLock@cudart@@YAXPEAU_RTL_SRWLOCK@@@Z 0000000180045a30 f   cudart_static:cudart_cuoswin32.obj
 0001:00044a40       ?cuosAcquireWriterLock@cudart@@YAXPEAU_RTL_SRWLOCK@@@Z 0000000180045a40 f   cudart_static:cudart_cuoswin32.obj
 0001:00044a50       ?cuosAtFork@cudart@@YAHP6AXXZ00@Z 0000000180045a50 f   cudart_static:cudart_cuoswin32.obj
 0001:00044a60       ?cuosCPUID@cudart@@YAXQEAHH@Z 0000000180045a60 f   cudart_static:cudart_cuoswin32.obj
 0001:00044a90       ?cuosCalloc@cudart@@YAPEAX_K0@Z 0000000180045a90 f   cudart_static:cudart_cuoswin32.obj
 0001:00044b10       ?cuosCondBroadcast@cudart@@YAHPEAUcuosCV_st@1@@Z 0000000180045b10 f   cudart_static:cudart_cuoswin32.obj
 0001:00044b30       ?cuosCondCreate@cudart@@YAHPEAUcuosCV_st@1@@Z 0000000180045b30 f   cudart_static:cudart_cuoswin32.obj
 0001:00044b50       ?cuosCondDestroy@cudart@@YAHPEAUcuosCV_st@1@@Z 0000000180045b50 f   cudart_static:cudart_cuoswin32.obj
 0001:00044b60       ?cuosCondSignal@cudart@@YAHPEAUcuosCV_st@1@@Z 0000000180045b60 f   cudart_static:cudart_cuoswin32.obj
 0001:00044b80       ?cuosCondWait@cudart@@YAHPEAUcuosCV_st@1@PEAU_RTL_CRITICAL_SECTION@@I@Z 0000000180045b80 f   cudart_static:cudart_cuoswin32.obj
 0001:00044be0       ?cuosCreateMemorySection@cudart@@YAPEAX_KIIPEAX@Z 0000000180045be0 f   cudart_static:cudart_cuoswin32.obj
 0001:00044ca0       ?cuosCreateMemorySectionNuma@cudart@@YAPEAX_KIIPEAXI@Z 0000000180045ca0 f   cudart_static:cudart_cuoswin32.obj
 0001:00044d60       ?cuosDeleteCriticalSection@cudart@@YAXPEAU_RTL_CRITICAL_SECTION@@@Z 0000000180045d60 f   cudart_static:cudart_cuoswin32.obj
 0001:00044d70       ?cuosDestroyMemorySection@cudart@@YAXPEAX@Z 0000000180045d70 f   cudart_static:cudart_cuoswin32.obj
 0001:00044d80       ?cuosDestroyRWLock@cudart@@YAXPEAU_RTL_SRWLOCK@@@Z 0000000180045d80 f   cudart_static:cudart_cuoswin32.obj
 0001:00044d90       ?cuosDestroyRWLockEx@cudart@@YAXPEAU_RTL_SRWLOCK@@@Z 0000000180045d90 f   cudart_static:cudart_cuoswin32.obj
 0001:00044da0       ?cuosEnterCriticalSection@cudart@@YAXPEAU_RTL_CRITICAL_SECTION@@@Z 0000000180045da0 f   cudart_static:cudart_cuoswin32.obj
 0001:00044db0       ?cuosEventClear@cudart@@YAHPEAUcuosEvent@1@@Z 0000000180045db0 f   cudart_static:cudart_cuoswin32.obj
 0001:00044dd0       ?cuosEventCreate@cudart@@YAHPEAUcuosEvent@1@@Z 0000000180045dd0 f   cudart_static:cudart_cuoswin32.obj
 0001:00044e20       ?cuosEventCreateWithFlags@cudart@@YAHPEAUcuosEvent@1@I@Z 0000000180045e20 f   cudart_static:cudart_cuoswin32.obj
 0001:00044e80       ?cuosEventDestroy@cudart@@YAHPEAUcuosEvent@1@@Z 0000000180045e80 f   cudart_static:cudart_cuoswin32.obj
 0001:00044eb0       ?cuosEventGetOsPtr@cudart@@YAPEAXPEAUcuosEvent@1@II@Z 0000000180045eb0 f   cudart_static:cudart_cuoswin32.obj
 0001:00044ec0       ?cuosEventIpcCreate@cudart@@YAHPEAUcuosEvent@1@PEADW4cuosEventMode_t@1@@Z 0000000180045ec0 f   cudart_static:cudart_cuoswin32.obj
 0001:00044f10       ?cuosEventIpcCreateWithFlags@cudart@@YAHPEAUcuosEvent@1@PEADW4cuosEventMode_t@1@I@Z 0000000180045f10 f   cudart_static:cudart_cuoswin32.obj
 0001:00044f70       ?cuosEventIsSafeToSignal@cudart@@YAHPEAUcuosEvent@1@@Z 0000000180045f70 f   cudart_static:cudart_cuoswin32.obj
 0001:00044f80       ?cuosEventPoll@cudart@@YAHPEAUcuosEvent@1@PEAI@Z 0000000180045f80 f   cudart_static:cudart_cuoswin32.obj
 0001:00044f90       ?cuosEventSignal@cudart@@YAHPEAUcuosEvent@1@@Z 0000000180045f90 f   cudart_static:cudart_cuoswin32.obj
 0001:00044fb0       ?cuosEventWaitMultiple@cudart@@YAHPEAPEAUcuosEvent@1@HPEAHII@Z 0000000180045fb0 f   cudart_static:cudart_cuoswin32.obj
 0001:00045090       ?cuosFclose@cudart@@YAXPEAU_iobuf@@@Z 0000000180046090 f   cudart_static:cudart_cuoswin32.obj
 0001:000450a0       ?cuosFflush_internal@cudart@@YAHPEAU_iobuf@@@Z 00000001800460a0 f   cudart_static:cudart_cuoswin32.obj
 0001:000450b0       ?cuosFgetc@cudart@@YAHPEAU_iobuf@@PEAD@Z 00000001800460b0 f   cudart_static:cudart_cuoswin32.obj
 0001:00045120       ?cuosFopen@cudart@@YAHPEBDKPEAPEAU_iobuf@@@Z 0000000180046120 f   cudart_static:cudart_cuoswin32.obj
 0001:00045340       ?cuosFread@cudart@@YAHPEAU_iobuf@@PEAX_KPEA_K@Z 0000000180046340 f   cudart_static:cudart_cuoswin32.obj
 0001:000453c0       ?cuosFree@cudart@@YAXPEAX@Z 00000001800463c0 f   cudart_static:cudart_cuoswin32.obj
 0001:00045410       ?cuosFreeLibrary@cudart@@YAHPEAUHINSTANCE__@@@Z 0000000180046410 f   cudart_static:cudart_cuoswin32.obj
 0001:00045420       ?cuosFreePhysicalMemory@cudart@@YA_KXZ 0000000180046420 f   cudart_static:cudart_cuoswin32.obj
 0001:00045490       ?cuosFreeSwapMemory@cudart@@YA_KXZ 0000000180046490 f   cudart_static:cudart_cuoswin32.obj
 0001:00045500       ?cuosFseek@cudart@@YAHPEAU_iobuf@@_KW4cuosSeekEnum@1@@Z 0000000180046500 f   cudart_static:cudart_cuoswin32.obj
 0001:00045580       ?cuosFtell@cudart@@YAHPEAU_iobuf@@PEA_K@Z 0000000180046580 f   cudart_static:cudart_cuoswin32.obj
 0001:000455c0       ?cuosFwrite@cudart@@YAHPEAU_iobuf@@PEBX_K@Z 00000001800465c0 f   cudart_static:cudart_cuoswin32.obj
 0001:000455f0       ?cuosGetClosestHostNumaId@cudart@@YAHIIIPEAH@Z 00000001800465f0 f   cudart_static:cudart_cuoswin32.obj
 0001:00045650       ?cuosGetCpuTime@cudart@@YA_KXZ 0000000180046650 f   cudart_static:cudart_cuoswin32.obj
 0001:000456b0       ?cuosGetCurrentProcessExecPath@cudart@@YAHPEAPEAD@Z 00000001800466b0 f   cudart_static:cudart_cuoswin32.obj
 0001:00045740       ?cuosGetCurrentProcessor@cudart@@YAIXZ 0000000180046740 f   cudart_static:cudart_cuoswin32.obj
 0001:00045780       ?cuosGetCurrentThreadId@cudart@@YAKXZ 0000000180046780 f   cudart_static:cudart_cuoswin32.obj
 0001:00045790       ?cuosGetDefaultHugePageSize@cudart@@YA_KXZ 0000000180046790 f   cudart_static:cudart_cuoswin32.obj
 0001:000457a0       ?cuosGetEnv@cudart@@YAHPEBDPEAD_K@Z 00000001800467a0 f   cudart_static:cudart_cuoswin32.obj
 0001:000457d0       ?cuosGetFileSize@cudart@@YA_JPEBD@Z 00000001800467d0 f   cudart_static:cudart_cuoswin32.obj
 0001:00045830       ?cuosGetHostname@cudart@@YAHPEAD_K@Z 0000000180046830 f   cudart_static:cudart_cuoswin32.obj
 0001:00045870       ?cuosGetLocalTime@cudart@@YAXPEAUcuosLocalTime_s@1@@Z 0000000180046870 f   cudart_static:cudart_cuoswin32.obj
 0001:000458f0       ?cuosGetPageSize@cudart@@YAIXZ 00000001800468f0 f   cudart_static:cudart_cuoswin32.obj
 0001:00045910       ?cuosGetProcAddress@cudart@@YAP6AXXZPEAUHINSTANCE__@@PEBD@Z 0000000180046910 f   cudart_static:cudart_cuoswin32.obj
 0001:00045920       ?cuosGetProcCoreCount@cudart@@YAIXZ 0000000180046920 f   cudart_static:cudart_cuoswin32.obj
 0001:00045940       ?cuosGetProcessorCount@cudart@@YAIXZ 0000000180046940 f   cudart_static:cudart_cuoswin32.obj
 0001:00045960       ?cuosGetThreadAffinity@cudart@@YAXPEAUCUOSthread_st@1@PEA_K@Z 0000000180046960 f   cudart_static:cudart_cuoswin32.obj
 0001:000459e0       ?cuosGetTimer@cudart@@YAMPEAUcuostimer@1@@Z 00000001800469e0 f   cudart_static:cudart_cuoswin32.obj
 0001:00045a20       ?cuosGetUserDataNVPath@cudart@@YAHPEAD_K@Z 0000000180046a20 f   cudart_static:cudart_cuoswin32.obj
 0001:00045b90       ?cuosGetcwd@cudart@@YAHPEAD_K@Z 0000000180046b90 f   cudart_static:cudart_cuoswin32.obj
 0001:00045bc0       ?cuosHasThreadExited@cudart@@YAHPEAUCUOSthread_st@1@@Z 0000000180046bc0 f   cudart_static:cudart_cuoswin32.obj
 0001:00045be0       ?cuosInit@cudart@@YAXXZ    0000000180046be0 f   cudart_static:cudart_cuoswin32.obj
 0001:00045cb0       ?cuosInitRWLock@cudart@@YAXPEAU_RTL_SRWLOCK@@@Z 0000000180046cb0 f   cudart_static:cudart_cuoswin32.obj
 0001:00045cc0       ?cuosInitRWLockEx@cudart@@YAHPEAU_RTL_SRWLOCK@@PEAX_KW4cuosLockProcessSharedFlags@1@@Z 0000000180046cc0 f   cudart_static:cudart_cuoswin32.obj
 0001:00045ce0       ?cuosInitializeCriticalSection@cudart@@YAXPEAU_RTL_CRITICAL_SECTION@@@Z 0000000180046ce0 f   cudart_static:cudart_cuoswin32.obj
 0001:00045cf0       ?cuosInterlockedAnd64@cudart@@YA_KPEC_K_K@Z 0000000180046cf0 f   cudart_static:cudart_cuoswin32.obj
 0001:00045d10       ?cuosInterlockedAnd@cudart@@YAIPECII@Z 0000000180046d10 f   cudart_static:cudart_cuoswin32.obj
 0001:00045d30       ?cuosInterlockedCompareExchange64@cudart@@YA_KPEC_K_K1@Z 0000000180046d30 f   cudart_static:cudart_cuoswin32.obj
 0001:00045d40       ?cuosInterlockedCompareExchange@cudart@@YAIPECIII@Z 0000000180046d40 f   cudart_static:cudart_cuoswin32.obj
 0001:00045d50       ?cuosInterlockedCompareExchangePointer@cudart@@YAPEAXPECREAXPEAX1@Z 0000000180046d50 f   cudart_static:cudart_cuoswin32.obj
 0001:00045d60       ?cuosInterlockedDecrement64@cudart@@YA_KPEC_K@Z 0000000180046d60 f   cudart_static:cudart_cuoswin32.obj
 0001:00045d70       ?cuosInterlockedDecrement@cudart@@YAIPECI@Z 0000000180046d70 f   cudart_static:cudart_cuoswin32.obj
 0001:00045d80       ?cuosInterlockedExchange@cudart@@YAIPECII@Z 0000000180046d80 f   cudart_static:cudart_cuoswin32.obj
 0001:00045d90       ?cuosInterlockedIncrement64@cudart@@YA_KPEC_K@Z 0000000180046d90 f   cudart_static:cudart_cuoswin32.obj
 0001:00045da0       ?cuosInterlockedIncrement@cudart@@YAIPECI@Z 0000000180046da0 f   cudart_static:cudart_cuoswin32.obj
 0001:00045db0       ?cuosInterlockedOr64@cudart@@YA_KPEC_K_K@Z 0000000180046db0 f   cudart_static:cudart_cuoswin32.obj
 0001:00045dd0       ?cuosInterlockedOr@cudart@@YAIPECII@Z 0000000180046dd0 f   cudart_static:cudart_cuoswin32.obj
 0001:00045e40       ?cuosIpcCreate@cudart@@YAHPEAD@Z 0000000180046e40 f   cudart_static:cudart_cuoswin32.obj
 0001:00045e50       ?cuosIpcDestroy@cudart@@YAHPEAD@Z 0000000180046e50 f   cudart_static:cudart_cuoswin32.obj
 0001:00045e60       ?cuosKernelIs64Bit@cudart@@YAHXZ 0000000180046e60 f   cudart_static:cudart_cuoswin32.obj
 0001:00045ea0       ?cuosLeaveCriticalSection@cudart@@YAXPEAU_RTL_CRITICAL_SECTION@@@Z 0000000180046ea0 f   cudart_static:cudart_cuoswin32.obj
 0001:00045eb0       ?cuosLoadLibrary@cudart@@YAPEAUHINSTANCE__@@PEBD@Z 0000000180046eb0 f   cudart_static:cudart_cuoswin32.obj
 0001:00045ec0       ?cuosLoadLibraryUnsafe@cudart@@YAPEAUHINSTANCE__@@PEBD@Z 0000000180046ec0 f   cudart_static:cudart_cuoswin32.obj
 0001:00045ed0       ?cuosLockFile@cudart@@YAHPEAU_iobuf@@I@Z 0000000180046ed0 f   cudart_static:cudart_cuoswin32.obj
 0001:00045ee0       ?cuosLockFileInternal@cudart@@YAHPEAU_iobuf@@I_N@Z 0000000180046ee0 f   cudart_static:cudart_cuoswin32.obj
 0001:00046080       ?cuosMadvise@cudart@@YAHPEAX_KI@Z 0000000180047080 f   cudart_static:cudart_cuoswin32.obj
 0001:00046090       ?cuosMalloc@cudart@@YAPEAX_K@Z 0000000180047090 f   cudart_static:cudart_cuoswin32.obj
 0001:000460f0       ?cuosMapSectionInPlaceholder@cudart@@YAPEAXPEAX0_KII@Z 00000001800470f0 f   cudart_static:cudart_cuoswin32.obj
 0001:00046100       ?cuosMemoryRelease@cudart@@YAXXZ 0000000180047100 f   cudart_static:cudart_cuoswin32.obj
 0001:00046140       ?cuosMemoryRetain@cudart@@YAXXZ 0000000180047140 f   cudart_static:cudart_cuoswin32.obj
 0001:00046150       ?cuosMemoryStartTeardown@cudart@@YAHXZ 0000000180047150 f   cudart_static:cudart_cuoswin32.obj
 0001:00046190       ?cuosMkdir@cudart@@YAHPEBD@Z 0000000180047190 f   cudart_static:cudart_cuoswin32.obj
 0001:000461c0       ?cuosNumaBindThreadMemPolicy@cudart@@YAHK@Z 00000001800471c0 f   cudart_static:cudart_cuoswin32.obj
 0001:000461d0       ?cuosNumaGetAllowedNodeMask@cudart@@YAPEBKXZ 00000001800471d0 f   cudart_static:cudart_cuoswin32.obj
 0001:000461e0       ?cuosNumaGetNodeIdForProcessor@cudart@@YAKI@Z 00000001800471e0 f   cudart_static:cudart_cuoswin32.obj
 0001:000461f0       ?cuosNumaGetNumPossibleNodes@cudart@@YAKXZ 00000001800471f0 f   cudart_static:cudart_cuoswin32.obj
 0001:00046200       ?cuosNumaGetThreadMemPolicy@cudart@@YAHPEAHPEAK@Z 0000000180047200 f   cudart_static:cudart_cuoswin32.obj
 0001:00046210       ?cuosNumaGetTotalMem@cudart@@YA_KK@Z 0000000180047210 f   cudart_static:cudart_cuoswin32.obj
 0001:00046270       ?cuosNumaIsSupported@cudart@@YAHXZ 0000000180047270 f   cudart_static:cudart_cuoswin32.obj
 0001:00046280       ?cuosNumaMovePages@cudart@@YAHKPEAPEAXPEBHPEAH@Z 0000000180047280 f   cudart_static:cudart_cuoswin32.obj
 0001:00046290       ?cuosNumaNodeIsCpuNode@cudart@@YAHK@Z 0000000180047290 f   cudart_static:cudart_cuoswin32.obj
 0001:000462d0       ?cuosNumaSetThreadMemPolicy@cudart@@YAHHPEBK@Z 00000001800472d0 f   cudart_static:cudart_cuoswin32.obj
 0001:000462e0       ?cuosOnce@cudart@@YAHPEAIP6AXXZ@Z 00000001800472e0 f   cudart_static:cudart_cuoswin32.obj
 0001:00046330       ?cuosPipeAcceptClient@cudart@@YAHPEAUCUOSpipe_st@1@0@Z 0000000180047330 f   cudart_static:cudart_cuoswin32.obj
 0001:00046340       ?cuosPipeClose@cudart@@YAXPEAUCUOSpipe_st@1@@Z 0000000180047340 f   cudart_static:cudart_cuoswin32.obj
 0001:00046350       ?cuosPipeGetDataArrivedEvent@cudart@@YAXPEAUCUOSpipe_st@1@PEAUcuosEvent@1@@Z 0000000180047350 f   cudart_static:cudart_cuoswin32.obj
 0001:00046360       ?cuosPipeGetReadStream@cudart@@YAPEAU_iobuf@@PEAUCUOSpipe_st@1@@Z 0000000180047360 f   cudart_static:cudart_cuoswin32.obj
 0001:00046370       ?cuosPipeGetWriteStream@cudart@@YAPEAU_iobuf@@PEAUCUOSpipe_st@1@@Z 0000000180047370 f   cudart_static:cudart_cuoswin32.obj
 0001:00046380       ?cuosPipeOpenAsClient@cudart@@YAHPEBD0PEAUCUOSpipe_st@1@@Z 0000000180047380 f   cudart_static:cudart_cuoswin32.obj
 0001:00046390       ?cuosPipeOpenAsServer@cudart@@YAHPEBDPEAXPEAUCUOSpipe_st@1@@Z 0000000180047390 f   cudart_static:cudart_cuoswin32.obj
 0001:000463a0       ?cuosPipeRead@cudart@@YAHPEAUCUOSpipe_st@1@PEAX_K@Z 00000001800473a0 f   cudart_static:cudart_cuoswin32.obj
 0001:000463b0       ?cuosPipeWrite@cudart@@YAHPEAUCUOSpipe_st@1@PEBX_K@Z 00000001800473b0 f   cudart_static:cudart_cuoswin32.obj
 0001:000463c0       ?cuosPlaceholderApiAvailable@cudart@@YAHXZ 00000001800473c0 f   cudart_static:cudart_cuoswin32.obj
 0001:000463f0       ?cuosProcessHasExited@cudart@@YAHK@Z 00000001800473f0 f   cudart_static:cudart_cuoswin32.obj
 0001:00046400       ?cuosProcessId@cudart@@YAKXZ 0000000180047400 f   cudart_static:cudart_cuoswin32.obj
 0001:00046410       ?cuosReadLockFile@cudart@@YAHPEAU_iobuf@@I@Z 0000000180047410 f   cudart_static:cudart_cuoswin32.obj
 0001:00046420       ?cuosRealloc@cudart@@YAPEAXPEAX_K@Z 0000000180047420 f   cudart_static:cudart_cuoswin32.obj
 0001:00046490       ?cuosRecursiveDelete@cudart@@YAHPEBD@Z 0000000180047490 f   cudart_static:cudart_cuoswin32.obj
 0001:000464f0       ?cuosRecursiveDeleteIterator@cudart@@YAXPEBDPEAU_WIN32_FIND_DATAA@@@Z 00000001800474f0 f   cudart_static:cudart_cuoswin32.obj
 0001:000465e0       ?cuosReleaseReaderLock@cudart@@YAXPEAU_RTL_SRWLOCK@@@Z 00000001800475e0 f   cudart_static:cudart_cuoswin32.obj
 0001:000465f0       ?cuosReleaseWriterLock@cudart@@YAXPEAU_RTL_SRWLOCK@@@Z 00000001800475f0 f   cudart_static:cudart_cuoswin32.obj
 0001:00046600       ?cuosResetTimer@cudart@@YAXPEAUcuostimer@1@@Z 0000000180047600 f   cudart_static:cudart_cuoswin32.obj
 0001:00046610       ?cuosRm@cudart@@YAHPEBD@Z  0000000180047610 f   cudart_static:cudart_cuoswin32.obj
 0001:00046630       ?cuosRmdir@cudart@@YAHPEBD@Z 0000000180047630 f   cudart_static:cudart_cuoswin32.obj
 0001:00046650       ?cuosRmdirRecursive@cudart@@YAHPEBD@Z 0000000180047650 f   cudart_static:cudart_cuoswin32.obj
 0001:000466b0       ?cuosSemaphoreCreate@cudart@@YAHPEAPEAXH@Z 00000001800476b0 f   cudart_static:cudart_cuoswin32.obj
 0001:000466e0       ?cuosSemaphoreDestroy@cudart@@YAHPEAPEAX@Z 00000001800476e0 f   cudart_static:cudart_cuoswin32.obj
 0001:00046700       ?cuosSemaphoreSignal@cudart@@YAHPEAPEAX@Z 0000000180047700 f   cudart_static:cudart_cuoswin32.obj
 0001:00046730       ?cuosSemaphoreWait@cudart@@YAHPEAPEAXI@Z 0000000180047730 f   cudart_static:cudart_cuoswin32.obj
 0001:00046770       ?cuosServerSocketClose@cudart@@YAXPEAUCUOSserverSocket@1@@Z 0000000180047770 f   cudart_static:cudart_cuoswin32.obj
 0001:00046780       ?cuosServerSocketGetDataArrivedEvent@cudart@@YAXPEAUCUOSserverSocket@1@PEAUcuosEvent@1@@Z 0000000180047780 f   cudart_static:cudart_cuoswin32.obj
 0001:00046790       ?cuosSetEnv@cudart@@YAHPEBD0@Z 0000000180047790 f   cudart_static:cudart_cuoswin32.obj
 0001:000467b0       ?cuosSetThreadAffinity@cudart@@YAXPEAUCUOSthread_st@1@PEB_K@Z 00000001800477b0 f   cudart_static:cudart_cuoswin32.obj
 0001:000467f0       ?cuosSetThreadName@cudart@@YAHPEAUCUOSthread_st@1@PEBD@Z 00000001800477f0 f   cudart_static:cudart_cuoswin32.obj
 0001:00046800       ?cuosSleep@cudart@@YAXI@Z  0000000180047800 f   cudart_static:cudart_cuoswin32.obj
 0001:00046810       ?cuosSocketAcceptClient@cudart@@YAHPEAUCUOSserverSocket@1@PEAUCUOSsocket@1@@Z 0000000180047810 f   cudart_static:cudart_cuoswin32.obj
 0001:00046820       ?cuosSocketClose@cudart@@YAXPEAUCUOSsocket@1@@Z 0000000180047820 f   cudart_static:cudart_cuoswin32.obj
 0001:00046830       ?cuosSocketCreateConnectedPair@cudart@@YAHPEAUCUOSsocket@1@0@Z 0000000180047830 f   cudart_static:cudart_cuoswin32.obj
 0001:00046840       ?cuosSocketOpenAsClient@cudart@@YAHPEBX_KPEAUCUOSsocket@1@@Z 0000000180047840 f   cudart_static:cudart_cuoswin32.obj
 0001:00046850       ?cuosSocketOpenAsServer@cudart@@YAHPEBX_KPEAUCUOSsocket@1@@Z 0000000180047850 f   cudart_static:cudart_cuoswin32.obj
 0001:00046860       ?cuosSocketRead@cudart@@YAHPEAUCUOSsocket@1@PEAX_K@Z 0000000180047860 f   cudart_static:cudart_cuoswin32.obj
 0001:00046870       ?cuosSocketRecv@cudart@@YAHPEAUCUOSsocket@1@PEAUCUOSsocketMsg@1@@Z 0000000180047870 f   cudart_static:cudart_cuoswin32.obj
 0001:00046880       ?cuosSocketSend@cudart@@YAHPEAUCUOSsocket@1@PEAUCUOSsocketMsg@1@@Z 0000000180047880 f   cudart_static:cudart_cuoswin32.obj
 0001:00046890       ?cuosSocketWrite@cudart@@YAHPEAUCUOSsocket@1@PEBX_K@Z 0000000180047890 f   cudart_static:cudart_cuoswin32.obj
 0001:000468a0       ?cuosThreadCreate@cudart@@YAHPEAPEAUCUOSthread_st@1@P6AHPEAX@Z1@Z 00000001800478a0 f   cudart_static:cudart_cuoswin32.obj
 0001:00046a00       ?cuosThreadDetach@cudart@@YAXPEAUCUOSthread_st@1@@Z 0000000180047a00 f   cudart_static:cudart_cuoswin32.obj
 0001:00046a70       ?cuosThreadIdEqual@cudart@@YAHKK@Z 0000000180047a70 f   cudart_static:cudart_cuoswin32.obj
 0001:00046a80       ?cuosThreadIsCurrent@cudart@@YAHPEAUCUOSthread_st@1@@Z 0000000180047a80 f   cudart_static:cudart_cuoswin32.obj
 0001:00046aa0       ?cuosThreadJoin@cudart@@YAXPEAUCUOSthread_st@1@PEAH@Z 0000000180047aa0 f   cudart_static:cudart_cuoswin32.obj
 0001:00046ba0       ?cuosThreadYield@cudart@@YAXXZ 0000000180047ba0 f   cudart_static:cudart_cuoswin32.obj
 0001:00046bb0       ?cuosThreadYieldHeavy@cudart@@YAXXZ 0000000180047bb0 f   cudart_static:cudart_cuoswin32.obj
 0001:00046bc0       ?cuosTlsAlloc@cudart@@YAKP6AXPEAX@Z@Z 0000000180047bc0 f   cudart_static:cudart_cuoswin32.obj
 0001:00046bd0       ?cuosTlsFree@cudart@@YAXK@Z 0000000180047bd0 f   cudart_static:cudart_cuoswin32.obj
 0001:00046be0       ?cuosTlsGetValue@cudart@@YAPEAXK@Z 0000000180047be0 f   cudart_static:cudart_cuoswin32.obj
 0001:00046bf0       ?cuosTlsSetValue@cudart@@YAHKPEAX@Z 0000000180047bf0 f   cudart_static:cudart_cuoswin32.obj
 0001:00046c10       ?cuosTotalPhysicalMemory@cudart@@YA_KXZ 0000000180047c10 f   cudart_static:cudart_cuoswin32.obj
 0001:00046c80       ?cuosTotalSwapMemory@cudart@@YA_KXZ 0000000180047c80 f   cudart_static:cudart_cuoswin32.obj
 0001:00046cf0       ?cuosTryAcquireReaderLock@cudart@@YAHPEAU_RTL_SRWLOCK@@@Z 0000000180047cf0 f   cudart_static:cudart_cuoswin32.obj
 0001:00046d10       ?cuosTryAcquireWriterLock@cudart@@YAHPEAU_RTL_SRWLOCK@@@Z 0000000180047d10 f   cudart_static:cudart_cuoswin32.obj
 0001:00046d30       ?cuosTryEnterCriticalSection@cudart@@YAHPEAU_RTL_CRITICAL_SECTION@@@Z 0000000180047d30 f   cudart_static:cudart_cuoswin32.obj
 0001:00046d50       ?cuosUnlockFile@cudart@@YAHPEAU_iobuf@@@Z 0000000180047d50 f   cudart_static:cudart_cuoswin32.obj
 0001:00046db0       ?cuosUnmapSectionFromPlaceholder@cudart@@YAXPEAX@Z 0000000180047db0 f   cudart_static:cudart_cuoswin32.obj
 0001:00046dc0       ?cuosVirtualAlloc@cudart@@YAPEAXPEAX_KII@Z 0000000180047dc0 f   cudart_static:cudart_cuoswin32.obj
 0001:00046ea0       ?cuosVirtualFindFreeVaInRange@cudart@@YAPEAX_KPEAX10@Z 0000000180047ea0 f   cudart_static:cudart_cuoswin32.obj
 0001:00046fa0       ?cuosVirtualFree@cudart@@YAXPEAX_KI@Z 0000000180047fa0 f   cudart_static:cudart_cuoswin32.obj
 0001:00046fd0       ?cuosVirtualProtect@cudart@@YAHPEAX_KI@Z 0000000180047fd0 f   cudart_static:cudart_cuoswin32.obj
 0001:00047020       ?cuosVirtualReserveInRange@cudart@@YAPEAX_KPEAX10@Z 0000000180048020 f   cudart_static:cudart_cuoswin32.obj
 0001:00047140       ?cuosVirtualReservePlaceholderInRange@cudart@@YAPEAX_KPEAX10@Z 0000000180048140 f   cudart_static:cudart_cuoswin32.obj
 0001:000472f0       ?cuosWriteLockFile@cudart@@YAHPEAU_iobuf@@I@Z 00000001800482f0 f   cudart_static:cudart_cuoswin32.obj
 0001:00047300       ?fillSecurityAttributes@cudart@@YAXPEAU_SECURITY_ATTRIBUTES@@PEAU_OBJECT_ATTRIBUTES@@@Z 0000000180048300 f   cudart_static:cudart_cuoswin32.obj
 0001:00047390       ??$?0PEAUglobalModule@cudart@@@hash@cudart@@QEAA@AEBQEAUglobalModule@1@@Z 0000000180048390 f i cudart_static:cudart_cudart_context.obj
 0001:00047440       ??$?0PEAUmodule@cudart@@@hash@cudart@@QEAA@AEBQEAUmodule@1@@Z 0000000180048440 f i cudart_static:cudart_cudart_context.obj
 0001:000474f0       ??$?0PEAX@hash@cudart@@QEAA@AEBQEAX@Z 00000001800484f0 f i cudart_static:cudart_cudart_context.obj
 0001:000475a0       ??$?0PEBX@hash@cudart@@QEAA@AEBQEBX@Z 00000001800485a0 f i cudart_static:cudart_cudart_context.obj
 0001:00047650       ??$?0Uentry@?$map@PEAUglobalModule@cudart@@PEAUmodule@2@@cudart@@@hash@cudart@@QEAA@AEBUentry@?$map@PEAUglobalModule@cudart@@PEAUmodule@2@@1@@Z 0000000180048650 f i cudart_static:cudart_cudart_context.obj
 0001:00047700       ??$?0Uentry@?$map@PEBXPEAUcudaEntryFunction@cudart@@@cudart@@@hash@cudart@@QEAA@AEBUentry@?$map@PEBXPEAUcudaEntryFunction@cudart@@@1@@Z 0000000180048700 f i cudart_static:cudart_cudart_context.obj
 0001:000477b0       ??$?0Uentry@?$map@PEBXPEAUcudaVariable@cudart@@@cudart@@@hash@cudart@@QEAA@AEBUentry@?$map@PEBXPEAUcudaVariable@cudart@@@1@@Z 00000001800487b0 f i cudart_static:cudart_cudart_context.obj
 0001:00047860       ??$?6$07@hash@cudart@@QEAAAEAU01@AEAY07$$CBE@Z 0000000180048860 f i cudart_static:cudart_cudart_context.obj
 0001:000478f0       ??$?6UglobalModule@cudart@@@hash@cudart@@QEAAAEAU01@AEBQEBUglobalModule@1@@Z 00000001800488f0 f i cudart_static:cudart_cudart_context.obj
 0001:000479a0       ??$?6Umodule@cudart@@@hash@cudart@@QEAAAEAU01@AEBQEBUmodule@1@@Z 00000001800489a0 f i cudart_static:cudart_cudart_context.obj
 0001:00047a50       ??$?6X@hash@cudart@@QEAAAEAU01@AEBQEBX@Z 0000000180048a50 f i cudart_static:cudart_cudart_context.obj
 0001:00047b00       ??$?9PEAUglobalModule@cudart@@@entry@?$map@PEAUglobalModule@cudart@@PEAUmodule@2@@cudart@@QEBA_NAEBQEAUglobalModule@2@@Z 0000000180048b00 f i cudart_static:cudart_cudart_context.obj
 0001:00047b10       ??$?9PEAX@entry@?$map@PEBXPEAUcudaEntryFunction@cudart@@@cudart@@QEBA_NAEBQEAX@Z 0000000180048b10 f i cudart_static:cudart_cudart_context.obj
 0001:00047b20       ??$?9PEAX@entry@?$map@PEBXPEAUcudaVariable@cudart@@@cudart@@QEBA_NAEBQEAX@Z 0000000180048b20 f i cudart_static:cudart_cudart_context.obj
 0001:00047b30       ??$?9PEBX@entry@?$map@PEBXPEAUcudaEntryFunction@cudart@@@cudart@@QEBA_NAEBQEBX@Z 0000000180048b30 f i cudart_static:cudart_cudart_context.obj
 0001:00047b40       ??$?9PEBX@entry@?$map@PEBXPEAUcudaVariable@cudart@@@cudart@@QEBA_NAEBQEBX@Z 0000000180048b40 f i cudart_static:cudart_cudart_context.obj
 0001:00047b50       ??$?APEAUglobalModule@cudart@@@?$map@PEAUglobalModule@cudart@@PEAUmodule@2@@cudart@@QEAAAEAPEAUmodule@1@AEBQEAUglobalModule@1@@Z 0000000180048b50 f i cudart_static:cudart_cudart_context.obj
 0001:00047b80       ??$erase@PEAUglobalModule@cudart@@@?$map@PEAUglobalModule@cudart@@PEAUmodule@2@@cudart@@QEAA_KAEBQEAUglobalModule@1@@Z 0000000180048b80 f i cudart_static:cudart_cudart_context.obj
 0001:00047be0       ??$erase@PEAUglobalModule@cudart@@@?$set@PEAUglobalModule@cudart@@@cudart@@QEAA_KAEBQEAUglobalModule@1@@Z 0000000180048be0 f i cudart_static:cudart_cudart_context.obj
 0001:00047c40       ??$erase@PEAUglobalModule@cudart@@@?$set@Uentry@?$map@PEAUglobalModule@cudart@@PEAUmodule@2@@cudart@@@cudart@@QEAA_KAEBQEAUglobalModule@1@@Z 0000000180048c40 f i cudart_static:cudart_cudart_context.obj
 0001:00047ca0       ??$erase@PEBX@?$map@PEBXPEAUcudaEntryFunction@cudart@@@cudart@@QEAA_KAEBQEBX@Z 0000000180048ca0 f i cudart_static:cudart_cudart_context.obj
 0001:00047d00       ??$erase@PEBX@?$map@PEBXPEAUcudaVariable@cudart@@@cudart@@QEAA_KAEBQEBX@Z 0000000180048d00 f i cudart_static:cudart_cudart_context.obj
 0001:00047d60       ??$erase@PEBX@?$set@Uentry@?$map@PEBXPEAUcudaEntryFunction@cudart@@@cudart@@@cudart@@QEAA_KAEBQEBX@Z 0000000180048d60 f i cudart_static:cudart_cudart_context.obj
 0001:00047dc0       ??$erase@PEBX@?$set@Uentry@?$map@PEBXPEAUcudaVariable@cudart@@@cudart@@@cudart@@QEAA_KAEBQEBX@Z 0000000180048dc0 f i cudart_static:cudart_cudart_context.obj
 0001:00047e20       ??$find@PEAUglobalModule@cudart@@@?$set@Uentry@?$map@PEAUglobalModule@cudart@@PEAUmodule@2@@cudart@@@cudart@@QEAA?AV?$base_iterator@$0A@@01@AEBQEAUglobalModule@1@@Z 0000000180048e20 f i cudart_static:cudart_cudart_context.obj
 0001:00047ec0       ??$find@PEAX@?$map@PEBXPEAUcudaEntryFunction@cudart@@@cudart@@QEAA?AV?$base_iterator@$0A@@?$set@Uentry@?$map@PEBXPEAUcudaEntryFunction@cudart@@@cudart@@@1@AEBQEAX@Z 0000000180048ec0 f i cudart_static:cudart_cudart_context.obj
 0001:00047ee0       ??$find@PEAX@?$map@PEBXPEAUcudaVariable@cudart@@@cudart@@QEAA?AV?$base_iterator@$0A@@?$set@Uentry@?$map@PEBXPEAUcudaVariable@cudart@@@cudart@@@1@AEBQEAX@Z 0000000180048ee0 f i cudart_static:cudart_cudart_context.obj
 0001:00047f00       ??$find@PEAX@?$set@Uentry@?$map@PEBXPEAUcudaEntryFunction@cudart@@@cudart@@@cudart@@QEAA?AV?$base_iterator@$0A@@01@AEBQEAX@Z 0000000180048f00 f i cudart_static:cudart_cudart_context.obj
 0001:00047fa0       ??$find@PEAX@?$set@Uentry@?$map@PEBXPEAUcudaVariable@cudart@@@cudart@@@cudart@@QEAA?AV?$base_iterator@$0A@@01@AEBQEAX@Z 0000000180048fa0 f i cudart_static:cudart_cudart_context.obj
 0001:00048040       ??$find@PEBX@?$map@PEBXPEAUcudaEntryFunction@cudart@@@cudart@@QEAA?AV?$base_iterator@$0A@@?$set@Uentry@?$map@PEBXPEAUcudaEntryFunction@cudart@@@cudart@@@1@AEBQEBX@Z 0000000180049040 f i cudart_static:cudart_cudart_context.obj
 0001:00048060       ??$find@PEBX@?$map@PEBXPEAUcudaVariable@cudart@@@cudart@@QEAA?AV?$base_iterator@$0A@@?$set@Uentry@?$map@PEBXPEAUcudaVariable@cudart@@@cudart@@@1@AEBQEBX@Z 0000000180049060 f i cudart_static:cudart_cudart_context.obj
 0001:00048080       ??$find@PEBX@?$set@Uentry@?$map@PEBXPEAUcudaEntryFunction@cudart@@@cudart@@@cudart@@QEAA?AV?$base_iterator@$0A@@01@AEBQEBX@Z 0000000180049080 f i cudart_static:cudart_cudart_context.obj
 0001:00048120       ??$find@PEBX@?$set@Uentry@?$map@PEBXPEAUcudaVariable@cudart@@@cudart@@@cudart@@QEAA?AV?$base_iterator@$0A@@01@AEBQEBX@Z 0000000180049120 f i cudart_static:cudart_cudart_context.obj
 0001:000481c0       ??$find_place@PEAUglobalModule@cudart@@@?$set@PEAUglobalModule@cudart@@@cudart@@AEAAPEAPEAVnode@01@AEBQEAUglobalModule@1@PEAI@Z 00000001800491c0 f i cudart_static:cudart_cudart_context.obj
 0001:000481e0       ??$find_place@PEAUglobalModule@cudart@@@?$set@PEAUglobalModule@cudart@@@cudart@@AEBAPEBQEBVnode@01@AEBQEAUglobalModule@1@PEAI@Z 00000001800491e0 f i cudart_static:cudart_cudart_context.obj
 0001:00048200       ??$find_place@PEAUglobalModule@cudart@@@?$set@PEAUglobalModule@cudart@@@cudart@@CAPEAPEAVnode@01@PEAPEAV201@HAEBQEAUglobalModule@1@PEAI@Z 0000000180049200 f i cudart_static:cudart_cudart_context.obj
 0001:00048210       ??$find_place@PEAUglobalModule@cudart@@@?$set@PEAUglobalModule@cudart@@@cudart@@CAPEBQEBVnode@01@PEBQEBV201@HAEBQEAUglobalModule@1@PEAI@Z 0000000180049210 f i cudart_static:cudart_cudart_context.obj
 0001:00048310       ??$find_place@PEAUglobalModule@cudart@@@?$set@Uentry@?$map@PEAUglobalModule@cudart@@PEAUmodule@2@@cudart@@@cudart@@AEAAPEAPEAVnode@01@AEBQEAUglobalModule@1@PEAI@Z 0000000180049310 f i cudart_static:cudart_cudart_context.obj
 0001:00048330       ??$find_place@PEAUglobalModule@cudart@@@?$set@Uentry@?$map@PEAUglobalModule@cudart@@PEAUmodule@2@@cudart@@@cudart@@CAPEAPEAVnode@01@PEAPEAV201@HAEBQEAUglobalModule@1@PEAI@Z 0000000180049330 f i cudart_static:cudart_cudart_context.obj
 0001:00048340       ??$find_place@PEAUglobalModule@cudart@@@?$set@Uentry@?$map@PEAUglobalModule@cudart@@PEAUmodule@2@@cudart@@@cudart@@CAPEBQEBVnode@01@PEBQEBV201@HAEBQEAUglobalModule@1@PEAI@Z 0000000180049340 f i cudart_static:cudart_cudart_context.obj
 0001:00048440       ??$find_place@PEAUmodule@cudart@@@?$set@PEAUmodule@cudart@@@cudart@@AEAAPEAPEAVnode@01@AEBQEAUmodule@1@PEAI@Z 0000000180049440 f i cudart_static:cudart_cudart_context.obj
 0001:00048460       ??$find_place@PEAUmodule@cudart@@@?$set@PEAUmodule@cudart@@@cudart@@CAPEAPEAVnode@01@PEAPEAV201@HAEBQEAUmodule@1@PEAI@Z 0000000180049460 f i cudart_static:cudart_cudart_context.obj
 0001:00048470       ??$find_place@PEAUmodule@cudart@@@?$set@PEAUmodule@cudart@@@cudart@@CAPEBQEBVnode@01@PEBQEBV201@HAEBQEAUmodule@1@PEAI@Z 0000000180049470 f i cudart_static:cudart_cudart_context.obj
 0001:00048570       ??$find_place@PEAX@?$set@Uentry@?$map@PEBXPEAUcudaEntryFunction@cudart@@@cudart@@@cudart@@AEAAPEAPEAVnode@01@AEBQEAXPEAI@Z 0000000180049570 f i cudart_static:cudart_cudart_context.obj
 0001:00048590       ??$find_place@PEAX@?$set@Uentry@?$map@PEBXPEAUcudaEntryFunction@cudart@@@cudart@@@cudart@@CAPEAPEAVnode@01@PEAPEAV201@HAEBQEAXPEAI@Z 0000000180049590 f i cudart_static:cudart_cudart_context.obj
 0001:000485a0       ??$find_place@PEAX@?$set@Uentry@?$map@PEBXPEAUcudaEntryFunction@cudart@@@cudart@@@cudart@@CAPEBQEBVnode@01@PEBQEBV201@HAEBQEAXPEAI@Z 00000001800495a0 f i cudart_static:cudart_cudart_context.obj
 0001:000486a0       ??$find_place@PEAX@?$set@Uentry@?$map@PEBXPEAUcudaVariable@cudart@@@cudart@@@cudart@@AEAAPEAPEAVnode@01@AEBQEAXPEAI@Z 00000001800496a0 f i cudart_static:cudart_cudart_context.obj
 0001:000486c0       ??$find_place@PEAX@?$set@Uentry@?$map@PEBXPEAUcudaVariable@cudart@@@cudart@@@cudart@@CAPEAPEAVnode@01@PEAPEAV201@HAEBQEAXPEAI@Z 00000001800496c0 f i cudart_static:cudart_cudart_context.obj
 0001:000486d0       ??$find_place@PEAX@?$set@Uentry@?$map@PEBXPEAUcudaVariable@cudart@@@cudart@@@cudart@@CAPEBQEBVnode@01@PEBQEBV201@HAEBQEAXPEAI@Z 00000001800496d0 f i cudart_static:cudart_cudart_context.obj
 0001:000487d0       ??$find_place@PEBX@?$set@PEBX@cudart@@AEAAPEAPEAVnode@01@AEBQEBXPEAI@Z 00000001800497d0 f i cudart_static:cudart_cudart_context.obj
 0001:000487f0       ??$find_place@PEBX@?$set@PEBX@cudart@@CAPEAPEAVnode@01@PEAPEAV201@HAEBQEBXPEAI@Z 00000001800497f0 f i cudart_static:cudart_cudart_context.obj
 0001:00048800       ??$find_place@PEBX@?$set@PEBX@cudart@@CAPEBQEBVnode@01@PEBQEBV201@HAEBQEBXPEAI@Z 0000000180049800 f i cudart_static:cudart_cudart_context.obj
 0001:00048900       ??$find_place@PEBX@?$set@Uentry@?$map@PEBXPEAUcudaEntryFunction@cudart@@@cudart@@@cudart@@AEAAPEAPEAVnode@01@AEBQEBXPEAI@Z 0000000180049900 f i cudart_static:cudart_cudart_context.obj
 0001:00048920       ??$find_place@PEBX@?$set@Uentry@?$map@PEBXPEAUcudaEntryFunction@cudart@@@cudart@@@cudart@@CAPEAPEAVnode@01@PEAPEAV201@HAEBQEBXPEAI@Z 0000000180049920 f i cudart_static:cudart_cudart_context.obj
 0001:00048930       ??$find_place@PEBX@?$set@Uentry@?$map@PEBXPEAUcudaEntryFunction@cudart@@@cudart@@@cudart@@CAPEBQEBVnode@01@PEBQEBV201@HAEBQEBXPEAI@Z 0000000180049930 f i cudart_static:cudart_cudart_context.obj
 0001:00048a30       ??$find_place@PEBX@?$set@Uentry@?$map@PEBXPEAUcudaVariable@cudart@@@cudart@@@cudart@@AEAAPEAPEAVnode@01@AEBQEBXPEAI@Z 0000000180049a30 f i cudart_static:cudart_cudart_context.obj
 0001:00048a50       ??$find_place@PEBX@?$set@Uentry@?$map@PEBXPEAUcudaVariable@cudart@@@cudart@@@cudart@@CAPEAPEAVnode@01@PEAPEAV201@HAEBQEBXPEAI@Z 0000000180049a50 f i cudart_static:cudart_cudart_context.obj
 0001:00048a60       ??$find_place@PEBX@?$set@Uentry@?$map@PEBXPEAUcudaVariable@cudart@@@cudart@@@cudart@@CAPEBQEBVnode@01@PEBQEBV201@HAEBQEBXPEAI@Z 0000000180049a60 f i cudart_static:cudart_cudart_context.obj
 0001:00048b60       ??$find_place@Uentry@?$map@PEAUglobalModule@cudart@@PEAUmodule@2@@cudart@@@?$set@Uentry@?$map@PEAUglobalModule@cudart@@PEAUmodule@2@@cudart@@@cudart@@AEAAPEAPEAVnode@01@AEBUentry@?$map@PEAUglobalModule@cudart@@PEAUmodule@2@@1@PEAI@Z 0000000180049b60 f i cudart_static:cudart_cudart_context.obj
 0001:00048b80       ??$find_place@Uentry@?$map@PEAUglobalModule@cudart@@PEAUmodule@2@@cudart@@@?$set@Uentry@?$map@PEAUglobalModule@cudart@@PEAUmodule@2@@cudart@@@cudart@@CAPEAPEAVnode@01@PEAPEAV201@HAEBUentry@?$map@PEAUglobalModule@cudart@@PEAUmodule@2@@1@PEAI@Z 0000000180049b80 f i cudart_static:cudart_cudart_context.obj
 0001:00048b90       ??$find_place@Uentry@?$map@PEAUglobalModule@cudart@@PEAUmodule@2@@cudart@@@?$set@Uentry@?$map@PEAUglobalModule@cudart@@PEAUmodule@2@@cudart@@@cudart@@CAPEBQEBVnode@01@PEBQEBV201@HAEBUentry@?$map@PEAUglobalModule@cudart@@PEAUmodule@2@@1@PEAI@Z 0000000180049b90 f i cudart_static:cudart_cudart_context.obj
 0001:00048c90       ??$find_place@Uentry@?$map@PEBXPEAUcudaEntryFunction@cudart@@@cudart@@@?$set@Uentry@?$map@PEBXPEAUcudaEntryFunction@cudart@@@cudart@@@cudart@@AEAAPEAPEAVnode@01@AEBUentry@?$map@PEBXPEAUcudaEntryFunction@cudart@@@1@PEAI@Z 0000000180049c90 f i cudart_static:cudart_cudart_context.obj
 0001:00048cb0       ??$find_place@Uentry@?$map@PEBXPEAUcudaEntryFunction@cudart@@@cudart@@@?$set@Uentry@?$map@PEBXPEAUcudaEntryFunction@cudart@@@cudart@@@cudart@@CAPEAPEAVnode@01@PEAPEAV201@HAEBUentry@?$map@PEBXPEAUcudaEntryFunction@cudart@@@1@PEAI@Z 0000000180049cb0 f i cudart_static:cudart_cudart_context.obj
 0001:00048cc0       ??$find_place@Uentry@?$map@PEBXPEAUcudaEntryFunction@cudart@@@cudart@@@?$set@Uentry@?$map@PEBXPEAUcudaEntryFunction@cudart@@@cudart@@@cudart@@CAPEBQEBVnode@01@PEBQEBV201@HAEBUentry@?$map@PEBXPEAUcudaEntryFunction@cudart@@@1@PEAI@Z 0000000180049cc0 f i cudart_static:cudart_cudart_context.obj
 0001:00048dc0       ??$find_place@Uentry@?$map@PEBXPEAUcudaVariable@cudart@@@cudart@@@?$set@Uentry@?$map@PEBXPEAUcudaVariable@cudart@@@cudart@@@cudart@@AEAAPEAPEAVnode@01@AEBUentry@?$map@PEBXPEAUcudaVariable@cudart@@@1@PEAI@Z 0000000180049dc0 f i cudart_static:cudart_cudart_context.obj
 0001:00048de0       ??$find_place@Uentry@?$map@PEBXPEAUcudaVariable@cudart@@@cudart@@@?$set@Uentry@?$map@PEBXPEAUcudaVariable@cudart@@@cudart@@@cudart@@CAPEAPEAVnode@01@PEAPEAV201@HAEBUentry@?$map@PEBXPEAUcudaVariable@cudart@@@1@PEAI@Z 0000000180049de0 f i cudart_static:cudart_cudart_context.obj
 0001:00048df0       ??$find_place@Uentry@?$map@PEBXPEAUcudaVariable@cudart@@@cudart@@@?$set@Uentry@?$map@PEBXPEAUcudaVariable@cudart@@@cudart@@@cudart@@CAPEBQEBVnode@01@PEBQEBV201@HAEBUentry@?$map@PEBXPEAUcudaVariable@cudart@@@1@PEAI@Z 0000000180049df0 f i cudart_static:cudart_cudart_context.obj
 0001:00048ef0       ??0?$base_iterator@$0A@@?$list@PEAUmodule@cudart@@@cudart@@QEAA@PEAVnode@12@@Z 0000000180049ef0 f i cudart_static:cudart_cudart_context.obj
 0001:00048f00       ??0?$base_iterator@$0A@@?$set@PEAUglobalModule@cudart@@@cudart@@QEAA@PEAPEAVnode@12@I@Z 0000000180049f00 f i cudart_static:cudart_cudart_context.obj
 0001:00048f50       ??0?$base_iterator@$0A@@?$set@PEAUmodule@cudart@@@cudart@@QEAA@PEAPEAVnode@12@I@Z 0000000180049f50 f i cudart_static:cudart_cudart_context.obj
 0001:00048fa0       ??0?$base_iterator@$0A@@?$set@PEBX@cudart@@QEAA@AEBV012@@Z 0000000180049fa0 f i cudart_static:cudart_cudart_context.obj
 0001:00048fc0       ??0?$base_iterator@$0A@@?$set@PEBX@cudart@@QEAA@PEAPEAVnode@12@I@Z 0000000180049fc0 f i cudart_static:cudart_cudart_context.obj
 0001:00049010       ??0?$base_iterator@$0A@@?$set@Uentry@?$map@PEAUglobalModule@cudart@@PEAUmodule@2@@cudart@@@cudart@@QEAA@PEAPEAVnode@12@I@Z 000000018004a010 f i cudart_static:cudart_cudart_context.obj
 0001:00049060       ??0?$base_iterator@$0A@@?$set@Uentry@?$map@PEAUglobalModule@cudart@@PEAUmodule@2@@cudart@@@cudart@@QEAA@PEAPEAVnode@12@IPEAV312@@Z 000000018004a060 f i cudart_static:cudart_cudart_context.obj
 0001:00049080       ??0?$base_iterator@$0A@@?$set@Uentry@?$map@PEBXPEAUcudaEntryFunction@cudart@@@cudart@@@cudart@@QEAA@PEAPEAVnode@12@I@Z 000000018004a080 f i cudart_static:cudart_cudart_context.obj
 0001:000490d0       ??0?$base_iterator@$0A@@?$set@Uentry@?$map@PEBXPEAUcudaEntryFunction@cudart@@@cudart@@@cudart@@QEAA@PEAPEAVnode@12@IPEAV312@@Z 000000018004a0d0 f i cudart_static:cudart_cudart_context.obj
 0001:000490f0       ??0?$base_iterator@$0A@@?$set@Uentry@?$map@PEBXPEAUcudaVariable@cudart@@@cudart@@@cudart@@QEAA@PEAPEAVnode@12@I@Z 000000018004a0f0 f i cudart_static:cudart_cudart_context.obj
 0001:00049140       ??0?$base_iterator@$0A@@?$set@Uentry@?$map@PEBXPEAUcudaVariable@cudart@@@cudart@@@cudart@@QEAA@PEAPEAVnode@12@IPEAV312@@Z 000000018004a140 f i cudart_static:cudart_cudart_context.obj
 0001:00049160       ??0?$base_smart_ptr@Umy_char@string@cudart@@$00@cudart@@QEAA@AEBV01@@Z 000000018004a160 f i cudart_static:cudart_cudart_context.obj
 0001:00049180       ??0?$base_smart_ptr@Umy_char@string@cudart@@$00@cudart@@QEAA@PEAUmy_char@string@1@PEAW4cudaError@@@Z 000000018004a180 f i cudart_static:cudart_cudart_context.obj
 0001:00049200       ??0?$base_smart_ptr@Umy_char@string@cudart@@$00@cudart@@QEAA@XZ 000000018004a200 f i cudart_static:cudart_cudart_context.obj
 0001:00049210       ??0?$list@PEAUmodule@cudart@@@cudart@@QEAA@XZ 000000018004a210 f i cudart_static:cudart_cudart_context.obj
 0001:00049220       ??0?$map@PEAUglobalModule@cudart@@PEAUmodule@2@@cudart@@QEAA@XZ 000000018004a220 f i cudart_static:cudart_cudart_context.obj
 0001:00049230       ??0?$map@PEBXPEAUcudaEntryFunction@cudart@@@cudart@@QEAA@XZ 000000018004a230 f i cudart_static:cudart_cudart_context.obj
 0001:00049240       ??0?$map@PEBXPEAUcudaVariable@cudart@@@cudart@@QEAA@XZ 000000018004a240 f i cudart_static:cudart_cudart_context.obj
 0001:00049250       ??0?$set@PEAUglobalModule@cudart@@@cudart@@QEAA@XZ 000000018004a250 f i cudart_static:cudart_cudart_context.obj
 0001:00049260       ??0?$set@PEAUmodule@cudart@@@cudart@@QEAA@XZ 000000018004a260 f i cudart_static:cudart_cudart_context.obj
 0001:00049270       ??0?$set@PEBX@cudart@@QEAA@XZ 000000018004a270 f i cudart_static:cudart_cudart_context.obj
 0001:00049280       ??0?$set@Uentry@?$map@PEAUglobalModule@cudart@@PEAUmodule@2@@cudart@@@cudart@@QEAA@XZ 000000018004a280 f i cudart_static:cudart_cudart_context.obj
 0001:00049290       ??0?$set@Uentry@?$map@PEBXPEAUcudaEntryFunction@cudart@@@cudart@@@cudart@@QEAA@XZ 000000018004a290 f i cudart_static:cudart_cudart_context.obj
 0001:000492a0       ??0?$set@Uentry@?$map@PEBXPEAUcudaVariable@cudart@@@cudart@@@cudart@@QEAA@XZ 000000018004a2a0 f i cudart_static:cudart_cudart_context.obj
 0001:000492b0       ??0?$shared_array@Umy_char@string@cudart@@@cudart@@QEAA@AEBV01@@Z 000000018004a2b0 f i cudart_static:cudart_cudart_context.obj
 0001:000492d0       ??0?$shared_array@Umy_char@string@cudart@@@cudart@@QEAA@PEAUmy_char@string@1@PEAW4cudaError@@@Z 000000018004a2d0 f i cudart_static:cudart_cudart_context.obj
 0001:000492f0       ??0?$shared_array@Umy_char@string@cudart@@@cudart@@QEAA@XZ 000000018004a2f0 f i cudart_static:cudart_cudart_context.obj
 0001:00049300       ??0ContextLock@contextState@cudart@@QEAA@AEAU_RTL_CRITICAL_SECTION@@@Z 000000018004a300 f i cudart_static:cudart_cudart_context.obj
 0001:00049320       ??0contextState@cudart@@QEAA@PEAUdevice@1@PEAUCUctx_st@@@Z 000000018004a320 f   cudart_static:cudart_cudart_context.obj
 0001:00049390       ??0cudaEntryFunction@cudart@@QEAA@PEAUCUfunc_st@@PEBDHPEBX@Z 000000018004a390 f i cudart_static:cudart_cudart_context.obj
 0001:000493c0       ??0cudaVariable@cudart@@QEAA@PEAXPEAUCUmod_st@@PEBD_N@Z 000000018004a3c0 f   cudart_static:cudart_cudart_context.obj
 0001:000493f0       ??0entry@?$map@PEAUglobalModule@cudart@@PEAUmodule@2@@cudart@@QEAA@AEBQEAUglobalModule@2@AEBQEAUmodule@2@@Z 000000018004a3f0 f i cudart_static:cudart_cudart_context.obj
 0001:00049410       ??0entry@?$map@PEAUglobalModule@cudart@@PEAUmodule@2@@cudart@@QEAA@AEBU012@@Z 000000018004a410 f i cudart_static:cudart_cudart_context.obj
 0001:00049430       ??0entry@?$map@PEBXPEAUcudaEntryFunction@cudart@@@cudart@@QEAA@AEBQEBXAEBQEAUcudaEntryFunction@2@@Z 000000018004a430 f i cudart_static:cudart_cudart_context.obj
 0001:00049450       ??0entry@?$map@PEBXPEAUcudaEntryFunction@cudart@@@cudart@@QEAA@AEBU012@@Z 000000018004a450 f i cudart_static:cudart_cudart_context.obj
 0001:00049470       ??0entry@?$map@PEBXPEAUcudaVariable@cudart@@@cudart@@QEAA@AEBQEBXAEBQEAUcudaVariable@2@@Z 000000018004a470 f i cudart_static:cudart_cudart_context.obj
 0001:00049490       ??0entry@?$map@PEBXPEAUcudaVariable@cudart@@@cudart@@QEAA@AEBU012@@Z 000000018004a490 f i cudart_static:cudart_cudart_context.obj
 0001:000494b0       ??0module@cudart@@QEAA@PEAVcontextState@1@PEAUglobalModule@1@W4cudaError_enum@@@Z 000000018004a4b0 f   cudart_static:cudart_cudart_context.obj
 0001:000494e0       ??0node@?$list@PEAUmodule@cudart@@@cudart@@AEAA@AEBQEAUmodule@2@PEAV012@1@Z 000000018004a4e0 f i cudart_static:cudart_cudart_context.obj
 0001:00049500       ??0node@?$set@PEAUglobalModule@cudart@@@cudart@@AEAA@IAEBQEAUglobalModule@2@@Z 000000018004a500 f i cudart_static:cudart_cudart_context.obj
 0001:00049520       ??0node@?$set@PEAUmodule@cudart@@@cudart@@AEAA@IAEBQEAUmodule@2@@Z 000000018004a520 f i cudart_static:cudart_cudart_context.obj
 0001:00049540       ??0node@?$set@PEBX@cudart@@AEAA@IAEBQEBX@Z 000000018004a540 f i cudart_static:cudart_cudart_context.obj
 0001:00049560       ??0node@?$set@Uentry@?$map@PEAUglobalModule@cudart@@PEAUmodule@2@@cudart@@@cudart@@AEAA@IAEBUentry@?$map@PEAUglobalModule@cudart@@PEAUmodule@2@@2@@Z 000000018004a560 f i cudart_static:cudart_cudart_context.obj
 0001:00049580       ??0node@?$set@Uentry@?$map@PEBXPEAUcudaEntryFunction@cudart@@@cudart@@@cudart@@AEAA@IAEBUentry@?$map@PEBXPEAUcudaEntryFunction@cudart@@@2@@Z 000000018004a580 f i cudart_static:cudart_cudart_context.obj
 0001:000495a0       ??0node@?$set@Uentry@?$map@PEBXPEAUcudaVariable@cudart@@@cudart@@@cudart@@AEAA@IAEBUentry@?$map@PEBXPEAUcudaVariable@cudart@@@2@@Z 000000018004a5a0 f i cudart_static:cudart_cudart_context.obj
 0001:000495c0       ??0reference@?$base_smart_ptr@Umy_char@string@cudart@@$00@cudart@@AEAA@PEAUmy_char@string@2@@Z 000000018004a5c0 f i cudart_static:cudart_cudart_context.obj
 0001:000495d0       ??0string@cudart@@QEAA@PEBDPEAW4cudaError@@@Z 000000018004a5d0 f i cudart_static:cudart_cudart_context.obj
 0001:000495f0       ??1?$base_smart_ptr@Umy_char@string@cudart@@$00@cudart@@QEAA@XZ 000000018004a5f0 f i cudart_static:cudart_cudart_context.obj
 0001:00049620       ??1?$list@PEAUmodule@cudart@@@cudart@@QEAA@XZ 000000018004a620 f i cudart_static:cudart_cudart_context.obj
 0001:00049650       ??1?$map@PEAUglobalModule@cudart@@PEAUmodule@2@@cudart@@QEAA@XZ 000000018004a650 f i cudart_static:cudart_cudart_context.obj
 0001:00049660       ??1?$map@PEBXPEAUcudaEntryFunction@cudart@@@cudart@@QEAA@XZ 000000018004a660 f i cudart_static:cudart_cudart_context.obj
 0001:00049670       ??1?$map@PEBXPEAUcudaVariable@cudart@@@cudart@@QEAA@XZ 000000018004a670 f i cudart_static:cudart_cudart_context.obj
 0001:00049680       ??1?$set@PEAUglobalModule@cudart@@@cudart@@QEAA@XZ 000000018004a680 f i cudart_static:cudart_cudart_context.obj
 0001:00049690       ??1?$set@PEAUmodule@cudart@@@cudart@@QEAA@XZ 000000018004a690 f i cudart_static:cudart_cudart_context.obj
 0001:000496a0       ??1?$set@PEBX@cudart@@QEAA@XZ 000000018004a6a0 f i cudart_static:cudart_cudart_context.obj
 0001:000496b0       ??1?$set@Uentry@?$map@PEAUglobalModule@cudart@@PEAUmodule@2@@cudart@@@cudart@@QEAA@XZ 000000018004a6b0 f i cudart_static:cudart_cudart_context.obj
 0001:000496c0       ??1?$set@Uentry@?$map@PEBXPEAUcudaEntryFunction@cudart@@@cudart@@@cudart@@QEAA@XZ 000000018004a6c0 f i cudart_static:cudart_cudart_context.obj
 0001:000496d0       ??1?$set@Uentry@?$map@PEBXPEAUcudaVariable@cudart@@@cudart@@@cudart@@QEAA@XZ 000000018004a6d0 f i cudart_static:cudart_cudart_context.obj
 0001:000496e0       ??1?$shared_array@Umy_char@string@cudart@@@cudart@@QEAA@XZ 000000018004a6e0 f i cudart_static:cudart_cudart_context.obj
 0001:00049710       ??1ContextLock@contextState@cudart@@QEAA@XZ 000000018004a710 f i cudart_static:cudart_cudart_context.obj
 0001:00049720       ??1contextState@cudart@@QEAA@XZ 000000018004a720 f   cudart_static:cudart_cudart_context.obj
 0001:00049790       ??1cudaEntryFunction@cudart@@QEAA@XZ 000000018004a790 f i cudart_static:cudart_cudart_context.obj
 0001:000497c0       ??1cudaVariable@cudart@@QEAA@XZ 000000018004a7c0 f i cudart_static:cudart_cudart_context.obj
 0001:000497f0       ??1module@cudart@@QEAA@XZ  000000018004a7f0 f i cudart_static:cudart_cudart_context.obj
 0001:00049810       ??1reference@?$base_smart_ptr@Umy_char@string@cudart@@$00@cudart@@AEAA@XZ 000000018004a810 f i cudart_static:cudart_cudart_context.obj
 0001:00049820       ??1string@cudart@@QEAA@XZ  000000018004a820 f i cudart_static:cudart_cudart_context.obj
 0001:00049850       ??2cudaEntryFunction@cudart@@SAPEAX_KAEBUnothrow_t@1@@Z 000000018004a850 f i cudart_static:cudart_cudart_context.obj
 0001:00049860       ??2cudaVariable@cudart@@SAPEAX_KAEBUnothrow_t@1@@Z 000000018004a860 f i cudart_static:cudart_cudart_context.obj
 0001:00049870       ??2module@cudart@@SAPEAX_KAEBUnothrow_t@1@@Z 000000018004a870 f i cudart_static:cudart_cudart_context.obj
 0001:00049880       ??2node@?$list@PEAUmodule@cudart@@@cudart@@SAPEAX_KAEBUnothrow_t@2@@Z 000000018004a880 f i cudart_static:cudart_cudart_context.obj
 0001:00049890       ??2node@?$set@PEAUglobalModule@cudart@@@cudart@@SAPEAX_KAEBUnothrow_t@2@@Z 000000018004a890 f i cudart_static:cudart_cudart_context.obj
 0001:000498a0       ??2node@?$set@PEAUmodule@cudart@@@cudart@@SAPEAX_KAEBUnothrow_t@2@@Z 000000018004a8a0 f i cudart_static:cudart_cudart_context.obj
 0001:000498b0       ??2node@?$set@PEBX@cudart@@SAPEAX_KAEBUnothrow_t@2@@Z 000000018004a8b0 f i cudart_static:cudart_cudart_context.obj
 0001:000498c0       ??2node@?$set@Uentry@?$map@PEAUglobalModule@cudart@@PEAUmodule@2@@cudart@@@cudart@@SAPEAX_KAEBUnothrow_t@2@@Z 000000018004a8c0 f i cudart_static:cudart_cudart_context.obj
 0001:000498d0       ??2node@?$set@Uentry@?$map@PEBXPEAUcudaEntryFunction@cudart@@@cudart@@@cudart@@SAPEAX_KAEBUnothrow_t@2@@Z 000000018004a8d0 f i cudart_static:cudart_cudart_context.obj
 0001:000498e0       ??2node@?$set@Uentry@?$map@PEBXPEAUcudaVariable@cudart@@@cudart@@@cudart@@SAPEAX_KAEBUnothrow_t@2@@Z 000000018004a8e0 f i cudart_static:cudart_cudart_context.obj
 0001:000498f0       ??2reference@?$base_smart_ptr@Umy_char@string@cudart@@$00@cudart@@SAPEAX_KAEBUnothrow_t@2@@Z 000000018004a8f0 f i cudart_static:cudart_cudart_context.obj
 0001:00049900       ??3cudaEntryFunction@cudart@@SAXPEAX@Z 000000018004a900 f i cudart_static:cudart_cudart_context.obj
 0001:00049910       ??3cudaVariable@cudart@@SAXPEAX@Z 000000018004a910 f i cudart_static:cudart_cudart_context.obj
 0001:00049920       ??3module@cudart@@SAXPEAX@Z 000000018004a920 f i cudart_static:cudart_cudart_context.obj
 0001:00049930       ??3my_char@string@cudart@@SAXPEAX@Z 000000018004a930 f i cudart_static:cudart_cudart_context.obj
 0001:00049940       ??3node@?$list@PEAUmodule@cudart@@@cudart@@SAXPEAX@Z 000000018004a940 f i cudart_static:cudart_cudart_context.obj
 0001:00049950       ??3node@?$set@PEAUglobalModule@cudart@@@cudart@@SAXPEAX@Z 000000018004a950 f i cudart_static:cudart_cudart_context.obj
 0001:00049960       ??3node@?$set@PEAUmodule@cudart@@@cudart@@SAXPEAX@Z 000000018004a960 f i cudart_static:cudart_cudart_context.obj
 0001:00049970       ??3node@?$set@PEBX@cudart@@SAXPEAX@Z 000000018004a970 f i cudart_static:cudart_cudart_context.obj
 0001:00049980       ??3node@?$set@Uentry@?$map@PEAUglobalModule@cudart@@PEAUmodule@2@@cudart@@@cudart@@SAXPEAX@Z 000000018004a980 f i cudart_static:cudart_cudart_context.obj
 0001:00049990       ??3node@?$set@Uentry@?$map@PEBXPEAUcudaEntryFunction@cudart@@@cudart@@@cudart@@SAXPEAX@Z 000000018004a990 f i cudart_static:cudart_cudart_context.obj
 0001:000499a0       ??3node@?$set@Uentry@?$map@PEBXPEAUcudaVariable@cudart@@@cudart@@@cudart@@SAXPEAX@Z 000000018004a9a0 f i cudart_static:cudart_cudart_context.obj
 0001:000499b0       ??3reference@?$base_smart_ptr@Umy_char@string@cudart@@$00@cudart@@SAXPEAX@Z 000000018004a9b0 f i cudart_static:cudart_cudart_context.obj
 0001:000499c0       ??6cudart@@YAAEAUhash@0@AEAU10@AEBUentry@?$map@PEAUglobalModule@cudart@@PEAUmodule@2@@0@@Z 000000018004a9c0 f i cudart_static:cudart_cudart_context.obj
 0001:00049a70       ??6cudart@@YAAEAUhash@0@AEAU10@AEBUentry@?$map@PEBXPEAUcudaEntryFunction@cudart@@@0@@Z 000000018004aa70 f i cudart_static:cudart_cudart_context.obj
 0001:00049b20       ??6cudart@@YAAEAUhash@0@AEAU10@AEBUentry@?$map@PEBXPEAUcudaVariable@cudart@@@0@@Z 000000018004ab20 f i cudart_static:cudart_cudart_context.obj
 0001:00049bd0       ??8?$base_iterator@$0A@@?$set@Uentry@?$map@PEBXPEAUcudaEntryFunction@cudart@@@cudart@@@cudart@@QEBA_NAEBV012@@Z 000000018004abd0 f i cudart_static:cudart_cudart_context.obj
 0001:00049be0       ??8?$base_iterator@$0A@@?$set@Uentry@?$map@PEBXPEAUcudaVariable@cudart@@@cudart@@@cudart@@QEBA_NAEBV012@@Z 000000018004abe0 f i cudart_static:cudart_cudart_context.obj
 0001:00049bf0       ??9?$base_iterator@$0A@@?$list@PEAUmodule@cudart@@@cudart@@QEBA_NAEBV012@@Z 000000018004abf0 f i cudart_static:cudart_cudart_context.obj
 0001:00049c00       ??9?$base_iterator@$0A@@?$set@PEAUglobalModule@cudart@@@cudart@@QEBA_NAEBV012@@Z 000000018004ac00 f i cudart_static:cudart_cudart_context.obj
 0001:00049c10       ??9?$base_iterator@$0A@@?$set@PEAUmodule@cudart@@@cudart@@QEBA_NAEBV012@@Z 000000018004ac10 f i cudart_static:cudart_cudart_context.obj
 0001:00049c20       ??9?$base_iterator@$0A@@?$set@PEBX@cudart@@QEBA_NAEBV012@@Z 000000018004ac20 f i cudart_static:cudart_cudart_context.obj
 0001:00049c30       ??9?$base_iterator@$0A@@?$set@Uentry@?$map@PEAUglobalModule@cudart@@PEAUmodule@2@@cudart@@@cudart@@QEBA_NAEBV012@@Z 000000018004ac30 f i cudart_static:cudart_cudart_context.obj
 0001:00049c40       ??9?$base_iterator@$0A@@?$set@Uentry@?$map@PEBXPEAUcudaEntryFunction@cudart@@@cudart@@@cudart@@QEBA_NAEBV012@@Z 000000018004ac40 f i cudart_static:cudart_cudart_context.obj
 0001:00049c50       ??9?$base_iterator@$0A@@?$set@Uentry@?$map@PEBXPEAUcudaVariable@cudart@@@cudart@@@cudart@@QEBA_NAEBV012@@Z 000000018004ac50 f i cudart_static:cudart_cudart_context.obj
 0001:00049c60       ??9entry@?$map@PEAUglobalModule@cudart@@PEAUmodule@2@@cudart@@QEBA_NAEBU012@@Z 000000018004ac60 f i cudart_static:cudart_cudart_context.obj
 0001:00049c70       ??9entry@?$map@PEBXPEAUcudaEntryFunction@cudart@@@cudart@@QEBA_NAEBU012@@Z 000000018004ac70 f i cudart_static:cudart_cudart_context.obj
 0001:00049c80       ??9entry@?$map@PEBXPEAUcudaVariable@cudart@@@cudart@@QEBA_NAEBU012@@Z 000000018004ac80 f i cudart_static:cudart_cudart_context.obj
 0001:00049c90       ??C?$base_iterator@$0A@@?$set@Uentry@?$map@PEAUglobalModule@cudart@@PEAUmodule@2@@cudart@@@cudart@@QEBAPEAUentry@?$map@PEAUglobalModule@cudart@@PEAUmodule@2@@2@XZ 000000018004ac90 f i cudart_static:cudart_cudart_context.obj
 0001:00049ca0       ??C?$base_iterator@$0A@@?$set@Uentry@?$map@PEBXPEAUcudaEntryFunction@cudart@@@cudart@@@cudart@@QEBAPEAUentry@?$map@PEBXPEAUcudaEntryFunction@cudart@@@2@XZ 000000018004aca0 f i cudart_static:cudart_cudart_context.obj
 0001:00049cb0       ??C?$base_iterator@$0A@@?$set@Uentry@?$map@PEBXPEAUcudaVariable@cudart@@@cudart@@@cudart@@QEBAPEAUentry@?$map@PEBXPEAUcudaVariable@cudart@@@2@XZ 000000018004acb0 f i cudart_static:cudart_cudart_context.obj
 0001:00049cc0       ??D?$base_iterator@$0A@@?$list@PEAUmodule@cudart@@@cudart@@QEBAAEAPEAUmodule@2@XZ 000000018004acc0 f i cudart_static:cudart_cudart_context.obj
 0001:00049cd0       ??D?$base_iterator@$0A@@?$set@PEAUglobalModule@cudart@@@cudart@@QEBAAEAPEAUglobalModule@2@XZ 000000018004acd0 f i cudart_static:cudart_cudart_context.obj
 0001:00049ce0       ??D?$base_iterator@$0A@@?$set@PEAUmodule@cudart@@@cudart@@QEBAAEAPEAUmodule@2@XZ 000000018004ace0 f i cudart_static:cudart_cudart_context.obj
 0001:00049cf0       ??D?$base_iterator@$0A@@?$set@PEBX@cudart@@QEBAAEAPEBXXZ 000000018004acf0 f i cudart_static:cudart_cudart_context.obj
 0001:00049d00       ??E?$base_iterator@$0A@@?$list@PEAUmodule@cudart@@@cudart@@QEAAAEAV012@H@Z 000000018004ad00 f i cudart_static:cudart_cudart_context.obj
 0001:00049d10       ??E?$base_iterator@$0A@@?$set@PEAUglobalModule@cudart@@@cudart@@QEAAAEAV012@XZ 000000018004ad10 f i cudart_static:cudart_cudart_context.obj
 0001:00049d40       ??E?$base_iterator@$0A@@?$set@PEAUmodule@cudart@@@cudart@@QEAAAEAV012@XZ 000000018004ad40 f i cudart_static:cudart_cudart_context.obj
 0001:00049d70       ??E?$base_iterator@$0A@@?$set@PEBX@cudart@@QEAA?AV012@H@Z 000000018004ad70 f i cudart_static:cudart_cudart_context.obj
 0001:00049db0       ??E?$base_iterator@$0A@@?$set@PEBX@cudart@@QEAAAEAV012@XZ 000000018004adb0 f i cudart_static:cudart_cudart_context.obj
 0001:00049de0       ??E?$base_iterator@$0A@@?$set@Uentry@?$map@PEAUglobalModule@cudart@@PEAUmodule@2@@cudart@@@cudart@@QEAAAEAV012@XZ 000000018004ade0 f i cudart_static:cudart_cudart_context.obj
 0001:00049e10       ??Lhash@cudart@@QEAAII@Z   000000018004ae10 f i cudart_static:cudart_cudart_context.obj
 0001:00049e20       ??Rhash@cudart@@QEAAIXZ    000000018004ae20 f i cudart_static:cudart_cudart_context.obj
 0001:00049e30       ??_GcudaEntryFunction@cudart@@QEAAPEAXI@Z 000000018004ae30 f i cudart_static:cudart_cudart_context.obj
 0001:00049ea0       ??_GcudaVariable@cudart@@QEAAPEAXI@Z 000000018004aea0 f i cudart_static:cudart_cudart_context.obj
 0001:00049f10       ??_Gmodule@cudart@@QEAAPEAXI@Z 000000018004af10 f i cudart_static:cudart_cudart_context.obj
 0001:00049f70       ??_Greference@?$base_smart_ptr@Umy_char@string@cudart@@$00@cudart@@AEAAPEAXI@Z 000000018004af70 f i cudart_static:cudart_cudart_context.obj
 0001:00049fd0       ??_Umy_char@string@cudart@@SAPEAX_KAEBUnothrow_t@2@@Z 000000018004afd0 f i cudart_static:cudart_cudart_context.obj
 0001:00049fe0       ??_Vmy_char@string@cudart@@SAXPEAX@Z 000000018004afe0 f i cudart_static:cudart_cudart_context.obj
 0001:00049ff0       ?applyChanges@contextState@cudart@@QEAA?AW4cudaError@@XZ 000000018004aff0 f   cudart_static:cudart_cudart_context.obj
 0001:0004a1f0       ?begin@?$list@PEAUmodule@cudart@@@cudart@@QEAA?AV?$base_iterator@$0A@@12@XZ 000000018004b1f0 f i cudart_static:cudart_cudart_context.obj
 0001:0004a200       ?begin@?$map@PEAUglobalModule@cudart@@PEAUmodule@2@@cudart@@QEAA?AV?$base_iterator@$0A@@?$set@Uentry@?$map@PEAUglobalModule@cudart@@PEAUmodule@2@@cudart@@@2@XZ 000000018004b200 f i cudart_static:cudart_cudart_context.obj
 0001:0004a250       ?begin@?$set@PEAUglobalModule@cudart@@@cudart@@QEAA?AV?$base_iterator@$0A@@12@XZ 000000018004b250 f i cudart_static:cudart_cudart_context.obj
 0001:0004a2a0       ?begin@?$set@PEAUmodule@cudart@@@cudart@@QEAA?AV?$base_iterator@$0A@@12@XZ 000000018004b2a0 f i cudart_static:cudart_cudart_context.obj
 0001:0004a2f0       ?begin@?$set@PEBX@cudart@@QEAA?AV?$base_iterator@$0A@@12@XZ 000000018004b2f0 f i cudart_static:cudart_cudart_context.obj
 0001:0004a340       ?begin@?$set@Uentry@?$map@PEAUglobalModule@cudart@@PEAUmodule@2@@cudart@@@cudart@@QEAA?AV?$base_iterator@$0A@@12@XZ 000000018004b340 f i cudart_static:cudart_cudart_context.obj
 0001:0004a390       ?checkIfModuleIsAlreadyLoaded@contextState@cudart@@QEAA_NPEA_NPEAUglobalModule@2@@Z 000000018004b390 f   cudart_static:cudart_cudart_context.obj
 0001:0004a3e0       ?clear@?$map@PEAUglobalModule@cudart@@PEAUmodule@2@@cudart@@QEAAXXZ 000000018004b3e0 f i cudart_static:cudart_cudart_context.obj
 0001:0004a3f0       ?clear@?$set@PEAUglobalModule@cudart@@@cudart@@QEAAXXZ 000000018004b3f0 f i cudart_static:cudart_cudart_context.obj
 0001:0004a470       ?clear@?$set@PEAUmodule@cudart@@@cudart@@QEAAXXZ 000000018004b470 f i cudart_static:cudart_cudart_context.obj
 0001:0004a4f0       ?clear@?$set@PEBX@cudart@@QEAAXXZ 000000018004b4f0 f i cudart_static:cudart_cudart_context.obj
 0001:0004a570       ?clear@?$set@Uentry@?$map@PEAUglobalModule@cudart@@PEAUmodule@2@@cudart@@@cudart@@QEAAXXZ 000000018004b570 f i cudart_static:cudart_cudart_context.obj
 0001:0004a5f0       ?clear@?$set@Uentry@?$map@PEBXPEAUcudaEntryFunction@cudart@@@cudart@@@cudart@@QEAAXXZ 000000018004b5f0 f i cudart_static:cudart_cudart_context.obj
 0001:0004a670       ?clear@?$set@Uentry@?$map@PEBXPEAUcudaVariable@cudart@@@cudart@@@cudart@@QEAAXXZ 000000018004b670 f i cudart_static:cudart_cudart_context.obj
 0001:0004a6f0       ?count@?$set@PEAUglobalModule@cudart@@@cudart@@QEBA_KAEBQEAUglobalModule@2@@Z 000000018004b6f0 f i cudart_static:cudart_cudart_context.obj
 0001:0004a730       ?createEntryFunction@contextState@cudart@@QEAA?AW4cudaError@@AEBUentryFunctionTemp@2@PEAUglobalModule@2@@Z 000000018004b730 f   cudart_static:cudart_cudart_context.obj
 0001:0004a950       ?createRuntimeMod@contextState@cudart@@QEAA?AW4cudaError@@PEAUglobalModule@2@@Z 000000018004b950 f   cudart_static:cudart_cudart_context.obj
 0001:0004aa10       ?createVariable@contextState@cudart@@QEAA?AW4cudaError@@AEBUvariableTemp@2@PEAUglobalModule@2@@Z 000000018004ba10 f   cudart_static:cudart_cudart_context.obj
 0001:0004ad50       ?deleteEntryFunction@contextState@cudart@@QEAA?AW4cudaError@@PEBX@Z 000000018004bd50 f   cudart_static:cudart_cudart_context.obj
 0001:0004ae10       ?deleteVariable@contextState@cudart@@QEAA?AW4cudaError@@PEBX@Z 000000018004be10 f   cudart_static:cudart_cudart_context.obj
 0001:0004aed0       ?dup_and_wrap@string@cudart@@CA?AV?$shared_array@Umy_char@string@cudart@@@2@PEBDPEAW4cudaError@@@Z 000000018004bed0 f i cudart_static:cudart_cudart_context.obj
 0001:0004afb0       ?end@?$list@PEAUmodule@cudart@@@cudart@@QEAA?AV?$base_iterator@$0A@@12@XZ 000000018004bfb0 f i cudart_static:cudart_cudart_context.obj
 0001:0004afc0       ?end@?$map@PEAUglobalModule@cudart@@PEAUmodule@2@@cudart@@QEAA?AV?$base_iterator@$0A@@?$set@Uentry@?$map@PEAUglobalModule@cudart@@PEAUmodule@2@@cudart@@@2@XZ 000000018004bfc0 f i cudart_static:cudart_cudart_context.obj
 0001:0004afe0       ?end@?$map@PEBXPEAUcudaEntryFunction@cudart@@@cudart@@QEAA?AV?$base_iterator@$0A@@?$set@Uentry@?$map@PEBXPEAUcudaEntryFunction@cudart@@@cudart@@@2@XZ 000000018004bfe0 f i cudart_static:cudart_cudart_context.obj
 0001:0004b000       ?end@?$map@PEBXPEAUcudaVariable@cudart@@@cudart@@QEAA?AV?$base_iterator@$0A@@?$set@Uentry@?$map@PEBXPEAUcudaVariable@cudart@@@cudart@@@2@XZ 000000018004c000 f i cudart_static:cudart_cudart_context.obj
 0001:0004b020       ?end@?$set@PEAUglobalModule@cudart@@@cudart@@QEAA?AV?$base_iterator@$0A@@12@XZ 000000018004c020 f i cudart_static:cudart_cudart_context.obj
 0001:0004b040       ?end@?$set@PEAUmodule@cudart@@@cudart@@QEAA?AV?$base_iterator@$0A@@12@XZ 000000018004c040 f i cudart_static:cudart_cudart_context.obj
 0001:0004b060       ?end@?$set@PEBX@cudart@@QEAA?AV?$base_iterator@$0A@@12@XZ 000000018004c060 f i cudart_static:cudart_cudart_context.obj
 0001:0004b080       ?end@?$set@Uentry@?$map@PEAUglobalModule@cudart@@PEAUmodule@2@@cudart@@@cudart@@QEAA?AV?$base_iterator@$0A@@12@XZ 000000018004c080 f i cudart_static:cudart_cudart_context.obj
 0001:0004b0a0       ?end@?$set@Uentry@?$map@PEBXPEAUcudaEntryFunction@cudart@@@cudart@@@cudart@@QEAA?AV?$base_iterator@$0A@@12@XZ 000000018004c0a0 f i cudart_static:cudart_cudart_context.obj
 0001:0004b0c0       ?end@?$set@Uentry@?$map@PEBXPEAUcudaVariable@cudart@@@cudart@@@cudart@@QEAA?AV?$base_iterator@$0A@@12@XZ 000000018004c0c0 f i cudart_static:cudart_cudart_context.obj
 0001:0004b0e0       ?getDriverEntryFunction@contextState@cudart@@QEAA?AW4cudaError@@PEAPEAUCUfunc_st@@PEBX@Z 000000018004c0e0 f   cudart_static:cudart_cudart_context.obj
 0001:0004b170       ?getDriverFunctionHandle@contextState@cudart@@AEAA?AW4cudaError@@PEAUcudaEntryFunction@2@W4MissingSymbolHandlingMode@12@@Z 000000018004c170 f   cudart_static:cudart_cudart_context.obj
 0001:0004b250       ?getDriverModuleHandle@contextState@cudart@@QEAA?AW4cudaError@@PEA_NPEAUglobalModule@2@@Z 000000018004c250 f   cudart_static:cudart_cudart_context.obj
 0001:0004b330       ?getEntryFunction@contextState@cudart@@QEAA?AW4cudaError@@PEAPEAUcudaEntryFunction@2@PEBXW43@@Z 000000018004c330 f   cudart_static:cudart_cudart_context.obj
 0001:0004b3b0       ?getSymbolAddress@contextState@cudart@@QEAA?AW4cudaError@@PEAPEAXPEBX@Z 000000018004c3b0 f   cudart_static:cudart_cudart_context.obj
 0001:0004b4b0       ?getSymbolSize@contextState@cudart@@QEAA?AW4cudaError@@PEA_KPEBX@Z 000000018004c4b0 f   cudart_static:cudart_cudart_context.obj
 0001:0004b5e0       ?getUniqueHandle@variableTemp@cudart@@QEBAPEAXXZ 000000018004c5e0 f i cudart_static:cudart_cudart_context.obj
 0001:0004b5f0       ?getVariable@contextState@cudart@@AEAA?AW4cudaError@@PEAPEAUcudaVariable@2@PEBXW43@@Z 000000018004c5f0 f   cudart_static:cudart_cudart_context.obj
 0001:0004b660       ?get_size@?$set@PEAUglobalModule@cudart@@@cudart@@CA_KIPEA_K@Z 000000018004c660 f i cudart_static:cudart_cudart_context.obj
 0001:0004b680       ?get_size@?$set@PEAUmodule@cudart@@@cudart@@CA_KIPEA_K@Z 000000018004c680 f i cudart_static:cudart_cudart_context.obj
 0001:0004b6a0       ?get_size@?$set@PEBX@cudart@@CA_KIPEA_K@Z 000000018004c6a0 f i cudart_static:cudart_cudart_context.obj
 0001:0004b6c0       ?get_size@?$set@Uentry@?$map@PEAUglobalModule@cudart@@PEAUmodule@2@@cudart@@@cudart@@CA_KIPEA_K@Z 000000018004c6c0 f i cudart_static:cudart_cudart_context.obj
 0001:0004b6e0       ?get_size@?$set@Uentry@?$map@PEBXPEAUcudaEntryFunction@cudart@@@cudart@@@cudart@@CA_KIPEA_K@Z 000000018004c6e0 f i cudart_static:cudart_cudart_context.obj
 0001:0004b700       ?get_size@?$set@Uentry@?$map@PEBXPEAUcudaVariable@cudart@@@cudart@@@cudart@@CA_KIPEA_K@Z 000000018004c700 f i cudart_static:cudart_cudart_context.obj
 0001:0004b720       ?insert@?$map@PEAUglobalModule@cudart@@PEAUmodule@2@@cudart@@QEAA?AW4cudaError@@AEBUentry@12@@Z 000000018004c720 f i cudart_static:cudart_cudart_context.obj
 0001:0004b7e0       ?insert@?$map@PEBXPEAUcudaEntryFunction@cudart@@@cudart@@QEAA?AW4cudaError@@AEBUentry@12@@Z 000000018004c7e0 f i cudart_static:cudart_cudart_context.obj
 0001:0004b8a0       ?insert@?$map@PEBXPEAUcudaVariable@cudart@@@cudart@@QEAA?AW4cudaError@@AEBUentry@12@@Z 000000018004c8a0 f i cudart_static:cudart_cudart_context.obj
 0001:0004b960       ?insert@?$set@PEAUglobalModule@cudart@@@cudart@@QEAA?AW4cudaError@@AEBQEAUglobalModule@2@PEA_N@Z 000000018004c960 f i cudart_static:cudart_cudart_context.obj
 0001:0004ba30       ?insert@?$set@PEAUmodule@cudart@@@cudart@@QEAA?AW4cudaError@@AEBQEAUmodule@2@PEA_N@Z 000000018004ca30 f i cudart_static:cudart_cudart_context.obj
 0001:0004bb00       ?insert@?$set@PEBX@cudart@@QEAA?AW4cudaError@@AEBQEBXPEA_N@Z 000000018004cb00 f i cudart_static:cudart_cudart_context.obj
 0001:0004bbd0       ?insert@?$set@Uentry@?$map@PEAUglobalModule@cudart@@PEAUmodule@2@@cudart@@@cudart@@QEAA?AW4cudaError@@AEBUentry@?$map@PEAUglobalModule@cudart@@PEAUmodule@2@@2@PEA_N@Z 000000018004cbd0 f i cudart_static:cudart_cudart_context.obj
 0001:0004bcb0       ?insert@?$set@Uentry@?$map@PEBXPEAUcudaEntryFunction@cudart@@@cudart@@@cudart@@QEAA?AW4cudaError@@AEBUentry@?$map@PEBXPEAUcudaEntryFunction@cudart@@@2@PEA_N@Z 000000018004ccb0 f i cudart_static:cudart_cudart_context.obj
 0001:0004bd90       ?insert@?$set@Uentry@?$map@PEBXPEAUcudaVariable@cudart@@@cudart@@@cudart@@QEAA?AW4cudaError@@AEBUentry@?$map@PEBXPEAUcudaVariable@cudart@@@2@PEA_N@Z 000000018004cd90 f i cudart_static:cudart_cudart_context.obj
 0001:0004be70       ?lazyFunctionLoadingEnabled@globalState@cudart@@QEAA_NXZ 000000018004ce70 f i cudart_static:cudart_cudart_context.obj
 0001:0004be80       ?lazyLoadVariable@contextState@cudart@@AEAA?AW4cudaError@@PEAUcudaVariable@2@@Z 000000018004ce80 f   cudart_static:cudart_cudart_context.obj
 0001:0004bf30       ?lazyModuleLoadingEnabled@globalState@cudart@@QEAA_NXZ 000000018004cf30 f i cudart_static:cudart_cudart_context.obj
 0001:0004bf40       ?markChangeModuleLoad@contextState@cudart@@QEAA?AW4cudaError@@PEAUglobalModule@2@@Z 000000018004cf40 f   cudart_static:cudart_cudart_context.obj
 0001:0004c010       ?markChangeModuleUnload@contextState@cudart@@QEAA?AW4cudaError@@PEAUglobalModule@2@@Z 000000018004d010 f   cudart_static:cudart_cudart_context.obj
 0001:0004c1d0       ?prepareToLaunchFunction@contextState@cudart@@QEAA?AW4cudaError@@PEAPEAUCUfunc_st@@PEBUconfigData@2@PEBX@Z 000000018004d1d0 f   cudart_static:cudart_cudart_context.obj
 0001:0004c350       ?push_back@?$list@PEAUmodule@cudart@@@cudart@@QEAA?AW4cudaError@@AEBQEAUmodule@2@@Z 000000018004d350 f i cudart_static:cudart_cudart_context.obj
 0001:0004c3d0       ?ref@reference@?$base_smart_ptr@Umy_char@string@cudart@@$00@cudart@@CAPEAV123@PEAV123@@Z 000000018004d3d0 f i cudart_static:cudart_cudart_context.obj
 0001:0004c3e0       ?rehash@?$set@PEAUglobalModule@cudart@@@cudart@@AEAAX_K@Z 000000018004d3e0 f i cudart_static:cudart_cudart_context.obj
 0001:0004c4a0       ?rehash@?$set@PEAUmodule@cudart@@@cudart@@AEAAX_K@Z 000000018004d4a0 f i cudart_static:cudart_cudart_context.obj
 0001:0004c560       ?rehash@?$set@PEBX@cudart@@AEAAX_K@Z 000000018004d560 f i cudart_static:cudart_cudart_context.obj
 0001:0004c620       ?rehash@?$set@Uentry@?$map@PEAUglobalModule@cudart@@PEAUmodule@2@@cudart@@@cudart@@AEAAX_K@Z 000000018004d620 f i cudart_static:cudart_cudart_context.obj
 0001:0004c6e0       ?rehash@?$set@Uentry@?$map@PEBXPEAUcudaEntryFunction@cudart@@@cudart@@@cudart@@AEAAX_K@Z 000000018004d6e0 f i cudart_static:cudart_cudart_context.obj
 0001:0004c7a0       ?rehash@?$set@Uentry@?$map@PEBXPEAUcudaVariable@cudart@@@cudart@@@cudart@@AEAAX_K@Z 000000018004d7a0 f i cudart_static:cudart_cudart_context.obj
 0001:0004c860       ?set@configData@cudart@@QEAAXUdim3@@0_KPEAUCUstream_st@@@Z 000000018004d860 f   cudart_static:cudart_cudart_context.obj
 0001:0004c8a0       ?setStorage@cudaVariable@cudart@@QEAAX_N@Z 000000018004d8a0 f   cudart_static:cudart_cudart_context.obj
 0001:0004c8c0       ?tryLoadingModules@contextState@cudart@@AEAA?AW4cudaError@@AEAV?$list@PEAUmodule@cudart@@@2@PEAPEAUmodule@2@AEA_N@Z 000000018004d8c0 f   cudart_static:cudart_cudart_context.obj
 0001:0004ca10       ?unload@module@cudart@@QEAA?AW4cudaError@@_N@Z 000000018004da10 f   cudart_static:cudart_cudart_context.obj
 0001:0004cbe0       ?unloadAllModules@contextState@cudart@@QEAA?AW4cudaError@@_N@Z 000000018004dbe0 f   cudart_static:cudart_cudart_context.obj
 0001:0004cda0       ?unref@reference@?$base_smart_ptr@Umy_char@string@cudart@@$00@cudart@@CAXPEAV123@@Z 000000018004dda0 f i cudart_static:cudart_cudart_context.obj
 0001:0004cdd0       ??$?0PEAUCUfunc_st@@@hash@cudart@@QEAA@AEBQEAUCUfunc_st@@@Z 000000018004ddd0 f i cudart_static:cudart_cudart_context_mgr.obj
 0001:0004ce80       ??$?0PEAVcontextState@cudart@@@hash@cudart@@QEAA@AEBQEAVcontextState@1@@Z 000000018004de80 f i cudart_static:cudart_cudart_context_mgr.obj
 0001:0004cf30       ??$?0Uentry@?$map@PEAUCUfunc_st@@PEAUcudaEntryFunction@cudart@@@cudart@@@hash@cudart@@QEAA@AEBUentry@?$map@PEAUCUfunc_st@@PEAUcudaEntryFunction@cudart@@@1@@Z 000000018004df30 f i cudart_static:cudart_cudart_context_mgr.obj
 0001:0004cfe0       ??$?6UCUfunc_st@@@hash@cudart@@QEAAAEAU01@AEBQEBUCUfunc_st@@@Z 000000018004dfe0 f i cudart_static:cudart_cudart_context_mgr.obj
 0001:0004d090       ??$?6VcontextState@cudart@@@hash@cudart@@QEAAAEAU01@AEBQEBVcontextState@1@@Z 000000018004e090 f i cudart_static:cudart_cudart_context_mgr.obj
 0001:0004d140       ??$?9PEAUCUfunc_st@@@entry@?$map@PEAUCUfunc_st@@PEAUcudaEntryFunction@cudart@@@cudart@@QEBA_NAEBQEAUCUfunc_st@@@Z 000000018004e140 f i cudart_static:cudart_cudart_context_mgr.obj
 0001:0004d150       ??$erase@PEAUCUfunc_st@@@?$map@PEAUCUfunc_st@@PEAUcudaEntryFunction@cudart@@@cudart@@QEAA_KAEBQEAUCUfunc_st@@@Z 000000018004e150 f i cudart_static:cudart_cudart_context_mgr.obj
 0001:0004d1b0       ??$erase@PEAUCUfunc_st@@@?$set@Uentry@?$map@PEAUCUfunc_st@@PEAUcudaEntryFunction@cudart@@@cudart@@@cudart@@QEAA_KAEBQEAUCUfunc_st@@@Z 000000018004e1b0 f i cudart_static:cudart_cudart_context_mgr.obj
 0001:0004d210       ??$erase@PEAVcontextState@cudart@@@?$set@PEAVcontextState@cudart@@@cudart@@QEAA_KAEBQEAVcontextState@1@@Z 000000018004e210 f i cudart_static:cudart_cudart_context_mgr.obj
 0001:0004d270       ??$find@PEAUCUfunc_st@@@?$map@PEAUCUfunc_st@@PEAUcudaEntryFunction@cudart@@@cudart@@QEAA?AV?$base_iterator@$0A@@?$set@Uentry@?$map@PEAUCUfunc_st@@PEAUcudaEntryFunction@cudart@@@cudart@@@1@AEBQEAUCUfunc_st@@@Z 000000018004e270 f i cudart_static:cudart_cudart_context_mgr.obj
 0001:0004d290       ??$find@PEAUCUfunc_st@@@?$set@Uentry@?$map@PEAUCUfunc_st@@PEAUcudaEntryFunction@cudart@@@cudart@@@cudart@@QEAA?AV?$base_iterator@$0A@@01@AEBQEAUCUfunc_st@@@Z 000000018004e290 f i cudart_static:cudart_cudart_context_mgr.obj
 0001:0004d330       ??$find_place@PEAUCUfunc_st@@@?$set@Uentry@?$map@PEAUCUfunc_st@@PEAUcudaEntryFunction@cudart@@@cudart@@@cudart@@AEAAPEAPEAVnode@01@AEBQEAUCUfunc_st@@PEAI@Z 000000018004e330 f i cudart_static:cudart_cudart_context_mgr.obj
 0001:0004d350       ??$find_place@PEAUCUfunc_st@@@?$set@Uentry@?$map@PEAUCUfunc_st@@PEAUcudaEntryFunction@cudart@@@cudart@@@cudart@@CAPEAPEAVnode@01@PEAPEAV201@HAEBQEAUCUfunc_st@@PEAI@Z 000000018004e350 f i cudart_static:cudart_cudart_context_mgr.obj
 0001:0004d360       ??$find_place@PEAUCUfunc_st@@@?$set@Uentry@?$map@PEAUCUfunc_st@@PEAUcudaEntryFunction@cudart@@@cudart@@@cudart@@CAPEBQEBVnode@01@PEBQEBV201@HAEBQEAUCUfunc_st@@PEAI@Z 000000018004e360 f i cudart_static:cudart_cudart_context_mgr.obj
 0001:0004d460       ??$find_place@PEAVcontextState@cudart@@@?$set@PEAVcontextState@cudart@@@cudart@@AEAAPEAPEAVnode@01@AEBQEAVcontextState@1@PEAI@Z 000000018004e460 f i cudart_static:cudart_cudart_context_mgr.obj
 0001:0004d480       ??$find_place@PEAVcontextState@cudart@@@?$set@PEAVcontextState@cudart@@@cudart@@CAPEAPEAVnode@01@PEAPEAV201@HAEBQEAVcontextState@1@PEAI@Z 000000018004e480 f i cudart_static:cudart_cudart_context_mgr.obj
 0001:0004d490       ??$find_place@PEAVcontextState@cudart@@@?$set@PEAVcontextState@cudart@@@cudart@@CAPEBQEBVnode@01@PEBQEBV201@HAEBQEAVcontextState@1@PEAI@Z 000000018004e490 f i cudart_static:cudart_cudart_context_mgr.obj
 0001:0004d590       ??$find_place@Uentry@?$map@PEAUCUfunc_st@@PEAUcudaEntryFunction@cudart@@@cudart@@@?$set@Uentry@?$map@PEAUCUfunc_st@@PEAUcudaEntryFunction@cudart@@@cudart@@@cudart@@AEAAPEAPEAVnode@01@AEBUentry@?$map@PEAUCUfunc_st@@PEAUcudaEntryFunction@cudart@@@1@PEAI@Z 000000018004e590 f i cudart_static:cudart_cudart_context_mgr.obj
 0001:0004d5b0       ??$find_place@Uentry@?$map@PEAUCUfunc_st@@PEAUcudaEntryFunction@cudart@@@cudart@@@?$set@Uentry@?$map@PEAUCUfunc_st@@PEAUcudaEntryFunction@cudart@@@cudart@@@cudart@@CAPEAPEAVnode@01@PEAPEAV201@HAEBUentry@?$map@PEAUCUfunc_st@@PEAUcudaEntryFunction@cudart@@@1@PEAI@Z 000000018004e5b0 f i cudart_static:cudart_cudart_context_mgr.obj
 0001:0004d5c0       ??$find_place@Uentry@?$map@PEAUCUfunc_st@@PEAUcudaEntryFunction@cudart@@@cudart@@@?$set@Uentry@?$map@PEAUCUfunc_st@@PEAUcudaEntryFunction@cudart@@@cudart@@@cudart@@CAPEBQEBVnode@01@PEBQEBV201@HAEBUentry@?$map@PEAUCUfunc_st@@PEAUcudaEntryFunction@cudart@@@1@PEAI@Z 000000018004e5c0 f i cudart_static:cudart_cudart_context_mgr.obj
 0001:0004d6c0       ??0?$base_iterator@$0A@@?$list@UentryFunctionTemp@cudart@@@cudart@@QEAA@PEAVnode@12@@Z 000000018004e6c0 f i cudart_static:cudart_cudart_context_mgr.obj
 0001:0004d6d0       ??0?$base_iterator@$0A@@?$set@PEAUglobalModule@cudart@@@cudart@@QEAA@AEBV012@@Z 000000018004e6d0 f i cudart_static:cudart_cudart_context_mgr.obj
 0001:0004d6f0       ??0?$base_iterator@$0A@@?$set@PEAUmodule@cudart@@@cudart@@QEAA@AEBV012@@Z 000000018004e6f0 f i cudart_static:cudart_cudart_context_mgr.obj
 0001:0004d710       ??0?$base_iterator@$0A@@?$set@PEAVcontextState@cudart@@@cudart@@QEAA@PEAPEAVnode@12@I@Z 000000018004e710 f i cudart_static:cudart_cudart_context_mgr.obj
 0001:0004d760       ??0?$base_iterator@$0A@@?$set@Uentry@?$map@PEAUCUfunc_st@@PEAUcudaEntryFunction@cudart@@@cudart@@@cudart@@QEAA@PEAPEAVnode@12@I@Z 000000018004e760 f i cudart_static:cudart_cudart_context_mgr.obj
 0001:0004d7b0       ??0?$base_iterator@$0A@@?$set@Uentry@?$map@PEAUCUfunc_st@@PEAUcudaEntryFunction@cudart@@@cudart@@@cudart@@QEAA@PEAPEAVnode@12@IPEAV312@@Z 000000018004e7b0 f i cudart_static:cudart_cudart_context_mgr.obj
 0001:0004d7d0       ??0?$base_iterator@$0A@@?$set@Uentry@?$map@PEAUglobalModule@cudart@@PEAUmodule@2@@cudart@@@cudart@@QEAA@AEBV012@@Z 000000018004e7d0 f i cudart_static:cudart_cudart_context_mgr.obj
 0001:0004d7f0       ??0?$map@PEAUCUfunc_st@@PEAUcudaEntryFunction@cudart@@@cudart@@QEAA@XZ 000000018004e7f0 f i cudart_static:cudart_cudart_context_mgr.obj
 0001:0004d800       ??0?$set@PEAVcontextState@cudart@@@cudart@@QEAA@XZ 000000018004e800 f i cudart_static:cudart_cudart_context_mgr.obj
 0001:0004d810       ??0?$set@Uentry@?$map@PEAUCUfunc_st@@PEAUcudaEntryFunction@cudart@@@cudart@@@cudart@@QEAA@XZ 000000018004e810 f i cudart_static:cudart_cudart_context_mgr.obj
 0001:0004d820       ??0contextStateManager@cudart@@AEAA@XZ 000000018004e820 f i cudart_static:cudart_cudart_context_mgr.obj
 0001:0004d860       ??0entry@?$map@PEAUCUfunc_st@@PEAUcudaEntryFunction@cudart@@@cudart@@QEAA@AEBQEAUCUfunc_st@@AEBQEAUcudaEntryFunction@2@@Z 000000018004e860 f i cudart_static:cudart_cudart_context_mgr.obj
 0001:0004d880       ??0entry@?$map@PEAUCUfunc_st@@PEAUcudaEntryFunction@cudart@@@cudart@@QEAA@AEBU012@@Z 000000018004e880 f i cudart_static:cudart_cudart_context_mgr.obj
 0001:0004d8a0       ??0node@?$set@PEAVcontextState@cudart@@@cudart@@AEAA@IAEBQEAVcontextState@2@@Z 000000018004e8a0 f i cudart_static:cudart_cudart_context_mgr.obj
 0001:0004d8c0       ??0node@?$set@Uentry@?$map@PEAUCUfunc_st@@PEAUcudaEntryFunction@cudart@@@cudart@@@cudart@@AEAA@IAEBUentry@?$map@PEAUCUfunc_st@@PEAUcudaEntryFunction@cudart@@@2@@Z 000000018004e8c0 f i cudart_static:cudart_cudart_context_mgr.obj
 0001:0004d8e0       ??1?$map@PEAUCUfunc_st@@PEAUcudaEntryFunction@cudart@@@cudart@@QEAA@XZ 000000018004e8e0 f i cudart_static:cudart_cudart_context_mgr.obj
 0001:0004d8f0       ??1?$set@PEAVcontextState@cudart@@@cudart@@QEAA@XZ 000000018004e8f0 f i cudart_static:cudart_cudart_context_mgr.obj
 0001:0004d900       ??1?$set@Uentry@?$map@PEAUCUfunc_st@@PEAUcudaEntryFunction@cudart@@@cudart@@@cudart@@QEAA@XZ 000000018004e900 f i cudart_static:cudart_cudart_context_mgr.obj
 0001:0004d910       ??1contextStateManager@cudart@@AEAA@XZ 000000018004e910 f i cudart_static:cudart_cudart_context_mgr.obj
 0001:0004d940       ??2contextState@cudart@@SAPEAX_KAEBUnothrow_t@1@@Z 000000018004e940 f i cudart_static:cudart_cudart_context_mgr.obj
 0001:0004d950       ??2contextStateManager@cudart@@CAPEAX_KAEBUnothrow_t@1@@Z 000000018004e950 f i cudart_static:cudart_cudart_context_mgr.obj
 0001:0004d960       ??2node@?$set@PEAVcontextState@cudart@@@cudart@@SAPEAX_KAEBUnothrow_t@2@@Z 000000018004e960 f i cudart_static:cudart_cudart_context_mgr.obj
 0001:0004d970       ??2node@?$set@Uentry@?$map@PEAUCUfunc_st@@PEAUcudaEntryFunction@cudart@@@cudart@@@cudart@@SAPEAX_KAEBUnothrow_t@2@@Z 000000018004e970 f i cudart_static:cudart_cudart_context_mgr.obj
 0001:0004d980       ??3contextState@cudart@@SAXPEAX@Z 000000018004e980 f i cudart_static:cudart_cudart_context_mgr.obj
 0001:0004d990       ??3contextStateManager@cudart@@CAXPEAX@Z 000000018004e990 f i cudart_static:cudart_cudart_context_mgr.obj
 0001:0004d9a0       ??3node@?$set@PEAVcontextState@cudart@@@cudart@@SAXPEAX@Z 000000018004e9a0 f i cudart_static:cudart_cudart_context_mgr.obj
 0001:0004d9b0       ??3node@?$set@Uentry@?$map@PEAUCUfunc_st@@PEAUcudaEntryFunction@cudart@@@cudart@@@cudart@@SAXPEAX@Z 000000018004e9b0 f i cudart_static:cudart_cudart_context_mgr.obj
 0001:0004d9c0       ??6cudart@@YAAEAUhash@0@AEAU10@AEBUentry@?$map@PEAUCUfunc_st@@PEAUcudaEntryFunction@cudart@@@0@@Z 000000018004e9c0 f i cudart_static:cudart_cudart_context_mgr.obj
 0001:0004da70       ??9?$base_iterator@$0A@@?$list@UentryFunctionTemp@cudart@@@cudart@@QEBA_NAEBV012@@Z 000000018004ea70 f i cudart_static:cudart_cudart_context_mgr.obj
 0001:0004da80       ??9?$base_iterator@$0A@@?$set@PEAVcontextState@cudart@@@cudart@@QEBA_NAEBV012@@Z 000000018004ea80 f i cudart_static:cudart_cudart_context_mgr.obj
 0001:0004da90       ??9?$base_iterator@$0A@@?$set@Uentry@?$map@PEAUCUfunc_st@@PEAUcudaEntryFunction@cudart@@@cudart@@@cudart@@QEBA_NAEBV012@@Z 000000018004ea90 f i cudart_static:cudart_cudart_context_mgr.obj
 0001:0004daa0       ??9entry@?$map@PEAUCUfunc_st@@PEAUcudaEntryFunction@cudart@@@cudart@@QEBA_NAEBU012@@Z 000000018004eaa0 f i cudart_static:cudart_cudart_context_mgr.obj
 0001:0004dab0       ??C?$base_iterator@$0A@@?$list@UentryFunctionTemp@cudart@@@cudart@@QEBAPEAUentryFunctionTemp@2@XZ 000000018004eab0 f i cudart_static:cudart_cudart_context_mgr.obj
 0001:0004dac0       ??C?$base_iterator@$0A@@?$set@Uentry@?$map@PEAUCUfunc_st@@PEAUcudaEntryFunction@cudart@@@cudart@@@cudart@@QEBAPEAUentry@?$map@PEAUCUfunc_st@@PEAUcudaEntryFunction@cudart@@@2@XZ 000000018004eac0 f i cudart_static:cudart_cudart_context_mgr.obj
 0001:0004dad0       ??D?$base_iterator@$0A@@?$set@PEAVcontextState@cudart@@@cudart@@QEBAAEAPEAVcontextState@2@XZ 000000018004ead0 f i cudart_static:cudart_cudart_context_mgr.obj
 0001:0004dae0       ??E?$base_iterator@$0A@@?$list@UentryFunctionTemp@cudart@@@cudart@@QEAAAEAV012@H@Z 000000018004eae0 f i cudart_static:cudart_cudart_context_mgr.obj
 0001:0004daf0       ??E?$base_iterator@$0A@@?$set@PEAUglobalModule@cudart@@@cudart@@QEAA?AV012@H@Z 000000018004eaf0 f i cudart_static:cudart_cudart_context_mgr.obj
 0001:0004db30       ??E?$base_iterator@$0A@@?$set@PEAUmodule@cudart@@@cudart@@QEAA?AV012@H@Z 000000018004eb30 f i cudart_static:cudart_cudart_context_mgr.obj
 0001:0004db70       ??E?$base_iterator@$0A@@?$set@PEAVcontextState@cudart@@@cudart@@QEAAAEAV012@XZ 000000018004eb70 f i cudart_static:cudart_cudart_context_mgr.obj
 0001:0004dba0       ??E?$base_iterator@$0A@@?$set@Uentry@?$map@PEAUglobalModule@cudart@@PEAUmodule@2@@cudart@@@cudart@@QEAA?AV012@H@Z 000000018004eba0 f i cudart_static:cudart_cudart_context_mgr.obj
 0001:0004dbe0       ??_GcontextState@cudart@@QEAAPEAXI@Z 000000018004ebe0 f i cudart_static:cudart_cudart_context_mgr.obj
 0001:0004dc30       ??_GcontextStateManager@cudart@@AEAAPEAXI@Z 000000018004ec30 f i cudart_static:cudart_cudart_context_mgr.obj
 0001:0004dca0       ?addToReverseFuncMapping@contextStateManager@cudart@@QEAA?AW4cudaError@@PEAUCUfunc_st@@PEAUcudaEntryFunction@2@@Z 000000018004eca0 f   cudart_static:cudart_cudart_context_mgr.obj
 0001:0004dd20       ?begin@?$list@UentryFunctionTemp@cudart@@@cudart@@QEAA?AV?$base_iterator@$0A@@12@XZ 000000018004ed20 f i cudart_static:cudart_cudart_context_mgr.obj
 0001:0004dd30       ?begin@?$set@PEAVcontextState@cudart@@@cudart@@QEAA?AV?$base_iterator@$0A@@12@XZ 000000018004ed30 f i cudart_static:cudart_cudart_context_mgr.obj
 0001:0004dd80       ?clear@?$set@PEAVcontextState@cudart@@@cudart@@QEAAXXZ 000000018004ed80 f i cudart_static:cudart_cudart_context_mgr.obj
 0001:0004de00       ?clear@?$set@Uentry@?$map@PEAUCUfunc_st@@PEAUcudaEntryFunction@cudart@@@cudart@@@cudart@@QEAAXXZ 000000018004ee00 f i cudart_static:cudart_cudart_context_mgr.obj
 0001:0004ded0       ?create@contextStateManager@cudart@@SA?AW4cudaError@@PEAPEAV12@PEAVglobalState@2@PEAVdeviceMgr@2@@Z 000000018004eed0 f   cudart_static:cudart_cudart_context_mgr.obj
 0001:0004dfa0       ?destroy@contextStateManager@cudart@@SAXPEAV12@@Z 000000018004efa0 f   cudart_static:cudart_cudart_context_mgr.obj
 0001:0004dfe0       ?destroyAllContextStatesOnRuntimeUnload@contextStateManager@cudart@@QEAA?AW4cudaError@@XZ 000000018004efe0 f   cudart_static:cudart_cudart_context_mgr.obj
 0001:0004e120       ?destroyContextState@contextStateManager@cudart@@AEAA?AW4cudaError@@PEAVcontextState@2@_N@Z 000000018004f120 f   cudart_static:cudart_cudart_context_mgr.obj
 0001:0004e1d0       ?destroyContextStateFromDriverContextDestroyCallback@contextStateManager@cudart@@QEAA?AW4cudaError@@PEAVcontextState@2@@Z 000000018004f1d0 f   cudart_static:cudart_cudart_context_mgr.obj
 0001:0004e260       ?destroyCurrentThreadContextState@contextStateManager@cudart@@QEAA?AW4cudaError@@XZ 000000018004f260 f   cudart_static:cudart_cudart_context_mgr.obj
 0001:0004e2b0       ?end@?$list@UentryFunctionTemp@cudart@@@cudart@@QEAA?AV?$base_iterator@$0A@@12@XZ 000000018004f2b0 f i cudart_static:cudart_cudart_context_mgr.obj
 0001:0004e2c0       ?end@?$map@PEAUCUfunc_st@@PEAUcudaEntryFunction@cudart@@@cudart@@QEAA?AV?$base_iterator@$0A@@?$set@Uentry@?$map@PEAUCUfunc_st@@PEAUcudaEntryFunction@cudart@@@cudart@@@2@XZ 000000018004f2c0 f i cudart_static:cudart_cudart_context_mgr.obj
 0001:0004e2e0       ?end@?$set@PEAVcontextState@cudart@@@cudart@@QEAA?AV?$base_iterator@$0A@@12@XZ 000000018004f2e0 f i cudart_static:cudart_cudart_context_mgr.obj
 0001:0004e300       ?end@?$set@Uentry@?$map@PEAUCUfunc_st@@PEAUcudaEntryFunction@cudart@@@cudart@@@cudart@@QEAA?AV?$base_iterator@$0A@@12@XZ 000000018004f300 f i cudart_static:cudart_cudart_context_mgr.obj
 0001:0004e320       ?getLazyInitPrimaryContext@contextStateManager@cudart@@QEAA?AW4cudaError@@PEAPEAUCUctx_st@@PEAUdevice@2@@Z 000000018004f320 f   cudart_static:cudart_cudart_context_mgr.obj
 0001:0004e350       ?getRuntimeContextState@contextStateManager@cudart@@QEAA?AW4cudaError@@PEAPEAVcontextState@2@PEAUCUctx_st@@@Z 000000018004f350 f   cudart_static:cudart_cudart_context_mgr.obj
 0001:0004e470       ?getRuntimeContextState@contextStateManager@cudart@@QEAA?AW4cudaError@@PEAPEAVcontextState@2@_N@Z 000000018004f470 f   cudart_static:cudart_cudart_context_mgr.obj
 0001:0004e540       ?getSymbolFromDriverEntryFunction@contextStateManager@cudart@@QEAA?AW4cudaError@@PEAPEAXPEAUCUfunc_st@@@Z 000000018004f540 f   cudart_static:cudart_cudart_context_mgr.obj
 0001:0004e5c0       ?get_size@?$set@PEAVcontextState@cudart@@@cudart@@CA_KIPEA_K@Z 000000018004f5c0 f i cudart_static:cudart_cudart_context_mgr.obj
 0001:0004e5e0       ?get_size@?$set@Uentry@?$map@PEAUCUfunc_st@@PEAUcudaEntryFunction@cudart@@@cudart@@@cudart@@CA_KIPEA_K@Z 000000018004f5e0 f i cudart_static:cudart_cudart_context_mgr.obj
 0001:0004e600       ?initDriverContext@contextStateManager@cudart@@AEAA?AW4cudaError@@XZ 000000018004f600 f   cudart_static:cudart_cudart_context_mgr.obj
 0001:0004e790       ?initPrimaryContext@contextStateManager@cudart@@AEAA?AW4cudaError@@PEAUdevice@2@@Z 000000018004f790 f   cudart_static:cudart_cudart_context_mgr.obj
 0001:0004e880       ?initRuntimeContextState_nonreentrant@contextStateManager@cudart@@AEAA?AW4cudaError@@PEAPEAVcontextState@2@@Z 000000018004f880 f   cudart_static:cudart_cudart_context_mgr.obj
 0001:0004eb80       ?insert@?$map@PEAUCUfunc_st@@PEAUcudaEntryFunction@cudart@@@cudart@@QEAA?AW4cudaError@@AEBUentry@12@@Z 000000018004fb80 f i cudart_static:cudart_cudart_context_mgr.obj
 0001:0004ec40       ?insert@?$set@PEAVcontextState@cudart@@@cudart@@QEAA?AW4cudaError@@AEBQEAVcontextState@2@PEA_N@Z 000000018004fc40 f i cudart_static:cudart_cudart_context_mgr.obj
 0001:0004ed10       ?insert@?$set@Uentry@?$map@PEAUCUfunc_st@@PEAUcudaEntryFunction@cudart@@@cudart@@@cudart@@QEAA?AW4cudaError@@AEBUentry@?$map@PEAUCUfunc_st@@PEAUcudaEntryFunction@cudart@@@2@PEA_N@Z 000000018004fd10 f i cudart_static:cudart_cudart_context_mgr.obj
 0001:0004edf0       ?isPrimaryCtxInitialized@contextStateManager@cudart@@QEAA_NPEAUdevice@2@@Z 000000018004fdf0 f   cudart_static:cudart_cudart_context_mgr.obj
 0001:0004ee20       ?notifyContextManagerOfModuleLoad@contextStateManager@cudart@@QEAA?AW4cudaError@@PEAVcontextState@2@AEAV?$set@PEAUglobalModule@cudart@@@2@@Z 000000018004fe20 f   cudart_static:cudart_cudart_context_mgr.obj
 0001:0004f150       ?notifyContextManagerOfModuleUnload@contextStateManager@cudart@@QEAA?AW4cudaError@@PEAVcontextState@2@AEAV?$map@PEAUglobalModule@cudart@@PEAUmodule@2@@2@@Z 0000000180050150 f   cudart_static:cudart_cudart_context_mgr.obj
 0001:0004f2e0       ?notifyContextManagerOfModuleUnload@contextStateManager@cudart@@QEAA?AW4cudaError@@PEAVcontextState@2@AEAV?$set@PEAUmodule@cudart@@@2@@Z 00000001800502e0 f   cudart_static:cudart_cudart_context_mgr.obj
 0001:0004f470       ?notifyContextStatesOfModuleLoad@contextStateManager@cudart@@QEAA?AW4cudaError@@PEAUglobalModule@2@@Z 0000000180050470 f   cudart_static:cudart_cudart_context_mgr.obj
 0001:0004f500       ?notifyContextStatesOfModuleUnload@contextStateManager@cudart@@QEAA?AW4cudaError@@PEAUglobalModule@2@@Z 0000000180050500 f   cudart_static:cudart_cudart_context_mgr.obj
 0001:0004f590       ?rehash@?$set@PEAVcontextState@cudart@@@cudart@@AEAAX_K@Z 0000000180050590 f i cudart_static:cudart_cudart_context_mgr.obj
 0001:0004f650       ?rehash@?$set@Uentry@?$map@PEAUCUfunc_st@@PEAUcudaEntryFunction@cudart@@@cudart@@@cudart@@AEAAX_K@Z 0000000180050650 f i cudart_static:cudart_cudart_context_mgr.obj
 0001:0004f710       ?tryInitPrimaryContext@contextStateManager@cudart@@AEAA?AW4cudaError@@PEAUdevice@2@@Z 0000000180050710 f   cudart_static:cudart_cudart_context_mgr.obj
 0001:0004f760       ??0?$base_iterator@$00@?$set@PEAUglobalModule@cudart@@@cudart@@QEAA@AEBV?$base_iterator@$0A@@12@@Z 0000000180050760 f i cudart_static:cudart_cudart_global.obj
 0001:0004f780       ??0?$base_iterator@$0A@@?$list@UentryFunctionTemp@cudart@@@cudart@@QEAA@AEBV012@@Z 0000000180050780 f i cudart_static:cudart_cudart_global.obj
 0001:0004f790       ??0?$base_iterator@$0A@@?$list@UvariableTemp@cudart@@@cudart@@QEAA@AEBV012@@Z 0000000180050790 f i cudart_static:cudart_cudart_global.obj
 0001:0004f7a0       ??0?$base_iterator@$0A@@?$list@UvariableTemp@cudart@@@cudart@@QEAA@PEAVnode@12@@Z 00000001800507a0 f i cudart_static:cudart_cudart_global.obj
 0001:0004f7b0       ??0?$list@UentryFunctionTemp@cudart@@@cudart@@QEAA@XZ 00000001800507b0 f i cudart_static:cudart_cudart_global.obj
 0001:0004f7c0       ??0?$list@UvariableTemp@cudart@@@cudart@@QEAA@XZ 00000001800507c0 f i cudart_static:cudart_cudart_global.obj
 0001:0004f7d0       ??0GlobalStateRef@cudart@@QEAA@XZ 00000001800507d0 f   cudart_static:cudart_cudart_global.obj
 0001:0004f7e0       ??0device@cudart@@QEAA@XZ  00000001800507e0 f i cudart_static:cudart_cudart_global.obj
 0001:0004f820       ??0deviceMgr@cudart@@QEAA@XZ 0000000180050820 f i cudart_static:cudart_cudart_global.obj
 0001:0004f8c0       ??0devicePrimaryContextLock@cudart@@QEAA@PEAUdevice@1@@Z 00000001800508c0 f i cudart_static:cudart_cudart_global.obj
 0001:0004f8e0       ??0entryFunctionTemp@cudart@@QEAA@PEBXPEADPEBDHPEAUuint3@@3PEAUdim3@@4PEAH@Z 00000001800508e0 f i cudart_static:cudart_cudart_global.obj
 0001:0004f930       ??0globalModule@cudart@@QEAA@PEAX@Z 0000000180050930 f   cudart_static:cudart_cudart_global.obj
 0001:0004f970       ??0globalState@cudart@@QEAA@XZ 0000000180050970 f   cudart_static:cudart_cudart_global.obj
 0001:0004fa00       ??0globalStateAutoLock@cudart@@QEAA@XZ 0000000180050a00 f   cudart_static:cudart_cudart_global.obj
 0001:0004fa20       ??0globalStateHandle@cudart@@QEAA@XZ 0000000180050a20 f i cudart_static:cudart_cudart_global.obj
 0001:0004fa50       ??0node@?$list@UentryFunctionTemp@cudart@@@cudart@@AEAA@AEBUentryFunctionTemp@2@PEAV012@1@Z 0000000180050a50 f i cudart_static:cudart_cudart_global.obj
 0001:0004fa90       ??0node@?$list@UvariableTemp@cudart@@@cudart@@AEAA@AEBUvariableTemp@2@PEAV012@1@Z 0000000180050a90 f i cudart_static:cudart_cudart_global.obj
 0001:0004fac0       ??0variableTemp@cudart@@QEAA@PEAXPEAPEAXPEADPEBD_N_K4444@Z 0000000180050ac0 f i cudart_static:cudart_cudart_global.obj
 0001:0004fb10       ??1?$list@UentryFunctionTemp@cudart@@@cudart@@QEAA@XZ 0000000180050b10 f i cudart_static:cudart_cudart_global.obj
 0001:0004fb40       ??1?$list@UvariableTemp@cudart@@@cudart@@QEAA@XZ 0000000180050b40 f i cudart_static:cudart_cudart_global.obj
 0001:0004fb70       ??1GlobalStateRef@cudart@@QEAA@XZ 0000000180050b70 f   cudart_static:cudart_cudart_global.obj
 0001:0004fbd0       ??1device@cudart@@QEAA@XZ  0000000180050bd0 f i cudart_static:cudart_cudart_global.obj
 0001:0004fc20       ??1deviceMgr@cudart@@QEAA@XZ 0000000180050c20 f i cudart_static:cudart_cudart_global.obj
 0001:0004fca0       ??1devicePrimaryContextLock@cudart@@QEAA@XZ 0000000180050ca0 f i cudart_static:cudart_cudart_global.obj
 0001:0004fcb0       ??1globalModule@cudart@@QEAA@XZ 0000000180050cb0 f i cudart_static:cudart_cudart_global.obj
 0001:0004fd00       ??1globalState@cudart@@QEAA@XZ 0000000180050d00 f   cudart_static:cudart_cudart_global.obj
 0001:00050120       ??1globalStateAutoLock@cudart@@QEAA@XZ 0000000180051120 f   cudart_static:cudart_cudart_global.obj
 0001:00050130       ??1globalStateHandle@cudart@@QEAA@XZ 0000000180051130 f i cudart_static:cudart_cudart_global.obj
 0001:00050190       ??2device@cudart@@SAPEAX_KAEBUnothrow_t@1@@Z 0000000180051190 f i cudart_static:cudart_cudart_global.obj
 0001:000501a0       ??2deviceMgr@cudart@@SAPEAX_KAEBUnothrow_t@1@@Z 00000001800511a0 f i cudart_static:cudart_cudart_global.obj
 0001:000501b0       ??2globalModule@cudart@@SAPEAX_KAEBUnothrow_t@1@@Z 00000001800511b0 f i cudart_static:cudart_cudart_global.obj
 0001:000501c0       ??2globalState@cudart@@SAPEAX_KAEBUnothrow_t@1@@Z 00000001800511c0 f i cudart_static:cudart_cudart_global.obj
 0001:000501d0       ??2node@?$list@UentryFunctionTemp@cudart@@@cudart@@SAPEAX_KAEBUnothrow_t@2@@Z 00000001800511d0 f i cudart_static:cudart_cudart_global.obj
 0001:000501e0       ??2node@?$list@UvariableTemp@cudart@@@cudart@@SAPEAX_KAEBUnothrow_t@2@@Z 00000001800511e0 f i cudart_static:cudart_cudart_global.obj
 0001:000501f0       ??3device@cudart@@SAXPEAX@Z 00000001800511f0 f i cudart_static:cudart_cudart_global.obj
 0001:00050200       ??3deviceMgr@cudart@@SAXPEAX@Z 0000000180051200 f i cudart_static:cudart_cudart_global.obj
 0001:00050210       ??3globalModule@cudart@@SAXPEAX@Z 0000000180051210 f i cudart_static:cudart_cudart_global.obj
 0001:00050220       ??3globalState@cudart@@SAXPEAX@Z 0000000180051220 f i cudart_static:cudart_cudart_global.obj
 0001:00050230       ??3node@?$list@UentryFunctionTemp@cudart@@@cudart@@SAXPEAX@Z 0000000180051230 f i cudart_static:cudart_cudart_global.obj
 0001:00050240       ??3node@?$list@UvariableTemp@cudart@@@cudart@@SAXPEAX@Z 0000000180051240 f i cudart_static:cudart_cudart_global.obj
 0001:00050250       ??9?$base_iterator@$00@?$set@PEAUglobalModule@cudart@@@cudart@@QEBA_NAEBV012@@Z 0000000180051250 f i cudart_static:cudart_cudart_global.obj
 0001:00050260       ??9?$base_iterator@$0A@@?$list@UvariableTemp@cudart@@@cudart@@QEBA_NAEBV012@@Z 0000000180051260 f i cudart_static:cudart_cudart_global.obj
 0001:00050270       ??C?$base_iterator@$0A@@?$list@UvariableTemp@cudart@@@cudart@@QEBAPEAUvariableTemp@2@XZ 0000000180051270 f i cudart_static:cudart_cudart_global.obj
 0001:00050280       ??D?$base_iterator@$00@?$set@PEAUglobalModule@cudart@@@cudart@@QEBAAEBQEAUglobalModule@2@XZ 0000000180051280 f i cudart_static:cudart_cudart_global.obj
 0001:00050290       ??D?$base_iterator@$0A@@?$list@UentryFunctionTemp@cudart@@@cudart@@QEBAAEAUentryFunctionTemp@2@XZ 0000000180051290 f i cudart_static:cudart_cudart_global.obj
 0001:000502a0       ??D?$base_iterator@$0A@@?$list@UvariableTemp@cudart@@@cudart@@QEBAAEAUvariableTemp@2@XZ 00000001800512a0 f i cudart_static:cudart_cudart_global.obj
 0001:000502b0       ??E?$base_iterator@$00@?$set@PEAUglobalModule@cudart@@@cudart@@QEAAAEAV012@XZ 00000001800512b0 f i cudart_static:cudart_cudart_global.obj
 0001:000502e0       ??E?$base_iterator@$0A@@?$list@UentryFunctionTemp@cudart@@@cudart@@QEAA?AV012@XZ 00000001800512e0 f i cudart_static:cudart_cudart_global.obj
 0001:00050300       ??E?$base_iterator@$0A@@?$list@UvariableTemp@cudart@@@cudart@@QEAA?AV012@XZ 0000000180051300 f i cudart_static:cudart_cudart_global.obj
 0001:00050320       ??_Gdevice@cudart@@QEAAPEAXI@Z 0000000180051320 f i cudart_static:cudart_cudart_global.obj
 0001:000503b0       ??_GdeviceMgr@cudart@@QEAAPEAXI@Z 00000001800513b0 f i cudart_static:cudart_cudart_global.obj
 0001:00050400       ??_GglobalModule@cudart@@QEAAPEAXI@Z 0000000180051400 f i cudart_static:cudart_cudart_global.obj
 0001:00050490       ??_GglobalState@cudart@@QEAAPEAXI@Z 0000000180051490 f i cudart_static:cudart_cudart_global.obj
 0001:000504e0       ?_InterlockedCompareExchange@@YAIPECIII@Z 00000001800514e0 f i cudart_static:cudart_cudart_global.obj
 0001:000504f0       ?__initializeDriverInternalUtil@cudart@@YAXXZ 00000001800514f0 f   cudart_static:cudart_cudart_global.obj
 0001:00052440       ?applyModuleChanges@globalState@cudart@@QEAA?AW4cudaError@@XZ 0000000180053440 f   cudart_static:cudart_cudart_global.obj
 0001:000526b0       ?begin@?$list@UvariableTemp@cudart@@@cudart@@QEAA?AV?$base_iterator@$0A@@12@XZ 00000001800536b0 f i cudart_static:cudart_cudart_global.obj
 0001:00052a80       ?chooseDevice@deviceMgr@cudart@@QEAAPEAUdevice@2@PEBUcudaDeviceProp@@@Z 0000000180053a80 f   cudart_static:cudart_cudart_global.obj
 0001:00052c50       ?cudaDlsym@globalState@cudart@@QEAAPEAXPEBD@Z 0000000180053c50 f i cudart_static:cudart_cudart_global.obj
 0001:00052ca0       ?destroyModule@globalState@cudart@@AEAA?AW4cudaError@@PEAUglobalModule@2@@Z 0000000180053ca0 f   cudart_static:cudart_cudart_global.obj
 0001:00052e70       ?end@?$list@UvariableTemp@cudart@@@cudart@@QEAA?AV?$base_iterator@$0A@@12@XZ 0000000180053e70 f i cudart_static:cudart_cudart_global.obj
 0001:00052e80       ?enumerateDevices@deviceMgr@cudart@@QEAA?AW4cudaError@@XZ 0000000180053e80 f   cudart_static:cudart_cudart_global.obj
 0001:00053c90       ?getCurrentContextState@globalState@cudart@@QEAAPEAVcontextState@2@XZ 0000000180054c90 f   cudart_static:cudart_cudart_global.obj
 0001:00053cd0       ?getDefaultDeviceProperties@deviceMgr@cudart@@QEAA?AUcudaDeviceProp@@XZ 0000000180054cd0 f   cudart_static:cudart_cudart_global.obj
 0001:00053d10       ?getDevice@deviceMgr@cudart@@QEAA?AW4cudaError@@PEAPEAUdevice@2@H@Z 0000000180054d10 f   cudart_static:cudart_cudart_global.obj
 0001:00053d30       ?getDeviceFromDriver@deviceMgr@cudart@@QEAA?AW4cudaError@@PEAPEAUdevice@2@H@Z 0000000180054d30 f   cudart_static:cudart_cudart_global.obj
 0001:00053d80       ?getDeviceFromPrimaryCtx@deviceMgr@cudart@@QEAAPEAUdevice@2@PEAUCUctx_st@@@Z 0000000180054d80 f   cudart_static:cudart_cudart_global.obj
 0001:00053dc0       ?getGlobalState@cudart@@YAPEAVglobalState@1@XZ 0000000180054dc0 f   cudart_static:cudart_cudart_global.obj
 0001:00053df0       ?getModuleByEntryFunction@globalState@cudart@@QEAAPEAUglobalModule@2@PEBX@Z 0000000180054df0 f   cudart_static:cudart_cudart_global.obj
 0001:00053e60       ?getModuleByVariable@globalState@cudart@@QEAAPEAUglobalModule@2@PEBX@Z 0000000180054e60 f   cudart_static:cudart_cudart_global.obj
 0001:00053f40       ?initializeDriver@globalState@cudart@@QEAA?AW4cudaError@@XZ 0000000180054f40 f   cudart_static:cudart_cudart_global.obj
 0001:00053f80       ?initializeDriverEntrypoints@globalState@cudart@@AEAAXXZ 0000000180054f80 f   cudart_static:cudart_cudart_global.obj
 0001:00060070       ?initializeDriverInternal@globalState@cudart@@AEAA?AW4cudaError@@XZ 0000000180061070 f   cudart_static:cudart_cudart_global.obj
 0001:000601c0       ?loadDriverInternal@globalState@cudart@@AEAA?AW4cudaError@@XZ 00000001800611c0 f   cudart_static:cudart_cudart_global.obj
 0001:000604c0       ?loadIntoContext@globalModule@cudart@@QEAA?AW4cudaError@@PEAVcontextState@2@@Z 00000001800614c0 f   cudart_static:cudart_cudart_global.obj
 0001:000605a0       ?loadIntoRuntime@globalModule@cudart@@QEAA?AW4cudaError@@XZ 00000001800615a0 f   cudart_static:cudart_cudart_global.obj
 0001:00060610       ?loadLibrary@globalModule@cudart@@QEAA?AW4cudaError@@PEAPEAUCUlib_st@@@Z 0000000180061610 f   cudart_static:cudart_cudart_global.obj
 0001:00060670       ?loadLibraryOnce@cudart@@YAHPEAX@Z 0000000180061670 f   cudart_static:cudart_cudart_global.obj
 0001:00060840       ?push_back@?$list@UentryFunctionTemp@cudart@@@cudart@@QEAA?AW4cudaError@@AEBUentryFunctionTemp@2@@Z 0000000180061840 f i cudart_static:cudart_cudart_global.obj
 0001:000608e0       ?push_back@?$list@UvariableTemp@cudart@@@cudart@@QEAA?AW4cudaError@@AEBUvariableTemp@2@@Z 00000001800618e0 f i cudart_static:cudart_cudart_global.obj
 0001:00060980       ?registerEntryFunction@globalState@cudart@@QEAAXPEAUglobalModule@2@PEBDPEAD1HPEAUuint3@@3PEAUdim3@@4PEAH@Z 0000000180061980 f   cudart_static:cudart_cudart_global.obj
 0001:00060aa0       ?registerFatBinary@globalState@cudart@@QEAAXPEAPEAUglobalModule@2@PEAX@Z 0000000180061aa0 f   cudart_static:cudart_cudart_global.obj
 0001:00060b30       ?registerFatBinaryEnd@globalState@cudart@@QEAAXPEAUglobalModule@2@@Z 0000000180061b30 f   cudart_static:cudart_cudart_global.obj
 0001:00060c80       ?registerHostVar@globalState@cudart@@QEAAXPEAUglobalModule@2@PEBDPEAX_K@Z 0000000180061c80 f   cudart_static:cudart_cudart_global.obj
 0001:00060d60       ?registerManagedVar@globalState@cudart@@QEAAXPEAUglobalModule@2@PEAPEAXPEADPEBD_N_K44@Z 0000000180061d60 f   cudart_static:cudart_cudart_global.obj
 0001:00060e70       ?registerUnifiedTable@globalState@cudart@@QEAAXPEAUglobalModule@2@PEAX_K12@Z 0000000180061e70 f   cudart_static:cudart_cudart_global.obj
 0001:00060eb0       ?registerVar@globalState@cudart@@QEAAXPEAUglobalModule@2@PEAD1PEBD_N_K33@Z 0000000180061eb0 f   cudart_static:cudart_cudart_global.obj
 0001:00061010       ?resetPrimaryContext@device@cudart@@QEAA?AW4cudaError@@XZ 0000000180062010 f   cudart_static:cudart_cudart_global.obj
 0001:00061090       ?tryRetain@GlobalStateRef@cudart@@QEAA_NXZ 0000000180062090 f   cudart_static:cudart_cudart_global.obj
 0001:00061140       ?unloadFromRuntime@globalModule@cudart@@QEAA?AW4cudaError@@XZ 0000000180062140 f   cudart_static:cudart_cudart_global.obj
 0001:000611b0       ?unregisterFatBinary@globalState@cudart@@QEAAXPEAUglobalModule@2@@Z 00000001800621b0 f   cudart_static:cudart_cudart_global.obj
 0001:00061200       ?updateDeviceProperties@device@cudart@@QEAA?AW4cudaError@@XZ 0000000180062200 f   cudart_static:cudart_cudart_global.obj
 0001:000612b0       ??2configData@cudart@@SAPEAX_KAEBUnothrow_t@1@@Z 00000001800622b0 f i cudart_static:cudart_cudart_thread.obj
 0001:000612c0       ??3configData@cudart@@SAXPEAX@Z 00000001800622c0 f i cudart_static:cudart_cudart_thread.obj
 0001:000612e0       ?doLazyInitContextState@cudart@@YA?AW4cudaError@@XZ 00000001800622e0 f   cudart_static:cudart_cudart_thread.obj
 0001:00061310       ?getDeviceToTry@threadState@cudart@@QEAA?AW4cudaError@@PEAPEAUdevice@2@H@Z 0000000180062310 f   cudart_static:cudart_cudart_thread.obj
 0001:000613c0       ?getLastError@threadState@cudart@@QEAA?AW4cudaError@@XZ 00000001800623c0 f   cudart_static:cudart_cudart_thread.obj
 0001:000613e0       ?getLazyInitContextState@cudart@@YA?AW4cudaError@@PEAPEAVcontextState@1@@Z 00000001800623e0 f   cudart_static:cudart_cudart_thread.obj
 0001:00061410       ?getNumDevicesToTry@threadState@cudart@@QEAA?AW4cudaError@@PEAH@Z 0000000180062410 f   cudart_static:cudart_cudart_thread.obj
 0001:000614a0       ?initialize@threadState@cudart@@QEAAXXZ 00000001800624a0 f   cudart_static:cudart_cudart_thread.obj
 0001:000614f0       ?peekAtLastError@threadState@cudart@@QEAA?AW4cudaError@@XZ 00000001800624f0 f   cudart_static:cudart_cudart_thread.obj
 0001:00061500       ?popConfigForLaunch@threadLaunchState@cudart@@QEAA?AW4cudaError@@AEAUconfigData@2@@Z 0000000180062500 f   cudart_static:cudart_cudart_thread.obj
 0001:000615a0       ?pushConfig@threadLaunchState@cudart@@QEAA?AW4cudaError@@Udim3@@0_KPEAUCUstream_st@@@Z 00000001800625a0 f   cudart_static:cudart_cudart_thread.obj
 0001:000616b0       ?setLastError@threadState@cudart@@QEAAXW4cudaError@@@Z 00000001800626b0 f   cudart_static:cudart_cudart_thread.obj
 0001:000616c0       ?setValidDevices@threadState@cudart@@QEAA?AW4cudaError@@PEAHH@Z 00000001800626c0 f   cudart_static:cudart_cudart_thread.obj
 0001:00061810       ?getThreadState@cudart@@YA?AW4cudaError@@PEAPEAUthreadState@1@@Z 0000000180062810 f   cudart_static:cudart_cudart_tls.obj
 0001:00061860       ?isInitialized@threadState@cudart@@QEAA_NXZ 0000000180062860 f i cudart_static:cudart_cudart_tls.obj
 0001:000618b0       ??0cudaArrayLocalState@arrayHelper@cudart@@QEAA@XZ 00000001800628b0 f i cudart_static:cudart_cudart_array.obj
 0001:000618e0       ?bytesPerElement@arrayHelper@cudart@@YA?AW4cudaError@@PEA_KHW4CUarray_format_enum@@@Z 00000001800628e0 f   cudart_static:cudart_cudart_array.obj
 0001:00061a60       ?copyFromDevice2D@arrayHelper@cudart@@YA?AW4cudaError@@W4CUmemorytype_enum@@PEBUcudaArray@@_K2PEBD2222PEAUCUstream_st@@_N5@Z 0000000180062a60 f   cudart_static:cudart_cudart_array.obj
 0001:00061c20       ?copyFromDevice@arrayHelper@cudart@@YA?AW4cudaError@@W4CUmemorytype_enum@@PEBUcudaArray@@_K2PEBD22PEAUCUstream_st@@_N5@Z 0000000180062c20 f   cudart_static:cudart_cudart_array.obj
 0001:00061f00       ?copyFromHost2D@arrayHelper@cudart@@YA?AW4cudaError@@PEBUcudaArray@@_K1PEBD111PEAUCUstream_st@@_N4@Z 0000000180062f00 f   cudart_static:cudart_cudart_array.obj
 0001:000620c0       ?copyFromHost@arrayHelper@cudart@@YA?AW4cudaError@@PEBUcudaArray@@_K1PEBD1PEAUCUstream_st@@_N4@Z 00000001800630c0 f   cudart_static:cudart_cudart_array.obj
 0001:00062390       ?copyToArray2D@arrayHelper@cudart@@YA?AW4cudaError@@PEBUcudaArray@@_K1PEAU4@1111_N@Z 0000000180063390 f   cudart_static:cudart_cudart_array.obj
 0001:00062540       ?copyToArray@arrayHelper@cudart@@YA?AW4cudaError@@PEBUcudaArray@@_K1PEAU4@111_N@Z 0000000180063540 f   cudart_static:cudart_cudart_array.obj
 0001:00062630       ?copyToDevice2D@arrayHelper@cudart@@YA?AW4cudaError@@W4CUmemorytype_enum@@PEBUcudaArray@@_K2PEAD2222PEAUCUstream_st@@_N5@Z 0000000180063630 f   cudart_static:cudart_cudart_array.obj
 0001:000627f0       ?copyToDevice@arrayHelper@cudart@@YA?AW4cudaError@@W4CUmemorytype_enum@@PEBUcudaArray@@_K2PEAD22PEAUCUstream_st@@_N5@Z 00000001800637f0 f   cudart_static:cudart_cudart_array.obj
 0001:00062ad0       ?copyToHost2D@arrayHelper@cudart@@YA?AW4cudaError@@PEBUcudaArray@@_K1PEAD111PEAUCUstream_st@@_N4@Z 0000000180063ad0 f   cudart_static:cudart_cudart_array.obj
 0001:00062c90       ?copyToHost@arrayHelper@cudart@@YA?AW4cudaError@@PEBUcudaArray@@_K1PEAD1PEAUCUstream_st@@_N4@Z 0000000180063c90 f   cudart_static:cudart_cudart_array.obj
 0001:00062f60       ?getArrayBlockExtent@arrayHelper@cudart@@YA?AW4cudaError@@PEAUcudaExtent@@W4CUarray_format_enum@@@Z 0000000180063f60 f   cudart_static:cudart_cudart_array.obj
 0001:000630a0       ?getChannelDesc@arrayHelper@cudart@@YA?AW4cudaError@@PEBUcudaArray@@PEAUcudaChannelFormatDesc@@@Z 00000001800640a0 f   cudart_static:cudart_cudart_array.obj
 0001:00063100       ?getChannelFormatDescFromDriverDesc@arrayHelper@cudart@@YA?AW4cudaError@@PEAUcudaChannelFormatDesc@@PEA_K11PEBUCUDA_ARRAY3D_DESCRIPTOR_st@@@Z 0000000180064100 f   cudart_static:cudart_cudart_array.obj
 0001:000634f0       ?getDescInfo@arrayHelper@cudart@@YA?AW4cudaError@@PEBUcudaChannelFormatDesc@@AEAHAEAW4CUarray_format_enum@@@Z 00000001800644f0 f   cudart_static:cudart_cudart_array.obj
 0001:00063bd0       ?getDriverArray@arrayHelper@cudart@@YAPEAUCUarray_st@@PEAUcudaArray@@@Z 0000000180064bd0 f   cudart_static:cudart_cudart_array.obj
 0001:00063be0       ?getElementSize@arrayHelper@cudart@@YA?AW4cudaError@@PEA_KPEAUcudaArray@@@Z 0000000180064be0 f   cudart_static:cudart_cudart_array.obj
 0001:00063c30       ?getFormat@arrayHelper@cudart@@YA?AW4cudaError@@PEBUcudaArray@@AEAHAEAW4CUarray_format_enum@@@Z 0000000180064c30 f   cudart_static:cudart_cudart_array.obj
 0001:00063ca0       ?getFormat@arrayHelper@cudart@@YA?AW4cudaError@@PEBUcudaMipmappedArray@@AEAHAEAW4CUarray_format_enum@@@Z 0000000180064ca0 f   cudart_static:cudart_cudart_array.obj
 0001:00063e90       ?memCopy3DInit@cudart@@YA?AUCUDA_MEMCPY3D_st@@W4CUmemorytype_enum@@0@Z 0000000180064e90 f i cudart_static:cudart_cudart_array.obj
 0001:00063f10       ?driverMemcpy3D@driverHelper@cudart@@YA?AW4cudaError@@PEAUCUDA_MEMCPY3D_st@@PEAUCUstream_st@@_N2@Z 0000000180064f10 f   cudart_static:cudart_cudart_helper.obj
 0001:00063f70       ?driverMemcpy3DPeer@driverHelper@cudart@@YA?AW4cudaError@@PEAUCUDA_MEMCPY3D_PEER_st@@PEAUCUstream_st@@_N2@Z 0000000180064f70 f   cudart_static:cudart_cudart_helper.obj
 0001:00063fd0       ?freeHost@driverHelper@cudart@@YA?AW4cudaError@@PEAX@Z 0000000180064fd0 f   cudart_static:cudart_cudart_helper.obj
 0001:00063ff0       ?getCurrentContext@driverHelper@cudart@@YA?AW4cudaError@@PEAPEAUCUctx_st@@@Z 0000000180064ff0 f   cudart_static:cudart_cudart_helper.obj
 0001:00064010       ?getDefaultDeviceD3D@driverHelper@cudart@@YA?AW4cudaError@@PEAPEAUdevice@2@PEAUIUnknown@@HH@Z 0000000180065010 f   cudart_static:cudart_cudart_helper.obj
 0001:00064160       ?getDriverResDescFromResDesc@driverHelper@cudart@@YA?AW4cudaError@@PEAUCUDA_RESOURCE_DESC_st@@PEBUcudaResourceDesc@@PEAUCUDA_TEXTURE_DESC_st@@PEBUcudaTextureDesc@@PEAUCUDA_RESOURCE_VIEW_DESC_st@@PEBUcudaResourceViewDesc@@@Z 0000000180065160 f   cudart_static:cudart_cudart_helper.obj
 0001:00064510       ?getResDescFromDriverResDesc@driverHelper@cudart@@YA?AW4cudaError@@PEAUcudaResourceDesc@@PEBUCUDA_RESOURCE_DESC_st@@PEAUcudaTextureDesc@@PEBUCUDA_TEXTURE_DESC_st@@PEAUcudaResourceViewDesc@@PEBUCUDA_RESOURCE_VIEW_DESC_st@@@Z 0000000180065510 f   cudart_static:cudart_cudart_helper.obj
 0001:000648b0       ?hostGetDevicePointer@driverHelper@cudart@@YA?AW4cudaError@@PEAXPEAPEAXI@Z 00000001800658b0 f   cudart_static:cudart_cudart_helper.obj
 0001:000648e0       ?hostGetFlags@driverHelper@cudart@@YA?AW4cudaError@@PEAIPEAX@Z 00000001800658e0 f   cudart_static:cudart_cudart_helper.obj
 0001:00064900       ?mallocArray@driverHelper@cudart@@YA?AW4cudaError@@PEAPEAUcudaArray@@PEBUcudaChannelFormatDesc@@_K22HI@Z 0000000180065900 f   cudart_static:cudart_cudart_helper.obj
 0001:00064a70       ?mallocHost@driverHelper@cudart@@YA?AW4cudaError@@_KPEAPEAXI@Z 0000000180065a70 f   cudart_static:cudart_cudart_helper.obj
 0001:00064ac0       ?mallocManagedPtr@driverHelper@cudart@@YA?AW4cudaError@@_KIPEAPEAX@Z 0000000180065ac0 f   cudart_static:cudart_cudart_helper.obj
 0001:00064b10       ?mallocMipmappedArray@driverHelper@cudart@@YA?AW4cudaError@@PEAPEAUcudaMipmappedArray@@PEBUcudaChannelFormatDesc@@_K22II@Z 0000000180065b10 f   cudart_static:cudart_cudart_helper.obj
 0001:00064c80       ?mallocPitch@driverHelper@cudart@@YA?AW4cudaError@@_K00PEAPEAXPEA_K@Z 0000000180065c80 f   cudart_static:cudart_cudart_helper.obj
 0001:00064cf0       ?mallocPtr@driverHelper@cudart@@YA?AW4cudaError@@_KPEAPEAX@Z 0000000180065cf0 f   cudart_static:cudart_cudart_helper.obj
 0001:00064d40       ?memCopy2DInit@cudart@@YA?AUCUDA_MEMCPY2D_st@@W4CUmemorytype_enum@@0@Z 0000000180065d40 f i cudart_static:cudart_cudart_helper.obj
 0001:00064da0       ?memcpy2DArrayToArray@driverHelper@cudart@@YA?AW4cudaError@@PEAUcudaArray@@_K1PEBU4@1111W4cudaMemcpyKind@@_N@Z 0000000180065da0 f   cudart_static:cudart_cudart_helper.obj
 0001:00064e30       ?memcpy2DFromArray@driverHelper@cudart@@YA?AW4cudaError@@PEAD_KPEBUcudaArray@@1111W4cudaMemcpyKind@@PEAUCUstream_st@@_N5@Z 0000000180065e30 f   cudart_static:cudart_cudart_helper.obj
 0001:00064fe0       ?memcpy2DPtr@driverHelper@cudart@@YA?AW4cudaError@@PEAD_KPEBD111W4cudaMemcpyKind@@PEAUCUstream_st@@_N5@Z 0000000180065fe0 f   cudart_static:cudart_cudart_helper.obj
 0001:000652c0       ?memcpy2DToArray@driverHelper@cudart@@YA?AW4cudaError@@PEAUcudaArray@@_K1PEBD111W4cudaMemcpyKind@@PEAUCUstream_st@@_N5@Z 00000001800662c0 f   cudart_static:cudart_cudart_helper.obj
 0001:00065470       ?memcpy3D@driverHelper@cudart@@YA?AW4cudaError@@PEBUcudaMemcpy3DParms@@_NPEAUdevice@2@2PEAUCUstream_st@@11@Z 0000000180066470 f   cudart_static:cudart_cudart_helper.obj
 0001:00065690       ?memcpyArrayToArray@driverHelper@cudart@@YA?AW4cudaError@@PEAUcudaArray@@_K1PEBU4@111W4cudaMemcpyKind@@_N@Z 0000000180066690 f   cudart_static:cudart_cudart_helper.obj
 0001:00065700       ?memcpyAsyncDispatch@driverHelper@cudart@@YA?AW4cudaError@@PEAXPEBX_KW4cudaMemcpyKind@@PEAUCUstream_st@@_N@Z 0000000180066700 f   cudart_static:cudart_cudart_helper.obj
 0001:00065860       ?memcpyDispatch@driverHelper@cudart@@YA?AW4cudaError@@PEAXPEBX_KW4cudaMemcpyKind@@_N@Z 0000000180066860 f   cudart_static:cudart_cudart_helper.obj
 0001:00065990       ?memcpyFromArray@driverHelper@cudart@@YA?AW4cudaError@@PEADPEBUcudaArray@@_K22W4cudaMemcpyKind@@PEAUCUstream_st@@_N5@Z 0000000180066990 f   cudart_static:cudart_cudart_helper.obj
 0001:00065ae0       ?memcpyToArray@driverHelper@cudart@@YA?AW4cudaError@@PEAUcudaArray@@_K1PEBD1W4cudaMemcpyKind@@PEAUCUstream_st@@_N5@Z 0000000180066ae0 f   cudart_static:cudart_cudart_helper.obj
 0001:00065c20       ?memset2DPtr@driverHelper@cudart@@YA?AW4cudaError@@PEAD_KH11PEAUCUstream_st@@_N3@Z 0000000180066c20 f   cudart_static:cudart_cudart_helper.obj
 0001:00065cc0       ?memset3DPtr@driverHelper@cudart@@YA?AW4cudaError@@UcudaPitchedPtr@@HUcudaExtent@@PEAUCUstream_st@@_N3@Z 0000000180066cc0 f   cudart_static:cudart_cudart_helper.obj
 0001:00065e60       ?memsetPtr@driverHelper@cudart@@YA?AW4cudaError@@PEADH_KPEAUCUstream_st@@_N3@Z 0000000180066e60 f   cudart_static:cudart_cudart_helper.obj
 0001:00065ee0       ?toCudartMemCopy3DParams@driverHelper@cudart@@YA?AW4cudaError@@PEBUCUDA_MEMCPY3D_st@@PEAUcudaMemcpy3DParms@@@Z 0000000180066ee0 f   cudart_static:cudart_cudart_helper.obj
 0001:000662c0       ?toDriverMemCopy3DParams@driverHelper@cudart@@YA?AW4cudaError@@PEBUcudaMemcpy3DParms@@PEAUdevice@2@1PEAUCUDA_MEMCPY3D_st@@@Z 00000001800672c0 f   cudart_static:cudart_cudart_helper.obj
 0001:00066730       ?validateDeviceD3D@driverHelper@cudart@@YA?AW4cudaError@@PEAUIUnknown@@H@Z 0000000180067730 f   cudart_static:cudart_cudart_helper.obj
 0001:00066820       __cudaGetExportTableInternal 0000000180067820 f   cudart_static:cudart_cudart_etbl.obj
 0001:00069cf0       StringCbCatW               000000018006acf0 f i cudart_static:cudart_nvSecureLoadLibrary.obj
 0001:00069dc0       StringCbCopyW              000000018006adc0 f i cudart_static:cudart_nvSecureLoadLibrary.obj
 0001:00069e60       StringCchCatW              000000018006ae60 f i cudart_static:cudart_nvSecureLoadLibrary.obj
 0001:00069f30       StringCchCopyNW            000000018006af30 f i cudart_static:cudart_nvSecureLoadLibrary.obj
 0001:00069fe0       StringCchCopyW             000000018006afe0 f i cudart_static:cudart_nvSecureLoadLibrary.obj
 0001:0006a340       VerifyPrimarySignatureCN   000000018006b340 f   cudart_static:cudart_nvSecureLoadLibrary.obj
 0001:0006a4e0       VerifySingleSignature      000000018006b4e0 f   cudart_static:cudart_nvSecureLoadLibrary.obj
 0001:0006a9d0       nvCreateProcessA           000000018006b9d0 f   cudart_static:cudart_nvSecureLoadLibrary.obj
 0001:0006aae0       nvCreateProcessAsUserA     000000018006bae0 f   cudart_static:cudart_nvSecureLoadLibrary.obj
 0001:0006ac40       nvCreateProcessAsUserW     000000018006bc40 f   cudart_static:cudart_nvSecureLoadLibrary.obj
 0001:0006ad60       nvCreateProcessW           000000018006bd60 f   cudart_static:cudart_nvSecureLoadLibrary.obj
 0001:0006ae10       nvDetectDisplayDriverModuleLocationW 000000018006be10 f   cudart_static:cudart_nvSecureLoadLibrary.obj
 0001:0006b050       nvDetectDisplayDriverModuleRegistrationW 000000018006c050 f   cudart_static:cudart_nvSecureLoadLibrary.obj
 0001:0006b390       nvGetDisplayDriverRegkeyW  000000018006c390 f   cudart_static:cudart_nvSecureLoadLibrary.obj
 0001:0006b3a0       nvGetDisplayDriverStoreW   000000018006c3a0 f   cudart_static:cudart_nvSecureLoadLibrary.obj
 0001:0006b3b0       nvGetDriverRegkeyW         000000018006c3b0 f   cudart_static:cudart_nvSecureLoadLibrary.obj
 0001:0006b570       nvGetDriverStoreW          000000018006c570 f   cudart_static:cudart_nvSecureLoadLibrary.obj
 0001:0006b8e0       nvGetSystemDirectoryW      000000018006c8e0 f   cudart_static:cudart_nvSecureLoadLibrary.obj
 0001:0006b950       nvGetSystemModuleHandleA   000000018006c950 f   cudart_static:cudart_nvSecureLoadLibrary.obj
 0001:0006b9a0       nvGetSystemModuleHandleW   000000018006c9a0 f   cudart_static:cudart_nvSecureLoadLibrary.obj
 0001:0006ba50       nvLoadDisplayDriverModuleExA 000000018006ca50 f   cudart_static:cudart_nvSecureLoadLibrary.obj
 0001:0006bab0       nvLoadDisplayDriverModuleExW 000000018006cab0 f   cudart_static:cudart_nvSecureLoadLibrary.obj
 0001:0006bb70       nvLoadLibraryFromTrustedLocationExA 000000018006cb70 f   cudart_static:cudart_nvSecureLoadLibrary.obj
 0001:0006bbd0       nvLoadLibraryFromTrustedLocationExW 000000018006cbd0 f   cudart_static:cudart_nvSecureLoadLibrary.obj
 0001:0006bc70       nvLoadSignedLibraryExA     000000018006cc70 f   cudart_static:cudart_nvSecureLoadLibrary.obj
 0001:0006bce0       nvLoadSignedLibraryExW     000000018006cce0 f   cudart_static:cudart_nvSecureLoadLibrary.obj
 0001:0006be70       nvLoadSystemLibraryExA     000000018006ce70 f   cudart_static:cudart_nvSecureLoadLibrary.obj
 0001:0006bed0       nvLoadSystemLibraryExW     000000018006ced0 f   cudart_static:cudart_nvSecureLoadLibrary.obj
 0001:0006c000       nvLoadWVTCryptModule       000000018006d000 f   cudart_static:cudart_nvSecureLoadLibrary.obj
 0001:0006c2d0       nvReleaseSecureLoadLibraryResources 000000018006d2d0 f   cudart_static:cudart_nvSecureLoadLibrary.obj
 0001:0006c520       nvSafeLocalFree            000000018006d520 f   cudart_static:cudart_nvSecureLoadLibrary.obj
 0001:0006c530       nvShellExecuteA            000000018006d530 f   cudart_static:cudart_nvSecureLoadLibrary.obj
 0001:0006c650       nvShellExecuteExA          000000018006d650 f   cudart_static:cudart_nvSecureLoadLibrary.obj
 0001:0006c760       nvShellExecuteExW          000000018006d760 f   cudart_static:cudart_nvSecureLoadLibrary.obj
 0001:0006c810       nvShellExecuteW            000000018006d810 f   cudart_static:cudart_nvSecureLoadLibrary.obj
 0001:0006c8e0       nvVerifyFileSignatureA     000000018006d8e0 f   cudart_static:cudart_nvSecureLoadLibrary.obj
 0001:0006c940       nvVerifyFileSignatureW     000000018006d940 f   cudart_static:cudart_nvSecureLoadLibrary.obj
 0001:0006cbf0       ?cuosOnceWithArgs@cudart@@YAHPECIP6AHPEAX@Z1@Z 000000018006dbf0 f   cudart_static:cudart_cuos_once.obj
 0001:0006cc70       ?cuosOnceWithArgsIsDone@cudart@@YAHPECI@Z 000000018006dc70 f   cudart_static:cudart_cuos_once.obj
 0001:0006cd56       sf_load_rtw_optimization_info 000000018006dd56 f   sf_runtime:sf_runtime.dll
 0001:0006cd5c       sf_mex_decode              000000018006dd5c f   sf_runtime:sf_runtime.dll
 0001:0006cd62       sf_get_ChartInfoStruct_CodeGen 000000018006dd62 f   sf_runtime:sf_runtime.dll
 0001:0006cd68       sf_get_hasSeparateUpdateOutputs 000000018006dd68 f   sf_runtime:sf_runtime.dll
 0001:0006cd6e       callMdlMethodAndReportError 000000018006dd6e f   sf_runtime:sf_runtime.dll
 0001:0006cd74       call_sf_machine_global_method_dispatcher 000000018006dd74 f   sf_runtime:sf_runtime.dll
 0001:0006cd7a       getRuntimeInstanceInfoAsVoid 000000018006dd7a f   sf_runtime:sf_runtime.dll
 0001:0006cd80       sf_mex_error_direct_call   000000018006dd80 f   sf_runtime:sf_runtime.dll
 0001:0006cd86       sf_clear_error_manager_info 000000018006dd86 f   sf_runtime:sf_runtime.dll
 0001:0006cd8c       sf_init_ChartRunTimeInfo   000000018006dd8c f   sf_runtime:sf_runtime.dll
 0001:0006cd92       sf_free_ChartRunTimeInfo   000000018006dd92 f   sf_runtime:sf_runtime.dll
 0001:0006cd98       sf_reset_warnings_ChartRunTimeInfo 000000018006dd98 f   sf_runtime:sf_runtime.dll
 0001:0006cd9e       sfrtGetEmlrtCtx            000000018006dd9e f   sf_runtime:sf_runtime.dll
 0001:0006cda4       sf_get_chart_instance_ptr  000000018006dda4 f   sf_runtime:sf_runtime.dll
 0001:0006cdaa       sfSetAnimationVectors      000000018006ddaa f   sf_runtime:sf_runtime.dll
 0001:0006cdb0       sim_mode_is_rtw_gen        000000018006ddb0 f   sf_runtime:sf_runtime.dll
 0001:0006cdb6       sim_mode_is_external       000000018006ddb6 f   sf_runtime:sf_runtime.dll
 0001:0006cdbc       sf_clear_rtw_identifier    000000018006ddbc f   sf_runtime:sf_runtime.dll
 0001:0006cdc2       sf_get_time                000000018006ddc2 f   sf_runtime:sf_runtime.dll
 0001:0006cdc8       sf_set_work_widths         000000018006ddc8 f   sf_runtime:sf_runtime.dll
 0001:0006cdce       mdlProcessParamsCommon     000000018006ddce f   sf_runtime:sf_runtime.dll
 0001:0006cdd4       sf_mex_printf              000000018006ddd4 f   sf_runtime:sf_runtime.dll
 0001:0006cdda       sf_mex_call                000000018006ddda f   sf_runtime:sf_runtime.dll
 0001:0006cde0       sf_mex_error_message       000000018006dde0 f   sf_runtime:sf_runtime.dll
 0001:0006cde6       sf_mex_create              000000018006dde6 f   sf_runtime:sf_runtime.dll
 0001:0006cdec       sf_mex_createcellmatrix    000000018006ddec f   sf_runtime:sf_runtime.dll
 0001:0006cdf2       sf_mex_setcell             000000018006ddf2 f   sf_runtime:sf_runtime.dll
 0001:0006cdf8       sf_mex_getcell             000000018006ddf8 f   sf_runtime:sf_runtime.dll
 0001:0006cdfe       sf_mex_assign              000000018006ddfe f   sf_runtime:sf_runtime.dll
 0001:0006ce04       sf_mex_dup                 000000018006de04 f   sf_runtime:sf_runtime.dll
 0001:0006ce0a       sf_mex_destroy             000000018006de0a f   sf_runtime:sf_runtime.dll
 0001:0006ce10       sf_mex_import              000000018006de10 f   sf_runtime:sf_runtime.dll
 0001:0006ce16       ssGetInputPortSignal_wrapper 000000018006de16 f   sf_runtime:sf_runtime.dll
 0001:0006ce1c       ssGetOutputPortSignal_wrapper 000000018006de1c f   sf_runtime:sf_runtime.dll
 0001:0006ce22       mxIsChar_800               000000018006de22 f   libmx:libmx.dll
 0001:0006ce28       mxGetScalar_800            000000018006de28 f   libmx:libmx.dll
 0001:0006ce2e       mxGetPr_800                000000018006de2e f   libmx:libmx.dll
 0001:0006ce34       mxDestroyArray_800         000000018006de34 f   libmx:libmx.dll
 0001:0006ce3a       mxCreateDoubleMatrix_800   000000018006de3a f   libmx:libmx.dll
 0001:0006ce40       mxGetString_800            000000018006de40 f   libmx:libmx.dll
 0001:0006ce46       mxDuplicateArray_800       000000018006de46 f   libmx:libmx.dll
 0001:0006ce4c       mxCalloc_800               000000018006de4c f   libmx:libmx.dll
 0001:0006ce52       mxGetM_800                 000000018006de52 f   libmx:libmx.dll
 0001:0006ce58       mxGetClassID_800           000000018006de58 f   libmx:libmx.dll
 0001:0006ce5e       mxIsNumeric_800            000000018006de5e f   libmx:libmx.dll
 0001:0006ce64       mxIsComplex_800            000000018006de64 f   libmx:libmx.dll
 0001:0006ce6a       mxGetN_800                 000000018006de6a f   libmx:libmx.dll
 0001:0006ce70       mxCreateDoubleScalar_800   000000018006de70 f   libmx:libmx.dll
 0001:0006ce76       mxCreateString_800         000000018006de76 f   libmx:libmx.dll
 0001:0006ce7c       mxSetField_800             000000018006de7c f   libmx:libmx.dll
 0001:0006ce82       mxCreateCellMatrix_800     000000018006de82 f   libmx:libmx.dll
 0001:0006ce88       mxCreateStructMatrix_800   000000018006de88 f   libmx:libmx.dll
 0001:0006ce8e       mexMakeArrayPersistent_800 000000018006de8e f   libmex:libmex.dll
 0001:0006ce94       mexErrMsgTxt_800           000000018006de94 f   libmex:libmex.dll
 0001:0006ce9a       mexWarnMsgTxt_800          000000018006de9a f   libmex:libmex.dll
 0001:0006cea0       mexCallMATLAB_800          000000018006dea0 f   libmex:libmex.dll
 0001:0006cea6       mexLock_800                000000018006dea6 f   libmex:libmex.dll
 0001:0006ceac       mexUnlock_800              000000018006deac f   libmex:libmex.dll
 0001:0006ceb2       mexIsLocked_800            000000018006deb2 f   libmex:libmex.dll
 0001:0006ceb8       utMalloc                   000000018006deb8 f   libut:libut.dll
 0001:0006cebe       utFree                     000000018006debe f   libut:libut.dll
 0001:0006cec4       muDoubleScalarCos          000000018006dec4 f   libmwmathutil:libmwmathutil.dll
 0001:0006ceca       muDoubleScalarSin          000000018006deca f   libmwmathutil:libmwmathutil.dll
 0001:0006ced0       emlrtLicenseCheckR2022a    000000018006ded0 f   libemlrt:libemlrt.dll
 0001:0006ced6       emlrtThinCUDAError         000000018006ded6 f   libemlrt:libemlrt.dll
 0001:0006cedc       emlrtInitGPU               000000018006dedc f   libemlrt:libemlrt.dll
 0001:0006cee4       ?configure_argv@__scrt_narrow_argv_policy@@SAHXZ 000000018006dee4 f i MSVCRT:utility.obj
 0001:0006cf44       ?initialize_environment@__scrt_narrow_environment_policy@@SAHXZ 000000018006df44 f i MSVCRT:utility.obj
 0001:0006cf7c       NtCurrentTeb               000000018006df7c f i MSVCRT:utility.obj
 0001:0006cf88       __scrt_acquire_startup_lock 000000018006df88 f   MSVCRT:utility.obj
 0001:0006cfc4       __scrt_dllmain_after_initialize_c 000000018006dfc4 f   MSVCRT:utility.obj
 0001:0006cff8       __scrt_dllmain_before_initialize_c 000000018006dff8 f   MSVCRT:utility.obj
 0001:0006d010       __scrt_dllmain_crt_thread_attach 000000018006e010 f   MSVCRT:utility.obj
 0001:0006d038       __scrt_dllmain_crt_thread_detach 000000018006e038 f   MSVCRT:utility.obj
 0001:0006d050       __scrt_dllmain_exception_filter 000000018006e050 f   MSVCRT:utility.obj
 0001:0006d0b0       __scrt_dllmain_uninitialize_c 000000018006e0b0 f   MSVCRT:utility.obj
 0001:0006d0e0       __scrt_dllmain_uninitialize_critical 000000018006e0e0 f   MSVCRT:utility.obj
 0001:0006d0f4       __scrt_initialize_crt      000000018006e0f4 f   MSVCRT:utility.obj
 0001:0006d140       __scrt_initialize_onexit_tables 000000018006e140 f   MSVCRT:utility.obj
 0001:0006d1cc       __scrt_is_nonwritable_in_current_image 000000018006e1cc f   MSVCRT:utility.obj
 0001:0006d264       __scrt_release_startup_lock 000000018006e264 f   MSVCRT:utility.obj
 0001:0006d288       __scrt_uninitialize_crt    000000018006e288 f   MSVCRT:utility.obj
 0001:0006d2b4       _onexit                    000000018006e2b4 f   MSVCRT:utility.obj
 0001:0006d2f0       at_quick_exit              000000018006e2f0 f   MSVCRT:utility.obj
 0001:0006d310       atexit                     000000018006e310 f   MSVCRT:utility.obj
 0001:0006d328       __raise_securityfailure    000000018006e328 f   MSVCRT:gs_report.obj
 0001:0006d35c       __report_gsfailure         000000018006e35c f   MSVCRT:gs_report.obj
 0001:0006d430       __report_rangecheckfailure 000000018006e430 f   MSVCRT:gs_report.obj
 0001:0006d444       __report_securityfailure   000000018006e444 f   MSVCRT:gs_report.obj
 0001:0006d4e0       __report_securityfailureEx 000000018006e4e0 f   MSVCRT:gs_report.obj
 0001:0006d6d4       __GSHandlerCheck           000000018006e6d4 f   MSVCRT:gshandler.obj
 0001:0006d6f4       __GSHandlerCheckCommon     000000018006e6f4 f   MSVCRT:gshandler.obj
 0001:0006d760       __security_check_cookie    000000018006e760 f   MSVCRT:amdsecgs.obj
 0001:0006dabc       _CRT_INIT                  000000018006eabc f   MSVCRT:dll_dllmain.obj
 0001:0006dac4       _DllMainCRTStartup         000000018006eac4 f   MSVCRT:dll_dllmain.obj
 0001:0006db04       __isa_available_init       000000018006eb04 f   MSVCRT:cpu_disp.obj
 0001:0006dcb0       _get_startup_argv_mode     000000018006ecb0 f   MSVCRT:argv_mode.obj
 0001:0006dcb8       __scrt_is_ucrt_dll_in_use  000000018006ecb8 f   MSVCRT:ucrt_detection.obj
 0001:0006dcc4       __crt_debugger_hook        000000018006ecc4 f   MSVCRT:utility_desktop.obj
 0001:0006dccc       __scrt_fastfail            000000018006eccc f   MSVCRT:utility_desktop.obj
 0001:0006de18       __scrt_get_show_window_mode 000000018006ee18 f   MSVCRT:utility_desktop.obj
 0001:0006de54       __scrt_initialize_mta      000000018006ee54 f   MSVCRT:utility_desktop.obj
 0001:0006de5c       __scrt_initialize_winrt    000000018006ee5c f   MSVCRT:utility_desktop.obj
 0001:0006de60       __scrt_is_managed_app      000000018006ee60 f   MSVCRT:utility_desktop.obj
 0001:0006deb4       __scrt_set_unhandled_exception_filter 000000018006eeb4 f   MSVCRT:utility_desktop.obj
 0001:0006dec4       __scrt_exe_initialize_mta  000000018006eec4 f   MSVCRT:utility_desktop.obj
 0001:0006dec4       __scrt_stub_for_initialize_mta 000000018006eec4 f   MSVCRT:utility_desktop.obj
 0001:0006dec8       __scrt_unhandled_exception_filter 000000018006eec8 f   MSVCRT:utility_desktop.obj
 0001:0006df24       _guard_check_icall_nop     000000018006ef24 f i MSVCRT:guard_support.obj
 0001:0006df28       ReadNoFence64              000000018006ef28 f i MSVCRT:guard_support.obj
 0001:0006df2c       ReadPointerNoFence         000000018006ef2c f i MSVCRT:guard_support.obj
 0001:0006df30       __castguard_check_failure_debugbreak 000000018006ef30 f i MSVCRT:guard_support.obj
 0001:0006df4c       __castguard_check_failure_fastfail 000000018006ef4c f i MSVCRT:guard_support.obj
 0001:0006df70       __castguard_check_failure_nop 000000018006ef70 f i MSVCRT:guard_support.obj
 0001:0006df74       __castguard_check_failure_os_handled 000000018006ef74 f i MSVCRT:guard_support.obj
 0001:0006dfd0       __castguard_check_failure_user_handled 000000018006efd0 f i MSVCRT:guard_support.obj
 0001:0006e044       __castguard_set_user_handler 000000018006f044 f i MSVCRT:guard_support.obj
 0001:0006e050       __castguard_slow_path_check_debugbreak 000000018006f050 f i MSVCRT:guard_support.obj
 0001:0006e084       __castguard_slow_path_check_fastfail 000000018006f084 f i MSVCRT:guard_support.obj
 0001:0006e0c0       __castguard_slow_path_check_nop 000000018006f0c0 f i MSVCRT:guard_support.obj
 0001:0006e0c4       __castguard_slow_path_check_os_handled 000000018006f0c4 f i MSVCRT:guard_support.obj
 0001:0006e118       __castguard_slow_path_check_user_handled 000000018006f118 f i MSVCRT:guard_support.obj
 0001:0006e184       _guard_icall_checks_enforced 000000018006f184 f i MSVCRT:guard_support.obj
 0001:0006e19c       _guard_rf_checks_enforced  000000018006f19c f i MSVCRT:guard_support.obj
 0001:0006e20c       __security_init_cookie     000000018006f20c f   MSVCRT:gs_support.obj
 0001:0006e2b8       DllMain                    000000018006f2b8 f   MSVCRT:dll_dllmain_stub.obj
 0001:0006e2dc       ?__scrt_initialize_type_info@@YAXXZ 000000018006f2dc f   MSVCRT:tncleanup.obj
 0001:0006e2ec       ?__scrt_uninitialize_type_info@@YAXXZ 000000018006f2ec f   MSVCRT:tncleanup.obj
 0001:0006e2f8       __local_stdio_scanf_options 000000018006f2f8 f i MSVCRT:default_local_stdio_options.obj
 0001:0006e300       __scrt_initialize_default_local_stdio_options 000000018006f300 f   MSVCRT:default_local_stdio_options.obj
 0001:0006e31c       __scrt_get_dyn_tls_init_callback 000000018006f31c f   MSVCRT:dyn_tls_init.obj
 0001:0006e324       _RTC_Initialize            000000018006f324 f   MSVCRT:initsect.obj
 0001:0006e360       _RTC_Terminate             000000018006f360 f   MSVCRT:initsect.obj
 0001:0006e3a0       GetEnvironmentVariableA    000000018006f3a0 f   kernel32:KERNEL32.dll
 0001:0006e3a6       SetEnvironmentVariableA    000000018006f3a6 f   kernel32:KERNEL32.dll
 0001:0006e3ac       GetCurrentDirectoryA       000000018006f3ac f   kernel32:KERNEL32.dll
 0001:0006e3b2       CreateDirectoryA           000000018006f3b2 f   kernel32:KERNEL32.dll
 0001:0006e3b8       DeleteFileA                000000018006f3b8 f   kernel32:KERNEL32.dll
 0001:0006e3be       FindClose                  000000018006f3be f   kernel32:KERNEL32.dll
 0001:0006e3c4       FindFirstFileA             000000018006f3c4 f   kernel32:KERNEL32.dll
 0001:0006e3ca       FindNextFileA              000000018006f3ca f   kernel32:KERNEL32.dll
 0001:0006e3d0       GetFileAttributesExA       000000018006f3d0 f   kernel32:KERNEL32.dll
 0001:0006e3d6       LockFileEx                 000000018006f3d6 f   kernel32:KERNEL32.dll
 0001:0006e3dc       RemoveDirectoryA           000000018006f3dc f   kernel32:KERNEL32.dll
 0001:0006e3e2       UnlockFileEx               000000018006f3e2 f   kernel32:KERNEL32.dll
 0001:0006e3e8       CloseHandle                000000018006f3e8 f   kernel32:KERNEL32.dll
 0001:0006e3ee       GetLastError               000000018006f3ee f   kernel32:KERNEL32.dll
 0001:0006e3f4       QueryPerformanceCounter    000000018006f3f4 f   kernel32:KERNEL32.dll
 0001:0006e3fa       QueryPerformanceFrequency  000000018006f3fa f   kernel32:KERNEL32.dll
 0001:0006e400       HeapCreate                 000000018006f400 f   kernel32:KERNEL32.dll
 0001:0006e406       HeapDestroy                000000018006f406 f   kernel32:KERNEL32.dll
 0001:0006e40c       HeapAlloc                  000000018006f40c f   kernel32:KERNEL32.dll
 0001:0006e412       HeapReAlloc                000000018006f412 f   kernel32:KERNEL32.dll
 0001:0006e418       HeapFree                   000000018006f418 f   kernel32:KERNEL32.dll
 0001:0006e41e       InitializeSRWLock          000000018006f41e f   kernel32:KERNEL32.dll
 0001:0006e424       ReleaseSRWLockExclusive    000000018006f424 f   kernel32:KERNEL32.dll
 0001:0006e42a       ReleaseSRWLockShared       000000018006f42a f   kernel32:KERNEL32.dll
 0001:0006e430       AcquireSRWLockExclusive    000000018006f430 f   kernel32:KERNEL32.dll
 0001:0006e436       AcquireSRWLockShared       000000018006f436 f   kernel32:KERNEL32.dll
 0001:0006e43c       TryAcquireSRWLockExclusive 000000018006f43c f   kernel32:KERNEL32.dll
 0001:0006e442       TryAcquireSRWLockShared    000000018006f442 f   kernel32:KERNEL32.dll
 0001:0006e448       InitializeCriticalSection  000000018006f448 f   kernel32:KERNEL32.dll
 0001:0006e44e       EnterCriticalSection       000000018006f44e f   kernel32:KERNEL32.dll
 0001:0006e454       LeaveCriticalSection       000000018006f454 f   kernel32:KERNEL32.dll
 0001:0006e45a       TryEnterCriticalSection    000000018006f45a f   kernel32:KERNEL32.dll
 0001:0006e460       DeleteCriticalSection      000000018006f460 f   kernel32:KERNEL32.dll
 0001:0006e466       InitializeConditionVariable 000000018006f466 f   kernel32:KERNEL32.dll
 0001:0006e46c       WakeConditionVariable      000000018006f46c f   kernel32:KERNEL32.dll
 0001:0006e472       WakeAllConditionVariable   000000018006f472 f   kernel32:KERNEL32.dll
 0001:0006e478       SleepConditionVariableCS   000000018006f478 f   kernel32:KERNEL32.dll
 0001:0006e47e       SetEvent                   000000018006f47e f   kernel32:KERNEL32.dll
 0001:0006e484       ResetEvent                 000000018006f484 f   kernel32:KERNEL32.dll
 0001:0006e48a       ReleaseSemaphore           000000018006f48a f   kernel32:KERNEL32.dll
 0001:0006e490       WaitForSingleObject        000000018006f490 f   kernel32:KERNEL32.dll
 0001:0006e496       CreateEventA               000000018006f496 f   kernel32:KERNEL32.dll
 0001:0006e49c       Sleep                      000000018006f49c f   kernel32:KERNEL32.dll
 0001:0006e4a2       WaitForMultipleObjects     000000018006f4a2 f   kernel32:KERNEL32.dll
 0001:0006e4a8       GetCurrentProcess          000000018006f4a8 f   kernel32:KERNEL32.dll
 0001:0006e4ae       GetCurrentProcessId        000000018006f4ae f   kernel32:KERNEL32.dll
 0001:0006e4b4       SwitchToThread             000000018006f4b4 f   kernel32:KERNEL32.dll
 0001:0006e4ba       GetCurrentThread           000000018006f4ba f   kernel32:KERNEL32.dll
 0001:0006e4c0       GetCurrentThreadId         000000018006f4c0 f   kernel32:KERNEL32.dll
 0001:0006e4c6       TlsAlloc                   000000018006f4c6 f   kernel32:KERNEL32.dll
 0001:0006e4cc       TlsGetValue                000000018006f4cc f   kernel32:KERNEL32.dll
 0001:0006e4d2       TlsSetValue                000000018006f4d2 f   kernel32:KERNEL32.dll
 0001:0006e4d8       TlsFree                    000000018006f4d8 f   kernel32:KERNEL32.dll
 0001:0006e4de       GlobalMemoryStatusEx       000000018006f4de f   kernel32:KERNEL32.dll
 0001:0006e4e4       GetSystemInfo              000000018006f4e4 f   kernel32:KERNEL32.dll
 0001:0006e4ea       GetLocalTime               000000018006f4ea f   kernel32:KERNEL32.dll
 0001:0006e4f0       GetNativeSystemInfo        000000018006f4f0 f   kernel32:KERNEL32.dll
 0001:0006e4f6       VirtualAlloc               000000018006f4f6 f   kernel32:KERNEL32.dll
 0001:0006e4fc       VirtualProtect             000000018006f4fc f   kernel32:KERNEL32.dll
 0001:0006e502       VirtualFree                000000018006f502 f   kernel32:KERNEL32.dll
 0001:0006e508       VirtualQuery               000000018006f508 f   kernel32:KERNEL32.dll
 0001:0006e50e       GetLargePageMinimum        000000018006f50e f   kernel32:KERNEL32.dll
 0001:0006e514       FreeLibrary                000000018006f514 f   kernel32:KERNEL32.dll
 0001:0006e51a       FreeLibraryAndExitThread   000000018006f51a f   kernel32:KERNEL32.dll
 0001:0006e520       GetModuleFileNameA         000000018006f520 f   kernel32:KERNEL32.dll
 0001:0006e526       GetModuleHandleA           000000018006f526 f   kernel32:KERNEL32.dll
 0001:0006e52c       GetModuleHandleExA         000000018006f52c f   kernel32:KERNEL32.dll
 0001:0006e532       GetProcAddress             000000018006f532 f   kernel32:KERNEL32.dll
 0001:0006e538       LoadLibraryA               000000018006f538 f   kernel32:KERNEL32.dll
 0001:0006e53e       GetProcessAffinityMask     000000018006f53e f   kernel32:KERNEL32.dll
 0001:0006e544       SetThreadAffinityMask      000000018006f544 f   kernel32:KERNEL32.dll
 0001:0006e54a       CreateSemaphoreA           000000018006f54a f   kernel32:KERNEL32.dll
 0001:0006e550       CreateFileMappingA         000000018006f550 f   kernel32:KERNEL32.dll
 0001:0006e556       CreateFileMappingNumaA     000000018006f556 f   kernel32:KERNEL32.dll
 0001:0006e55c       GetComputerNameA           000000018006f55c f   kernel32:KERNEL32.dll
 0001:0006e562       GetNumaNodeProcessorMask   000000018006f562 f   kernel32:KERNEL32.dll
 0001:0006e568       LoadLibraryExA             000000018006f568 f   kernel32:KERNEL32.dll
 0001:0006e56e       VerSetConditionMask        000000018006f56e f   kernel32:KERNEL32.dll
 0001:0006e574       CreateFileW                000000018006f574 f   kernel32:KERNEL32.dll
 0001:0006e57a       GetFileAttributesW         000000018006f57a f   kernel32:KERNEL32.dll
 0001:0006e580       GetFullPathNameW           000000018006f580 f   kernel32:KERNEL32.dll
 0001:0006e586       SetLastError               000000018006f586 f   kernel32:KERNEL32.dll
 0001:0006e58c       CreateProcessA             000000018006f58c f   kernel32:KERNEL32.dll
 0001:0006e592       CreateProcessW             000000018006f592 f   kernel32:KERNEL32.dll
 0001:0006e598       GetSystemDirectoryW        000000018006f598 f   kernel32:KERNEL32.dll
 0001:0006e59e       GetModuleFileNameW         000000018006f59e f   kernel32:KERNEL32.dll
 0001:0006e5a4       GetModuleHandleW           000000018006f5a4 f   kernel32:KERNEL32.dll
 0001:0006e5aa       LoadLibraryExW             000000018006f5aa f   kernel32:KERNEL32.dll
 0001:0006e5b0       LocalAlloc                 000000018006f5b0 f   kernel32:KERNEL32.dll
 0001:0006e5b6       LocalFree                  000000018006f5b6 f   kernel32:KERNEL32.dll
 0001:0006e5bc       VerifyVersionInfoW         000000018006f5bc f   kernel32:KERNEL32.dll
 0001:0006e5c2       RtlCaptureContext          000000018006f5c2 f   kernel32:KERNEL32.dll
 0001:0006e5c8       RtlLookupFunctionEntry     000000018006f5c8 f   kernel32:KERNEL32.dll
 0001:0006e5ce       RtlVirtualUnwind           000000018006f5ce f   kernel32:KERNEL32.dll
 0001:0006e5d4       UnhandledExceptionFilter   000000018006f5d4 f   kernel32:KERNEL32.dll
 0001:0006e5da       SetUnhandledExceptionFilter 000000018006f5da f   kernel32:KERNEL32.dll
 0001:0006e5e0       TerminateProcess           000000018006f5e0 f   kernel32:KERNEL32.dll
 0001:0006e5e6       IsProcessorFeaturePresent  000000018006f5e6 f   kernel32:KERNEL32.dll
 0001:0006e5ec       IsDebuggerPresent          000000018006f5ec f   kernel32:KERNEL32.dll
 0001:0006e5f2       GetStartupInfoW            000000018006f5f2 f   kernel32:KERNEL32.dll
 0001:0006e5f8       GetSystemTimeAsFileTime    000000018006f5f8 f   kernel32:KERNEL32.dll
 0001:0006e5fe       DisableThreadLibraryCalls  000000018006f5fe f   kernel32:KERNEL32.dll
 0001:0006e604       InitializeSListHead        000000018006f604 f   kernel32:KERNEL32.dll
 0001:0006e60a       memcpy                     000000018006f60a f   vcruntime:VCRUNTIME140.dll
 0001:0006e610       memset                     000000018006f610 f   vcruntime:VCRUNTIME140.dll
 0001:0006e616       memcmp                     000000018006f616 f   vcruntime:VCRUNTIME140.dll
 0001:0006e61c       wcsrchr                    000000018006f61c f   vcruntime:VCRUNTIME140.dll
 0001:0006e622       wcsstr                     000000018006f622 f   vcruntime:VCRUNTIME140.dll
 0001:0006e628       __C_specific_handler       000000018006f628 f   vcruntime:VCRUNTIME140.dll
 0001:0006e62e       __current_exception        000000018006f62e f   vcruntime:VCRUNTIME140.dll
 0001:0006e634       __current_exception_context 000000018006f634 f   vcruntime:VCRUNTIME140.dll
 0001:0006e63a       __std_type_info_destroy_list 000000018006f63a f   vcruntime:VCRUNTIME140.dll
 0001:0006e640       labs                       000000018006f640 f   ucrt:api-ms-win-crt-utility-l1-1-0.dll
 0001:0006e646       llabs                      000000018006f646 f   ucrt:api-ms-win-crt-utility-l1-1-0.dll
 0001:0006e64c       strcmp                     000000018006f64c f   ucrt:api-ms-win-crt-string-l1-1-0.dll
 0001:0006e652       fabs                       000000018006f652 f   ucrt:api-ms-win-crt-math-l1-1-0.dll
 0001:0006e658       fminf                      000000018006f658 f   ucrt:api-ms-win-crt-math-l1-1-0.dll
 0001:0006e65e       fmaxf                      000000018006f65e f   ucrt:api-ms-win-crt-math-l1-1-0.dll
 0001:0006e664       exp2f                      000000018006f664 f   ucrt:api-ms-win-crt-math-l1-1-0.dll
 0001:0006e66a       expm1f                     000000018006f66a f   ucrt:api-ms-win-crt-math-l1-1-0.dll
 0001:0006e670       log2f                      000000018006f670 f   ucrt:api-ms-win-crt-math-l1-1-0.dll
 0001:0006e676       log1pf                     000000018006f676 f   ucrt:api-ms-win-crt-math-l1-1-0.dll
 0001:0006e67c       acoshf                     000000018006f67c f   ucrt:api-ms-win-crt-math-l1-1-0.dll
 0001:0006e682       asinhf                     000000018006f682 f   ucrt:api-ms-win-crt-math-l1-1-0.dll
 0001:0006e688       atanhf                     000000018006f688 f   ucrt:api-ms-win-crt-math-l1-1-0.dll
 0001:0006e68e       ldexp                      000000018006f68e f   ucrt:api-ms-win-crt-math-l1-1-0.dll
 0001:0006e694       logbf                      000000018006f694 f   ucrt:api-ms-win-crt-math-l1-1-0.dll
 0001:0006e69a       ilogbf                     000000018006f69a f   ucrt:api-ms-win-crt-math-l1-1-0.dll
 0001:0006e6a0       scalblnf                   000000018006f6a0 f   ucrt:api-ms-win-crt-math-l1-1-0.dll
 0001:0006e6a6       frexp                      000000018006f6a6 f   ucrt:api-ms-win-crt-math-l1-1-0.dll
 0001:0006e6ac       roundf                     000000018006f6ac f   ucrt:api-ms-win-crt-math-l1-1-0.dll
 0001:0006e6b2       lroundf                    000000018006f6b2 f   ucrt:api-ms-win-crt-math-l1-1-0.dll
 0001:0006e6b8       llroundf                   000000018006f6b8 f   ucrt:api-ms-win-crt-math-l1-1-0.dll
 0001:0006e6be       rintf                      000000018006f6be f   ucrt:api-ms-win-crt-math-l1-1-0.dll
 0001:0006e6c4       lrintf                     000000018006f6c4 f   ucrt:api-ms-win-crt-math-l1-1-0.dll
 0001:0006e6ca       llrintf                    000000018006f6ca f   ucrt:api-ms-win-crt-math-l1-1-0.dll
 0001:0006e6d0       nearbyintf                 000000018006f6d0 f   ucrt:api-ms-win-crt-math-l1-1-0.dll
 0001:0006e6d6       truncf                     000000018006f6d6 f   ucrt:api-ms-win-crt-math-l1-1-0.dll
 0001:0006e6dc       fdimf                      000000018006f6dc f   ucrt:api-ms-win-crt-math-l1-1-0.dll
 0001:0006e6e2       cbrtf                      000000018006f6e2 f   ucrt:api-ms-win-crt-math-l1-1-0.dll
 0001:0006e6e8       remainderf                 000000018006f6e8 f   ucrt:api-ms-win-crt-math-l1-1-0.dll
 0001:0006e6ee       remquof                    000000018006f6ee f   ucrt:api-ms-win-crt-math-l1-1-0.dll
 0001:0006e6f4       erff                       000000018006f6f4 f   ucrt:api-ms-win-crt-math-l1-1-0.dll
 0001:0006e6fa       erfcf                      000000018006f6fa f   ucrt:api-ms-win-crt-math-l1-1-0.dll
 0001:0006e700       lgammaf                    000000018006f700 f   ucrt:api-ms-win-crt-math-l1-1-0.dll
 0001:0006e706       tgammaf                    000000018006f706 f   ucrt:api-ms-win-crt-math-l1-1-0.dll
 0001:0006e70c       copysignf                  000000018006f70c f   ucrt:api-ms-win-crt-math-l1-1-0.dll
 0001:0006e712       nextafterf                 000000018006f712 f   ucrt:api-ms-win-crt-math-l1-1-0.dll
 0001:0006e718       fmaf                       000000018006f718 f   ucrt:api-ms-win-crt-math-l1-1-0.dll
 0001:0006e71e       acosf                      000000018006f71e f   ucrt:api-ms-win-crt-math-l1-1-0.dll
 0001:0006e724       asinf                      000000018006f724 f   ucrt:api-ms-win-crt-math-l1-1-0.dll
 0001:0006e72a       atanf                      000000018006f72a f   ucrt:api-ms-win-crt-math-l1-1-0.dll
 0001:0006e730       atan2f                     000000018006f730 f   ucrt:api-ms-win-crt-math-l1-1-0.dll
 0001:0006e736       cosf                       000000018006f736 f   ucrt:api-ms-win-crt-math-l1-1-0.dll
 0001:0006e73c       sinf                       000000018006f73c f   ucrt:api-ms-win-crt-math-l1-1-0.dll
 0001:0006e742       tanf                       000000018006f742 f   ucrt:api-ms-win-crt-math-l1-1-0.dll
 0001:0006e748       coshf                      000000018006f748 f   ucrt:api-ms-win-crt-math-l1-1-0.dll
 0001:0006e74e       sinhf                      000000018006f74e f   ucrt:api-ms-win-crt-math-l1-1-0.dll
 0001:0006e754       tanhf                      000000018006f754 f   ucrt:api-ms-win-crt-math-l1-1-0.dll
 0001:0006e75a       expf                       000000018006f75a f   ucrt:api-ms-win-crt-math-l1-1-0.dll
 0001:0006e760       logf                       000000018006f760 f   ucrt:api-ms-win-crt-math-l1-1-0.dll
 0001:0006e766       log10f                     000000018006f766 f   ucrt:api-ms-win-crt-math-l1-1-0.dll
 0001:0006e76c       modff                      000000018006f76c f   ucrt:api-ms-win-crt-math-l1-1-0.dll
 0001:0006e772       powf                       000000018006f772 f   ucrt:api-ms-win-crt-math-l1-1-0.dll
 0001:0006e778       sqrtf                      000000018006f778 f   ucrt:api-ms-win-crt-math-l1-1-0.dll
 0001:0006e77e       ceilf                      000000018006f77e f   ucrt:api-ms-win-crt-math-l1-1-0.dll
 0001:0006e784       floorf                     000000018006f784 f   ucrt:api-ms-win-crt-math-l1-1-0.dll
 0001:0006e78a       fmodf                      000000018006f78a f   ucrt:api-ms-win-crt-math-l1-1-0.dll
 0001:0006e790       _dsign                     000000018006f790 f   ucrt:api-ms-win-crt-math-l1-1-0.dll
 0001:0006e796       _ldsign                    000000018006f796 f   ucrt:api-ms-win-crt-math-l1-1-0.dll
 0001:0006e79c       _fdsign                    000000018006f79c f   ucrt:api-ms-win-crt-math-l1-1-0.dll
 0001:0006e7a2       _hypotf                    000000018006f7a2 f   ucrt:api-ms-win-crt-math-l1-1-0.dll
 0001:0006e7a8       free                       000000018006f7a8 f   ucrt:api-ms-win-crt-heap-l1-1-0.dll
 0001:0006e7ae       malloc                     000000018006f7ae f   ucrt:api-ms-win-crt-heap-l1-1-0.dll
 0001:0006e7b4       strlen                     000000018006f7b4 f   ucrt:api-ms-win-crt-string-l1-1-0.dll
 0001:0006e7ba       __stdio_common_vsprintf    000000018006f7ba f   ucrt:api-ms-win-crt-stdio-l1-1-0.dll
 0001:0006e7c0       strcat                     000000018006f7c0 f   ucrt:api-ms-win-crt-string-l1-1-0.dll
 0001:0006e7c6       calloc                     000000018006f7c6 f   ucrt:api-ms-win-crt-heap-l1-1-0.dll
 0001:0006e7cc       _get_osfhandle             000000018006f7cc f   ucrt:api-ms-win-crt-stdio-l1-1-0.dll
 0001:0006e7d2       fclose                     000000018006f7d2 f   ucrt:api-ms-win-crt-stdio-l1-1-0.dll
 0001:0006e7d8       feof                       000000018006f7d8 f   ucrt:api-ms-win-crt-stdio-l1-1-0.dll
 0001:0006e7de       ferror                     000000018006f7de f   ucrt:api-ms-win-crt-stdio-l1-1-0.dll
 0001:0006e7e4       fflush                     000000018006f7e4 f   ucrt:api-ms-win-crt-stdio-l1-1-0.dll
 0001:0006e7ea       fgetc                      000000018006f7ea f   ucrt:api-ms-win-crt-stdio-l1-1-0.dll
 0001:0006e7f0       _fileno                    000000018006f7f0 f   ucrt:api-ms-win-crt-stdio-l1-1-0.dll
 0001:0006e7f6       fopen                      000000018006f7f6 f   ucrt:api-ms-win-crt-stdio-l1-1-0.dll
 0001:0006e7fc       fread                      000000018006f7fc f   ucrt:api-ms-win-crt-stdio-l1-1-0.dll
 0001:0006e802       fseek                      000000018006f802 f   ucrt:api-ms-win-crt-stdio-l1-1-0.dll
 0001:0006e808       ftell                      000000018006f808 f   ucrt:api-ms-win-crt-stdio-l1-1-0.dll
 0001:0006e80e       fwrite                     000000018006f80e f   ucrt:api-ms-win-crt-stdio-l1-1-0.dll
 0001:0006e814       strncat                    000000018006f814 f   ucrt:api-ms-win-crt-string-l1-1-0.dll
 0001:0006e81a       strncpy                    000000018006f81a f   ucrt:api-ms-win-crt-string-l1-1-0.dll
 0001:0006e820       realloc                    000000018006f820 f   ucrt:api-ms-win-crt-heap-l1-1-0.dll
 0001:0006e826       _beginthreadex             000000018006f826 f   ucrt:api-ms-win-crt-runtime-l1-1-0.dll
 0001:0006e82c       atoi                       000000018006f82c f   ucrt:api-ms-win-crt-convert-l1-1-0.dll
 0001:0006e832       strncmp                    000000018006f832 f   ucrt:api-ms-win-crt-string-l1-1-0.dll
 0001:0006e838       _time64                    000000018006f838 f   ucrt:api-ms-win-crt-time-l1-1-0.dll
 0001:0006e83e       isalpha                    000000018006f83e f   ucrt:api-ms-win-crt-string-l1-1-0.dll
 0001:0006e844       isdigit                    000000018006f844 f   ucrt:api-ms-win-crt-string-l1-1-0.dll
 0001:0006e84a       wcstok                     000000018006f84a f   ucrt:api-ms-win-crt-string-l1-1-0.dll
 0001:0006e850       _wcsicmp                   000000018006f850 f   ucrt:api-ms-win-crt-string-l1-1-0.dll
 0001:0006e856       _wcsnicmp                  000000018006f856 f   ucrt:api-ms-win-crt-string-l1-1-0.dll
 0001:0006e85c       _strnicmp                  000000018006f85c f   ucrt:api-ms-win-crt-string-l1-1-0.dll
 0001:0006e862       _seh_filter_dll            000000018006f862 f   ucrt:api-ms-win-crt-runtime-l1-1-0.dll
 0001:0006e868       _configure_narrow_argv     000000018006f868 f   ucrt:api-ms-win-crt-runtime-l1-1-0.dll
 0001:0006e86e       _initialize_narrow_environment 000000018006f86e f   ucrt:api-ms-win-crt-runtime-l1-1-0.dll
 0001:0006e874       _initialize_onexit_table   000000018006f874 f   ucrt:api-ms-win-crt-runtime-l1-1-0.dll
 0001:0006e87a       _register_onexit_function  000000018006f87a f   ucrt:api-ms-win-crt-runtime-l1-1-0.dll
 0001:0006e880       _execute_onexit_table      000000018006f880 f   ucrt:api-ms-win-crt-runtime-l1-1-0.dll
 0001:0006e886       _crt_atexit                000000018006f886 f   ucrt:api-ms-win-crt-runtime-l1-1-0.dll
 0001:0006e88c       _crt_at_quick_exit         000000018006f88c f   ucrt:api-ms-win-crt-runtime-l1-1-0.dll
 0001:0006e892       _cexit                     000000018006f892 f   ucrt:api-ms-win-crt-runtime-l1-1-0.dll
 0001:0006e898       _initterm                  000000018006f898 f   ucrt:api-ms-win-crt-runtime-l1-1-0.dll
 0001:0006e89e       _initterm_e                000000018006f89e f   ucrt:api-ms-win-crt-runtime-l1-1-0.dll
 0001:0006e8a4       terminate                  000000018006f8a4 f   ucrt:api-ms-win-crt-runtime-l1-1-0.dll
 0001:0006e8ac       __acrt_initialize          000000018006f8ac f   MSVCRT:ucrt_stubs.obj
 0001:0006e8ac       __scrt_stub_for_acrt_initialize 000000018006f8ac f   MSVCRT:ucrt_stubs.obj
 0001:0006e8ac       __vcrt_initialize          000000018006f8ac f   MSVCRT:ucrt_stubs.obj
 0001:0006e8b0       __acrt_thread_attach       000000018006f8b0 f   MSVCRT:ucrt_stubs.obj
 0001:0006e8b0       __scrt_stub_for_acrt_thread_attach 000000018006f8b0 f   MSVCRT:ucrt_stubs.obj
 0001:0006e8b0       __vcrt_thread_attach       000000018006f8b0 f   MSVCRT:ucrt_stubs.obj
 0001:0006e8b4       __acrt_thread_detach       000000018006f8b4 f   MSVCRT:ucrt_stubs.obj
 0001:0006e8b4       __scrt_stub_for_acrt_thread_detach 000000018006f8b4 f   MSVCRT:ucrt_stubs.obj
 0001:0006e8b4       __vcrt_thread_detach       000000018006f8b4 f   MSVCRT:ucrt_stubs.obj
 0001:0006e8b8       __acrt_uninitialize        000000018006f8b8 f   MSVCRT:ucrt_stubs.obj
 0001:0006e8b8       __scrt_stub_for_acrt_uninitialize 000000018006f8b8 f   MSVCRT:ucrt_stubs.obj
 0001:0006e8b8       __vcrt_uninitialize        000000018006f8b8 f   MSVCRT:ucrt_stubs.obj
 0001:0006e8bc       __acrt_uninitialize_critical 000000018006f8bc f   MSVCRT:ucrt_stubs.obj
 0001:0006e8bc       __scrt_stub_for_acrt_uninitialize_critical 000000018006f8bc f   MSVCRT:ucrt_stubs.obj
 0001:0006e8bc       __vcrt_uninitialize_critical 000000018006f8bc f   MSVCRT:ucrt_stubs.obj
 0001:0006e8c0       __scrt_stub_for_is_c_termination_complete 000000018006f8c0 f   MSVCRT:ucrt_stubs.obj
 0001:0006e8c0       _is_c_termination_complete 000000018006f8c0 f   MSVCRT:ucrt_stubs.obj
 0001:0006e8e0       _guard_dispatch_icall_nop  000000018006f8e0 f   MSVCRT:guard_dispatch.obj
 0001:0006e900       _guard_xfg_dispatch_icall_nop 000000018006f900 f   MSVCRT:guard_xfg_dispatch.obj
 0002:00000000       __imp_LoadLibraryExA       0000000180070000     kernel32:KERNEL32.dll
 0002:00000008       __imp_InitializeSListHead  0000000180070008     kernel32:KERNEL32.dll
 0002:00000010       __imp_DisableThreadLibraryCalls 0000000180070010     kernel32:KERNEL32.dll
 0002:00000018       __imp_GetSystemTimeAsFileTime 0000000180070018     kernel32:KERNEL32.dll
 0002:00000020       __imp_GetStartupInfoW      0000000180070020     kernel32:KERNEL32.dll
 0002:00000028       __imp_IsDebuggerPresent    0000000180070028     kernel32:KERNEL32.dll
 0002:00000030       __imp_IsProcessorFeaturePresent 0000000180070030     kernel32:KERNEL32.dll
 0002:00000038       __imp_TerminateProcess     0000000180070038     kernel32:KERNEL32.dll
 0002:00000040       __imp_SetUnhandledExceptionFilter 0000000180070040     kernel32:KERNEL32.dll
 0002:00000048       __imp_UnhandledExceptionFilter 0000000180070048     kernel32:KERNEL32.dll
 0002:00000050       __imp_RtlVirtualUnwind     0000000180070050     kernel32:KERNEL32.dll
 0002:00000058       __imp_RtlLookupFunctionEntry 0000000180070058     kernel32:KERNEL32.dll
 0002:00000060       __imp_RtlCaptureContext    0000000180070060     kernel32:KERNEL32.dll
 0002:00000068       __imp_VerifyVersionInfoW   0000000180070068     kernel32:KERNEL32.dll
 0002:00000070       __imp_LocalFree            0000000180070070     kernel32:KERNEL32.dll
 0002:00000078       __imp_LocalAlloc           0000000180070078     kernel32:KERNEL32.dll
 0002:00000080       __imp_LoadLibraryExW       0000000180070080     kernel32:KERNEL32.dll
 0002:00000088       __imp_GetModuleHandleW     0000000180070088     kernel32:KERNEL32.dll
 0002:00000090       __imp_GetModuleFileNameW   0000000180070090     kernel32:KERNEL32.dll
 0002:00000098       __imp_GetSystemDirectoryW  0000000180070098     kernel32:KERNEL32.dll
 0002:000000a0       __imp_CreateProcessW       00000001800700a0     kernel32:KERNEL32.dll
 0002:000000a8       __imp_CreateProcessA       00000001800700a8     kernel32:KERNEL32.dll
 0002:000000b0       __imp_SetLastError         00000001800700b0     kernel32:KERNEL32.dll
 0002:000000b8       __imp_GetFullPathNameW     00000001800700b8     kernel32:KERNEL32.dll
 0002:000000c0       __imp_GetFileAttributesW   00000001800700c0     kernel32:KERNEL32.dll
 0002:000000c8       __imp_CreateFileW          00000001800700c8     kernel32:KERNEL32.dll
 0002:000000d0       __imp_VerSetConditionMask  00000001800700d0     kernel32:KERNEL32.dll
 0002:000000d8       __imp_GetNumaNodeProcessorMask 00000001800700d8     kernel32:KERNEL32.dll
 0002:000000e0       __imp_GetComputerNameA     00000001800700e0     kernel32:KERNEL32.dll
 0002:000000e8       __imp_CreateFileMappingNumaA 00000001800700e8     kernel32:KERNEL32.dll
 0002:000000f0       __imp_CreateFileMappingA   00000001800700f0     kernel32:KERNEL32.dll
 0002:000000f8       __imp_CreateSemaphoreA     00000001800700f8     kernel32:KERNEL32.dll
 0002:00000100       __imp_SetThreadAffinityMask 0000000180070100     kernel32:KERNEL32.dll
 0002:00000108       __imp_GetProcessAffinityMask 0000000180070108     kernel32:KERNEL32.dll
 0002:00000110       __imp_LoadLibraryA         0000000180070110     kernel32:KERNEL32.dll
 0002:00000118       __imp_GetProcAddress       0000000180070118     kernel32:KERNEL32.dll
 0002:00000120       __imp_GetModuleHandleExA   0000000180070120     kernel32:KERNEL32.dll
 0002:00000128       __imp_GetModuleHandleA     0000000180070128     kernel32:KERNEL32.dll
 0002:00000130       __imp_GetModuleFileNameA   0000000180070130     kernel32:KERNEL32.dll
 0002:00000138       __imp_FreeLibraryAndExitThread 0000000180070138     kernel32:KERNEL32.dll
 0002:00000140       __imp_FreeLibrary          0000000180070140     kernel32:KERNEL32.dll
 0002:00000148       __imp_GetLargePageMinimum  0000000180070148     kernel32:KERNEL32.dll
 0002:00000150       __imp_VirtualQuery         0000000180070150     kernel32:KERNEL32.dll
 0002:00000158       __imp_VirtualFree          0000000180070158     kernel32:KERNEL32.dll
 0002:00000160       __imp_VirtualProtect       0000000180070160     kernel32:KERNEL32.dll
 0002:00000168       __imp_VirtualAlloc         0000000180070168     kernel32:KERNEL32.dll
 0002:00000170       __imp_GetNativeSystemInfo  0000000180070170     kernel32:KERNEL32.dll
 0002:00000178       __imp_GetLocalTime         0000000180070178     kernel32:KERNEL32.dll
 0002:00000180       __imp_GetSystemInfo        0000000180070180     kernel32:KERNEL32.dll
 0002:00000188       __imp_GlobalMemoryStatusEx 0000000180070188     kernel32:KERNEL32.dll
 0002:00000190       __imp_TlsFree              0000000180070190     kernel32:KERNEL32.dll
 0002:00000198       __imp_TlsSetValue          0000000180070198     kernel32:KERNEL32.dll
 0002:000001a0       __imp_TlsGetValue          00000001800701a0     kernel32:KERNEL32.dll
 0002:000001a8       __imp_TlsAlloc             00000001800701a8     kernel32:KERNEL32.dll
 0002:000001b0       __imp_GetCurrentThreadId   00000001800701b0     kernel32:KERNEL32.dll
 0002:000001b8       __imp_GetCurrentThread     00000001800701b8     kernel32:KERNEL32.dll
 0002:000001c0       __imp_SwitchToThread       00000001800701c0     kernel32:KERNEL32.dll
 0002:000001c8       __imp_GetCurrentProcessId  00000001800701c8     kernel32:KERNEL32.dll
 0002:000001d0       __imp_GetCurrentProcess    00000001800701d0     kernel32:KERNEL32.dll
 0002:000001d8       __imp_WaitForMultipleObjects 00000001800701d8     kernel32:KERNEL32.dll
 0002:000001e0       __imp_Sleep                00000001800701e0     kernel32:KERNEL32.dll
 0002:000001e8       __imp_CreateEventA         00000001800701e8     kernel32:KERNEL32.dll
 0002:000001f0       __imp_WaitForSingleObject  00000001800701f0     kernel32:KERNEL32.dll
 0002:000001f8       __imp_ReleaseSemaphore     00000001800701f8     kernel32:KERNEL32.dll
 0002:00000200       __imp_ResetEvent           0000000180070200     kernel32:KERNEL32.dll
 0002:00000208       __imp_SetEvent             0000000180070208     kernel32:KERNEL32.dll
 0002:00000210       __imp_SleepConditionVariableCS 0000000180070210     kernel32:KERNEL32.dll
 0002:00000218       __imp_WakeAllConditionVariable 0000000180070218     kernel32:KERNEL32.dll
 0002:00000220       __imp_WakeConditionVariable 0000000180070220     kernel32:KERNEL32.dll
 0002:00000228       __imp_InitializeConditionVariable 0000000180070228     kernel32:KERNEL32.dll
 0002:00000230       __imp_DeleteCriticalSection 0000000180070230     kernel32:KERNEL32.dll
 0002:00000238       __imp_TryEnterCriticalSection 0000000180070238     kernel32:KERNEL32.dll
 0002:00000240       __imp_GetEnvironmentVariableA 0000000180070240     kernel32:KERNEL32.dll
 0002:00000248       __imp_SetEnvironmentVariableA 0000000180070248     kernel32:KERNEL32.dll
 0002:00000250       __imp_GetCurrentDirectoryA 0000000180070250     kernel32:KERNEL32.dll
 0002:00000258       __imp_CreateDirectoryA     0000000180070258     kernel32:KERNEL32.dll
 0002:00000260       __imp_DeleteFileA          0000000180070260     kernel32:KERNEL32.dll
 0002:00000268       __imp_FindClose            0000000180070268     kernel32:KERNEL32.dll
 0002:00000270       __imp_FindFirstFileA       0000000180070270     kernel32:KERNEL32.dll
 0002:00000278       __imp_FindNextFileA        0000000180070278     kernel32:KERNEL32.dll
 0002:00000280       __imp_GetFileAttributesExA 0000000180070280     kernel32:KERNEL32.dll
 0002:00000288       __imp_LockFileEx           0000000180070288     kernel32:KERNEL32.dll
 0002:00000290       __imp_RemoveDirectoryA     0000000180070290     kernel32:KERNEL32.dll
 0002:00000298       __imp_UnlockFileEx         0000000180070298     kernel32:KERNEL32.dll
 0002:000002a0       __imp_CloseHandle          00000001800702a0     kernel32:KERNEL32.dll
 0002:000002a8       __imp_GetLastError         00000001800702a8     kernel32:KERNEL32.dll
 0002:000002b0       __imp_QueryPerformanceCounter 00000001800702b0     kernel32:KERNEL32.dll
 0002:000002b8       __imp_QueryPerformanceFrequency 00000001800702b8     kernel32:KERNEL32.dll
 0002:000002c0       __imp_HeapCreate           00000001800702c0     kernel32:KERNEL32.dll
 0002:000002c8       __imp_HeapDestroy          00000001800702c8     kernel32:KERNEL32.dll
 0002:000002d0       __imp_HeapAlloc            00000001800702d0     kernel32:KERNEL32.dll
 0002:000002d8       __imp_HeapReAlloc          00000001800702d8     kernel32:KERNEL32.dll
 0002:000002e0       __imp_HeapFree             00000001800702e0     kernel32:KERNEL32.dll
 0002:000002e8       __imp_InitializeSRWLock    00000001800702e8     kernel32:KERNEL32.dll
 0002:000002f0       __imp_ReleaseSRWLockExclusive 00000001800702f0     kernel32:KERNEL32.dll
 0002:000002f8       __imp_ReleaseSRWLockShared 00000001800702f8     kernel32:KERNEL32.dll
 0002:00000300       __imp_AcquireSRWLockExclusive 0000000180070300     kernel32:KERNEL32.dll
 0002:00000308       __imp_AcquireSRWLockShared 0000000180070308     kernel32:KERNEL32.dll
 0002:00000310       __imp_TryAcquireSRWLockExclusive 0000000180070310     kernel32:KERNEL32.dll
 0002:00000318       __imp_TryAcquireSRWLockShared 0000000180070318     kernel32:KERNEL32.dll
 0002:00000320       __imp_InitializeCriticalSection 0000000180070320     kernel32:KERNEL32.dll
 0002:00000328       __imp_EnterCriticalSection 0000000180070328     kernel32:KERNEL32.dll
 0002:00000330       __imp_LeaveCriticalSection 0000000180070330     kernel32:KERNEL32.dll
 0002:00000338       \177KERNEL32_NULL_THUNK_DATA 0000000180070338     kernel32:KERNEL32.dll
 0002:00000340       __imp_memset               0000000180070340     vcruntime:VCRUNTIME140.dll
 0002:00000348       __imp_memcmp               0000000180070348     vcruntime:VCRUNTIME140.dll
 0002:00000350       __imp_wcsrchr              0000000180070350     vcruntime:VCRUNTIME140.dll
 0002:00000358       __imp_wcsstr               0000000180070358     vcruntime:VCRUNTIME140.dll
 0002:00000360       __imp___C_specific_handler 0000000180070360     vcruntime:VCRUNTIME140.dll
 0002:00000368       __imp___current_exception  0000000180070368     vcruntime:VCRUNTIME140.dll
 0002:00000370       __imp___current_exception_context 0000000180070370     vcruntime:VCRUNTIME140.dll
 0002:00000378       __imp___std_type_info_destroy_list 0000000180070378     vcruntime:VCRUNTIME140.dll
 0002:00000380       __imp_memcpy               0000000180070380     vcruntime:VCRUNTIME140.dll
 0002:00000388       \177VCRUNTIME140_NULL_THUNK_DATA 0000000180070388     vcruntime:VCRUNTIME140.dll
 0002:00000390       __imp_atoi                 0000000180070390     ucrt:api-ms-win-crt-convert-l1-1-0.dll
 0002:00000398       \177api-ms-win-crt-convert-l1-1-0_NULL_THUNK_DATA 0000000180070398     ucrt:api-ms-win-crt-convert-l1-1-0.dll
 0002:000003a0       __imp_realloc              00000001800703a0     ucrt:api-ms-win-crt-heap-l1-1-0.dll
 0002:000003a8       __imp_calloc               00000001800703a8     ucrt:api-ms-win-crt-heap-l1-1-0.dll
 0002:000003b0       __imp_malloc               00000001800703b0     ucrt:api-ms-win-crt-heap-l1-1-0.dll
 0002:000003b8       __imp_free                 00000001800703b8     ucrt:api-ms-win-crt-heap-l1-1-0.dll
 0002:000003c0       \177api-ms-win-crt-heap-l1-1-0_NULL_THUNK_DATA 00000001800703c0     ucrt:api-ms-win-crt-heap-l1-1-0.dll
 0002:000003c8       __imp__dsign               00000001800703c8     ucrt:api-ms-win-crt-math-l1-1-0.dll
 0002:000003d0       __imp__ldsign              00000001800703d0     ucrt:api-ms-win-crt-math-l1-1-0.dll
 0002:000003d8       __imp__fdsign              00000001800703d8     ucrt:api-ms-win-crt-math-l1-1-0.dll
 0002:000003e0       __imp__hypotf              00000001800703e0     ucrt:api-ms-win-crt-math-l1-1-0.dll
 0002:000003e8       __imp_floorf               00000001800703e8     ucrt:api-ms-win-crt-math-l1-1-0.dll
 0002:000003f0       __imp_ceilf                00000001800703f0     ucrt:api-ms-win-crt-math-l1-1-0.dll
 0002:000003f8       __imp_copysignf            00000001800703f8     ucrt:api-ms-win-crt-math-l1-1-0.dll
 0002:00000400       __imp_tgammaf              0000000180070400     ucrt:api-ms-win-crt-math-l1-1-0.dll
 0002:00000408       __imp_lgammaf              0000000180070408     ucrt:api-ms-win-crt-math-l1-1-0.dll
 0002:00000410       __imp_sqrtf                0000000180070410     ucrt:api-ms-win-crt-math-l1-1-0.dll
 0002:00000418       __imp_erfcf                0000000180070418     ucrt:api-ms-win-crt-math-l1-1-0.dll
 0002:00000420       __imp_erff                 0000000180070420     ucrt:api-ms-win-crt-math-l1-1-0.dll
 0002:00000428       __imp_remquof              0000000180070428     ucrt:api-ms-win-crt-math-l1-1-0.dll
 0002:00000430       __imp_remainderf           0000000180070430     ucrt:api-ms-win-crt-math-l1-1-0.dll
 0002:00000438       __imp_cbrtf                0000000180070438     ucrt:api-ms-win-crt-math-l1-1-0.dll
 0002:00000440       __imp_fdimf                0000000180070440     ucrt:api-ms-win-crt-math-l1-1-0.dll
 0002:00000448       __imp_truncf               0000000180070448     ucrt:api-ms-win-crt-math-l1-1-0.dll
 0002:00000450       __imp_nearbyintf           0000000180070450     ucrt:api-ms-win-crt-math-l1-1-0.dll
 0002:00000458       __imp_llrintf              0000000180070458     ucrt:api-ms-win-crt-math-l1-1-0.dll
 0002:00000460       __imp_expf                 0000000180070460     ucrt:api-ms-win-crt-math-l1-1-0.dll
 0002:00000468       __imp_rintf                0000000180070468     ucrt:api-ms-win-crt-math-l1-1-0.dll
 0002:00000470       __imp_llroundf             0000000180070470     ucrt:api-ms-win-crt-math-l1-1-0.dll
 0002:00000478       __imp_lroundf              0000000180070478     ucrt:api-ms-win-crt-math-l1-1-0.dll
 0002:00000480       __imp_powf                 0000000180070480     ucrt:api-ms-win-crt-math-l1-1-0.dll
 0002:00000488       __imp_logf                 0000000180070488     ucrt:api-ms-win-crt-math-l1-1-0.dll
 0002:00000490       __imp_frexp                0000000180070490     ucrt:api-ms-win-crt-math-l1-1-0.dll
 0002:00000498       __imp_modff                0000000180070498     ucrt:api-ms-win-crt-math-l1-1-0.dll
 0002:000004a0       __imp_scalblnf             00000001800704a0     ucrt:api-ms-win-crt-math-l1-1-0.dll
 0002:000004a8       __imp_ilogbf               00000001800704a8     ucrt:api-ms-win-crt-math-l1-1-0.dll
 0002:000004b0       __imp_logbf                00000001800704b0     ucrt:api-ms-win-crt-math-l1-1-0.dll
 0002:000004b8       __imp_ldexp                00000001800704b8     ucrt:api-ms-win-crt-math-l1-1-0.dll
 0002:000004c0       __imp_atanhf               00000001800704c0     ucrt:api-ms-win-crt-math-l1-1-0.dll
 0002:000004c8       __imp_asinhf               00000001800704c8     ucrt:api-ms-win-crt-math-l1-1-0.dll
 0002:000004d0       __imp_acoshf               00000001800704d0     ucrt:api-ms-win-crt-math-l1-1-0.dll
 0002:000004d8       __imp_log1pf               00000001800704d8     ucrt:api-ms-win-crt-math-l1-1-0.dll
 0002:000004e0       __imp_log2f                00000001800704e0     ucrt:api-ms-win-crt-math-l1-1-0.dll
 0002:000004e8       __imp_expm1f               00000001800704e8     ucrt:api-ms-win-crt-math-l1-1-0.dll
 0002:000004f0       __imp_exp2f                00000001800704f0     ucrt:api-ms-win-crt-math-l1-1-0.dll
 0002:000004f8       __imp_fmaxf                00000001800704f8     ucrt:api-ms-win-crt-math-l1-1-0.dll
 0002:00000500       __imp_fminf                0000000180070500     ucrt:api-ms-win-crt-math-l1-1-0.dll
 0002:00000508       __imp_fabs                 0000000180070508     ucrt:api-ms-win-crt-math-l1-1-0.dll
 0002:00000510       __imp_nextafterf           0000000180070510     ucrt:api-ms-win-crt-math-l1-1-0.dll
 0002:00000518       __imp_fmaf                 0000000180070518     ucrt:api-ms-win-crt-math-l1-1-0.dll
 0002:00000520       __imp_acosf                0000000180070520     ucrt:api-ms-win-crt-math-l1-1-0.dll
 0002:00000528       __imp_log10f               0000000180070528     ucrt:api-ms-win-crt-math-l1-1-0.dll
 0002:00000530       __imp_tanhf                0000000180070530     ucrt:api-ms-win-crt-math-l1-1-0.dll
 0002:00000538       __imp_sinhf                0000000180070538     ucrt:api-ms-win-crt-math-l1-1-0.dll
 0002:00000540       __imp_coshf                0000000180070540     ucrt:api-ms-win-crt-math-l1-1-0.dll
 0002:00000548       __imp_tanf                 0000000180070548     ucrt:api-ms-win-crt-math-l1-1-0.dll
 0002:00000550       __imp_sinf                 0000000180070550     ucrt:api-ms-win-crt-math-l1-1-0.dll
 0002:00000558       __imp_fmodf                0000000180070558     ucrt:api-ms-win-crt-math-l1-1-0.dll
 0002:00000560       __imp_cosf                 0000000180070560     ucrt:api-ms-win-crt-math-l1-1-0.dll
 0002:00000568       __imp_atan2f               0000000180070568     ucrt:api-ms-win-crt-math-l1-1-0.dll
 0002:00000570       __imp_roundf               0000000180070570     ucrt:api-ms-win-crt-math-l1-1-0.dll
 0002:00000578       __imp_atanf                0000000180070578     ucrt:api-ms-win-crt-math-l1-1-0.dll
 0002:00000580       __imp_lrintf               0000000180070580     ucrt:api-ms-win-crt-math-l1-1-0.dll
 0002:00000588       __imp_asinf                0000000180070588     ucrt:api-ms-win-crt-math-l1-1-0.dll
 0002:00000590       \177api-ms-win-crt-math-l1-1-0_NULL_THUNK_DATA 0000000180070590     ucrt:api-ms-win-crt-math-l1-1-0.dll
 0002:00000598       __imp__beginthreadex       0000000180070598     ucrt:api-ms-win-crt-runtime-l1-1-0.dll
 0002:000005a0       __imp__execute_onexit_table 00000001800705a0     ucrt:api-ms-win-crt-runtime-l1-1-0.dll
 0002:000005a8       __imp__initialize_narrow_environment 00000001800705a8     ucrt:api-ms-win-crt-runtime-l1-1-0.dll
 0002:000005b0       __imp_terminate            00000001800705b0     ucrt:api-ms-win-crt-runtime-l1-1-0.dll
 0002:000005b8       __imp__initterm_e          00000001800705b8     ucrt:api-ms-win-crt-runtime-l1-1-0.dll
 0002:000005c0       __imp__initterm            00000001800705c0     ucrt:api-ms-win-crt-runtime-l1-1-0.dll
 0002:000005c8       __imp__cexit               00000001800705c8     ucrt:api-ms-win-crt-runtime-l1-1-0.dll
 0002:000005d0       __imp__crt_at_quick_exit   00000001800705d0     ucrt:api-ms-win-crt-runtime-l1-1-0.dll
 0002:000005d8       __imp__crt_atexit          00000001800705d8     ucrt:api-ms-win-crt-runtime-l1-1-0.dll
 0002:000005e0       __imp__seh_filter_dll      00000001800705e0     ucrt:api-ms-win-crt-runtime-l1-1-0.dll
 0002:000005e8       __imp__register_onexit_function 00000001800705e8     ucrt:api-ms-win-crt-runtime-l1-1-0.dll
 0002:000005f0       __imp__initialize_onexit_table 00000001800705f0     ucrt:api-ms-win-crt-runtime-l1-1-0.dll
 0002:000005f8       __imp__configure_narrow_argv 00000001800705f8     ucrt:api-ms-win-crt-runtime-l1-1-0.dll
 0002:00000600       \177api-ms-win-crt-runtime-l1-1-0_NULL_THUNK_DATA 0000000180070600     ucrt:api-ms-win-crt-runtime-l1-1-0.dll
 0002:00000608       __imp_ftell                0000000180070608     ucrt:api-ms-win-crt-stdio-l1-1-0.dll
 0002:00000610       __imp_fclose               0000000180070610     ucrt:api-ms-win-crt-stdio-l1-1-0.dll
 0002:00000618       __imp_feof                 0000000180070618     ucrt:api-ms-win-crt-stdio-l1-1-0.dll
 0002:00000620       __imp_ferror               0000000180070620     ucrt:api-ms-win-crt-stdio-l1-1-0.dll
 0002:00000628       __imp_fflush               0000000180070628     ucrt:api-ms-win-crt-stdio-l1-1-0.dll
 0002:00000630       __imp_fgetc                0000000180070630     ucrt:api-ms-win-crt-stdio-l1-1-0.dll
 0002:00000638       __imp__fileno              0000000180070638     ucrt:api-ms-win-crt-stdio-l1-1-0.dll
 0002:00000640       __imp_fopen                0000000180070640     ucrt:api-ms-win-crt-stdio-l1-1-0.dll
 0002:00000648       __imp_fread                0000000180070648     ucrt:api-ms-win-crt-stdio-l1-1-0.dll
 0002:00000650       __imp___stdio_common_vsprintf 0000000180070650     ucrt:api-ms-win-crt-stdio-l1-1-0.dll
 0002:00000658       __imp_fseek                0000000180070658     ucrt:api-ms-win-crt-stdio-l1-1-0.dll
 0002:00000660       __imp_fwrite               0000000180070660     ucrt:api-ms-win-crt-stdio-l1-1-0.dll
 0002:00000668       __imp__get_osfhandle       0000000180070668     ucrt:api-ms-win-crt-stdio-l1-1-0.dll
 0002:00000670       \177api-ms-win-crt-stdio-l1-1-0_NULL_THUNK_DATA 0000000180070670     ucrt:api-ms-win-crt-stdio-l1-1-0.dll
 0002:00000678       __imp_strcmp               0000000180070678     ucrt:api-ms-win-crt-string-l1-1-0.dll
 0002:00000680       __imp_strncpy              0000000180070680     ucrt:api-ms-win-crt-string-l1-1-0.dll
 0002:00000688       __imp_strncmp              0000000180070688     ucrt:api-ms-win-crt-string-l1-1-0.dll
 0002:00000690       __imp_strlen               0000000180070690     ucrt:api-ms-win-crt-string-l1-1-0.dll
 0002:00000698       __imp_isalpha              0000000180070698     ucrt:api-ms-win-crt-string-l1-1-0.dll
 0002:000006a0       __imp_isdigit              00000001800706a0     ucrt:api-ms-win-crt-string-l1-1-0.dll
 0002:000006a8       __imp_wcstok               00000001800706a8     ucrt:api-ms-win-crt-string-l1-1-0.dll
 0002:000006b0       __imp__wcsicmp             00000001800706b0     ucrt:api-ms-win-crt-string-l1-1-0.dll
 0002:000006b8       __imp__wcsnicmp            00000001800706b8     ucrt:api-ms-win-crt-string-l1-1-0.dll
 0002:000006c0       __imp__strnicmp            00000001800706c0     ucrt:api-ms-win-crt-string-l1-1-0.dll
 0002:000006c8       __imp_strncat              00000001800706c8     ucrt:api-ms-win-crt-string-l1-1-0.dll
 0002:000006d0       __imp_strcat               00000001800706d0     ucrt:api-ms-win-crt-string-l1-1-0.dll
 0002:000006d8       \177api-ms-win-crt-string-l1-1-0_NULL_THUNK_DATA 00000001800706d8     ucrt:api-ms-win-crt-string-l1-1-0.dll
 0002:000006e0       __imp__time64              00000001800706e0     ucrt:api-ms-win-crt-time-l1-1-0.dll
 0002:000006e8       \177api-ms-win-crt-time-l1-1-0_NULL_THUNK_DATA 00000001800706e8     ucrt:api-ms-win-crt-time-l1-1-0.dll
 0002:000006f0       __imp_labs                 00000001800706f0     ucrt:api-ms-win-crt-utility-l1-1-0.dll
 0002:000006f8       __imp_llabs                00000001800706f8     ucrt:api-ms-win-crt-utility-l1-1-0.dll
 0002:00000700       \177api-ms-win-crt-utility-l1-1-0_NULL_THUNK_DATA 0000000180070700     ucrt:api-ms-win-crt-utility-l1-1-0.dll
 0002:00000708       __imp_emlrtThinCUDAError   0000000180070708     libemlrt:libemlrt.dll
 0002:00000710       __imp_emlrtLicenseCheckR2022a 0000000180070710     libemlrt:libemlrt.dll
 0002:00000718       __imp_emlrtInitGPU         0000000180070718     libemlrt:libemlrt.dll
 0002:00000720       \177libemlrt_NULL_THUNK_DATA 0000000180070720     libemlrt:libemlrt.dll
 0002:00000728       __imp_mexCallMATLAB_800    0000000180070728     libmex:libmex.dll
 0002:00000730       __imp_mexWarnMsgTxt_800    0000000180070730     libmex:libmex.dll
 0002:00000738       __imp_mexErrMsgTxt_800     0000000180070738     libmex:libmex.dll
 0002:00000740       __imp_mexMakeArrayPersistent_800 0000000180070740     libmex:libmex.dll
 0002:00000748       __imp_mexLock_800          0000000180070748     libmex:libmex.dll
 0002:00000750       __imp_mexUnlock_800        0000000180070750     libmex:libmex.dll
 0002:00000758       __imp_mexIsLocked_800      0000000180070758     libmex:libmex.dll
 0002:00000760       \177libmex_NULL_THUNK_DATA 0000000180070760     libmex:libmex.dll
 0002:00000768       __imp_muDoubleScalarCos    0000000180070768     libmwmathutil:libmwmathutil.dll
 0002:00000770       __imp_muDoubleScalarSin    0000000180070770     libmwmathutil:libmwmathutil.dll
 0002:00000778       \177libmwmathutil_NULL_THUNK_DATA 0000000180070778     libmwmathutil:libmwmathutil.dll
 0002:00000780       __imp_mxIsChar_800         0000000180070780     libmx:libmx.dll
 0002:00000788       __imp_mxGetScalar_800      0000000180070788     libmx:libmx.dll
 0002:00000790       __imp_mxGetPr_800          0000000180070790     libmx:libmx.dll
 0002:00000798       __imp_mxCreateStructMatrix_800 0000000180070798     libmx:libmx.dll
 0002:000007a0       __imp_mxCreateCellMatrix_800 00000001800707a0     libmx:libmx.dll
 0002:000007a8       __imp_mxSetField_800       00000001800707a8     libmx:libmx.dll
 0002:000007b0       __imp_mxCreateString_800   00000001800707b0     libmx:libmx.dll
 0002:000007b8       __imp_mxCreateDoubleScalar_800 00000001800707b8     libmx:libmx.dll
 0002:000007c0       __imp_mxGetN_800           00000001800707c0     libmx:libmx.dll
 0002:000007c8       __imp_mxIsComplex_800      00000001800707c8     libmx:libmx.dll
 0002:000007d0       __imp_mxIsNumeric_800      00000001800707d0     libmx:libmx.dll
 0002:000007d8       __imp_mxGetClassID_800     00000001800707d8     libmx:libmx.dll
 0002:000007e0       __imp_mxGetM_800           00000001800707e0     libmx:libmx.dll
 0002:000007e8       __imp_mxCalloc_800         00000001800707e8     libmx:libmx.dll
 0002:000007f0       __imp_mxDuplicateArray_800 00000001800707f0     libmx:libmx.dll
 0002:000007f8       __imp_mxGetString_800      00000001800707f8     libmx:libmx.dll
 0002:00000800       __imp_mxCreateDoubleMatrix_800 0000000180070800     libmx:libmx.dll
 0002:00000808       __imp_mxDestroyArray_800   0000000180070808     libmx:libmx.dll
 0002:00000810       \177libmx_NULL_THUNK_DATA  0000000180070810     libmx:libmx.dll
 0002:00000818       __imp_utFree               0000000180070818     libut:libut.dll
 0002:00000820       __imp_utMalloc             0000000180070820     libut:libut.dll
 0002:00000828       \177libut_NULL_THUNK_DATA  0000000180070828     libut:libut.dll
 0002:00000830       __imp_ssGetOutputPortSignal_wrapper 0000000180070830     sf_runtime:sf_runtime.dll
 0002:00000838       __imp_ssGetInputPortSignal_wrapper 0000000180070838     sf_runtime:sf_runtime.dll
 0002:00000840       __imp_sf_mex_import        0000000180070840     sf_runtime:sf_runtime.dll
 0002:00000848       __imp_sf_mex_destroy       0000000180070848     sf_runtime:sf_runtime.dll
 0002:00000850       __imp_sf_mex_dup           0000000180070850     sf_runtime:sf_runtime.dll
 0002:00000858       __imp_sf_mex_assign        0000000180070858     sf_runtime:sf_runtime.dll
 0002:00000860       __imp_sf_mex_getcell       0000000180070860     sf_runtime:sf_runtime.dll
 0002:00000868       __imp_sf_mex_setcell       0000000180070868     sf_runtime:sf_runtime.dll
 0002:00000870       __imp_sf_mex_createcellmatrix 0000000180070870     sf_runtime:sf_runtime.dll
 0002:00000878       __imp_sf_mex_create        0000000180070878     sf_runtime:sf_runtime.dll
 0002:00000880       __imp_sf_mex_error_message 0000000180070880     sf_runtime:sf_runtime.dll
 0002:00000888       __imp_sf_mex_call          0000000180070888     sf_runtime:sf_runtime.dll
 0002:00000890       __imp_sf_mex_decode        0000000180070890     sf_runtime:sf_runtime.dll
 0002:00000898       __imp_mdlProcessParamsCommon 0000000180070898     sf_runtime:sf_runtime.dll
 0002:000008a0       __imp_sf_set_work_widths   00000001800708a0     sf_runtime:sf_runtime.dll
 0002:000008a8       __imp_sf_get_time          00000001800708a8     sf_runtime:sf_runtime.dll
 0002:000008b0       __imp_sf_clear_rtw_identifier 00000001800708b0     sf_runtime:sf_runtime.dll
 0002:000008b8       __imp_sim_mode_is_external 00000001800708b8     sf_runtime:sf_runtime.dll
 0002:000008c0       __imp_sim_mode_is_rtw_gen  00000001800708c0     sf_runtime:sf_runtime.dll
 0002:000008c8       __imp_sfSetAnimationVectors 00000001800708c8     sf_runtime:sf_runtime.dll
 0002:000008d0       __imp_sf_get_chart_instance_ptr 00000001800708d0     sf_runtime:sf_runtime.dll
 0002:000008d8       __imp_sfrtGetEmlrtCtx      00000001800708d8     sf_runtime:sf_runtime.dll
 0002:000008e0       __imp_sf_reset_warnings_ChartRunTimeInfo 00000001800708e0     sf_runtime:sf_runtime.dll
 0002:000008e8       __imp_sf_free_ChartRunTimeInfo 00000001800708e8     sf_runtime:sf_runtime.dll
 0002:000008f0       __imp_sf_init_ChartRunTimeInfo 00000001800708f0     sf_runtime:sf_runtime.dll
 0002:000008f8       __imp_sf_clear_error_manager_info 00000001800708f8     sf_runtime:sf_runtime.dll
 0002:00000900       __imp_sf_mex_error_direct_call 0000000180070900     sf_runtime:sf_runtime.dll
 0002:00000908       __imp_sf_mex_printf        0000000180070908     sf_runtime:sf_runtime.dll
 0002:00000910       __imp_getRuntimeInstanceInfoAsVoid 0000000180070910     sf_runtime:sf_runtime.dll
 0002:00000918       __imp_call_sf_machine_global_method_dispatcher 0000000180070918     sf_runtime:sf_runtime.dll
 0002:00000920       __imp_callMdlMethodAndReportError 0000000180070920     sf_runtime:sf_runtime.dll
 0002:00000928       __imp_sf_get_hasSeparateUpdateOutputs 0000000180070928     sf_runtime:sf_runtime.dll
 0002:00000930       __imp_sf_get_ChartInfoStruct_CodeGen 0000000180070930     sf_runtime:sf_runtime.dll
 0002:00000938       __imp_sf_load_rtw_optimization_info 0000000180070938     sf_runtime:sf_runtime.dll
 0002:00000940       \177sf_runtime_NULL_THUNK_DATA 0000000180070940     sf_runtime:sf_runtime.dll
 0002:00000948       __guard_check_icall_fptr   0000000180070948     MSVCRT:guard_support.obj
 0002:00000950       __guard_xfg_check_icall_fptr 0000000180070950     MSVCRT:guard_support.obj
 0002:00000958       __guard_dispatch_icall_fptr 0000000180070958     MSVCRT:guard_support.obj
 0002:00000960       __guard_xfg_dispatch_icall_fptr 0000000180070960     MSVCRT:guard_support.obj
 0002:00000968       __guard_xfg_table_dispatch_icall_fptr 0000000180070968     MSVCRT:guard_support.obj
 0002:00000970       __castguard_check_failure_os_handled_fptr 0000000180070970     MSVCRT:guard_support.obj
 0002:00000978       __guard_memcpy_fptr        0000000180070978     vcruntime:softmemtag.obj
 0002:00000980       __xc_a                     0000000180070980     MSVCRT:initializers.obj
 0002:00000a20       __xc_z                     0000000180070a20     MSVCRT:initializers.obj
 0002:00000a28       __xi_a                     0000000180070a28     MSVCRT:initializers.obj
 0002:00000a30       __xi_z                     0000000180070a30     MSVCRT:initializers.obj
 0002:00000a38       __xl_a                     0000000180070a38     MSVCRT:tlssup.obj
 0002:00000a40       __xl_z                     0000000180070a40     MSVCRT:tlssup.obj
 0002:00000a48       __xp_a                     0000000180070a48     MSVCRT:initializers.obj
 0002:00000a50       __xp_z                     0000000180070a50     MSVCRT:initializers.obj
 0002:00000a58       __xt_a                     0000000180070a58     MSVCRT:initializers.obj
 0002:00000a60       __xt_z                     0000000180070a60     MSVCRT:initializers.obj
 0002:00000c40       __real@41b3f667eb000000    0000000180070c40     trajectory_jerk_sfun.obj
 0002:00000c48       __real@41c1c53fd9000000    0000000180070c48     trajectory_jerk_sfun.obj
 0002:00000c50       __real@41d2271d43000000    0000000180070c50     trajectory_jerk_sfun.obj
 0002:00000c58       __real@41d437f440800000    0000000180070c58     trajectory_jerk_sfun.obj
 0002:00000c60       __real@41d7a7203d400000    0000000180070c60     trajectory_jerk_sfun.obj
 0002:00000c68       __real@41d8124dff800000    0000000180070c68     trajectory_jerk_sfun.obj
 0002:00000c70       __real@41df489a39800000    0000000180070c70     trajectory_jerk_sfun.obj
 0002:00000c78       __real@41e65ee283000000    0000000180070c78     trajectory_jerk_sfun.obj
 0002:00000c80       __real@41e87edd6c200000    0000000180070c80     trajectory_jerk_sfun.obj
 0002:00000c88       __real@41e95a1830000000    0000000180070c88     trajectory_jerk_sfun.obj
 0002:00000c90       __real@41ed014997600000    0000000180070c90     trajectory_jerk_sfun.obj
 0002:00000c98       __real@41ed49415a200000    0000000180070c98     trajectory_jerk_sfun.obj
 0002:00003310       __real@0000000000000000    0000000180073310     trajectory_jerk_sfun_registry.obj
 0002:00003318       __real@4010000000000000    0000000180073318     trajectory_jerk_sfun_registry.obj
 0002:00003320       __real@41602cbca0000000    0000000180073320     trajectory_jerk_sfun_registry.obj
 0002:00003328       __real@bff0000000000000    0000000180073328     trajectory_jerk_sfun_registry.obj
 0002:00003c78       __real@41d338fa28400000    0000000180073c78     c3_trajectory_jerk.obj
 0002:00003c80       __real@41e566fdaa200000    0000000180073c80     c3_trajectory_jerk.obj
 0002:00003c88       __real@41e82db500c00000    0000000180073c88     c3_trajectory_jerk.obj
 0002:00003c90       __real@41ea9f3230a00000    0000000180073c90     c3_trajectory_jerk.obj
 0002:00003c98       __real@bfba1887b2c1a188    0000000180073c98     c3_trajectory_jerk.obj
 0002:00004518       __real@4170d60270000000    0000000180074518     c14_trajectory_jerk.obj
 0002:00004520       __real@41e12ff407000000    0000000180074520     c14_trajectory_jerk.obj
 0002:00004528       __real@41e5904169a00000    0000000180074528     c14_trajectory_jerk.obj
 0002:00004530       __real@41ec1d02a4600000    0000000180074530     c14_trajectory_jerk.obj
 0002:00004540       __xmm@80000000000000008000000000000000 0000000180074540     c14_trajectory_jerk.obj
 0002:00004550       __real@3f800000            0000000180074550     half_type.obj
 0002:00004558       ??_C@_0BI@IHNDNKAP@unrecognized?5error?5code?$AA@ 0000000180074558     cudart_static:cudart_cuda_runtime_api.obj
 0002:00004670       ??_C@_0BB@LDJPDCNC@__cudaInitModule?$AA@ 0000000180074670     cudart_static:cudart_cuda_runtime_api.obj
 0002:00004690       __xmm@00000000000000020000000000000002 0000000180074690     cudart_static:cudart_cuda_runtime_api.obj
 0002:000046a0       __xmm@00000000000000030000000000000002 00000001800746a0     cudart_static:cudart_cuda_runtime_api.obj
 0002:000046b0       __xmm@00000000000000040000000000000002 00000001800746b0     cudart_static:cudart_cuda_runtime_api.obj
 0002:000046c0       __xmm@00000000000000050000000000000002 00000001800746c0     cudart_static:cudart_cuda_runtime_api.obj
 0002:000046d0       __xmm@00000004000000030000000200000001 00000001800746d0     cudart_static:cudart_cuda_runtime_api.obj
 0002:000046e0       ??_C@_0BA@ICMILBFE@cudaDeviceReset?$AA@ 00000001800746e0     cudart_static:cudart_generated_cuda_runtime_api.obj
 0002:000046f0       ??_C@_0BG@PNHCFANL@cudaDeviceSynchronize?$AA@ 00000001800746f0     cudart_static:cudart_generated_cuda_runtime_api.obj
 0002:00004708       ??_C@_0BD@KMMCBNBG@cudaDeviceSetLimit?$AA@ 0000000180074708     cudart_static:cudart_generated_cuda_runtime_api.obj
 0002:00004720       ??_C@_0BD@FNOOAOGL@cudaDeviceGetLimit?$AA@ 0000000180074720     cudart_static:cudart_generated_cuda_runtime_api.obj
 0002:00004738       ??_C@_0CF@EHMDOJKP@cudaDeviceGetTexture1DLinearMaxW@ 0000000180074738     cudart_static:cudart_generated_cuda_runtime_api.obj
 0002:00004760       ??_C@_0BJ@CHIHBPDG@cudaDeviceGetCacheConfig?$AA@ 0000000180074760     cudart_static:cudart_generated_cuda_runtime_api.obj
 0002:00004780       ??_C@_0CB@EPCKKHFN@cudaDeviceGetStreamPriorityRange@ 0000000180074780     cudart_static:cudart_generated_cuda_runtime_api.obj
 0002:000047a8       ??_C@_0BJ@OJJJOFBK@cudaDeviceSetCacheConfig?$AA@ 00000001800747a8     cudart_static:cudart_generated_cuda_runtime_api.obj
 0002:000047c8       ??_C@_0BN@FMKJGMG@cudaDeviceGetSharedMemConfig?$AA@ 00000001800747c8     cudart_static:cudart_generated_cuda_runtime_api.obj
 0002:000047e8       ??_C@_0BN@PPOAKACO@cudaDeviceSetSharedMemConfig?$AA@ 00000001800747e8     cudart_static:cudart_generated_cuda_runtime_api.obj
 0002:00004808       ??_C@_0BI@NNACALPN@cudaDeviceGetByPCIBusId?$AA@ 0000000180074808     cudart_static:cudart_generated_cuda_runtime_api.obj
 0002:00004820       ??_C@_0BG@NDFINPMC@cudaDeviceGetPCIBusId?$AA@ 0000000180074820     cudart_static:cudart_generated_cuda_runtime_api.obj
 0002:00004838       ??_C@_0BG@LADADCG@cudaIpcGetEventHandle?$AA@ 0000000180074838     cudart_static:cudart_generated_cuda_runtime_api.obj
 0002:00004850       ??_C@_0BH@NBJHIJE@cudaIpcOpenEventHandle?$AA@ 0000000180074850     cudart_static:cudart_generated_cuda_runtime_api.obj
 0002:00004868       ??_C@_0BE@FMOBENHM@cudaIpcGetMemHandle?$AA@ 0000000180074868     cudart_static:cudart_generated_cuda_runtime_api.obj
 0002:00004880       ??_C@_0BF@COLFEIFH@cudaIpcOpenMemHandle?$AA@ 0000000180074880     cudart_static:cudart_generated_cuda_runtime_api.obj
 0002:00004898       ??_C@_0BG@NMMEGKL@cudaIpcCloseMemHandle?$AA@ 0000000180074898     cudart_static:cudart_generated_cuda_runtime_api.obj
 0002:000048b0       ??_C@_0CD@NPEKNF@cudaDeviceFlushGPUDirectRDMAWrit@ 00000001800748b0     cudart_static:cudart_generated_cuda_runtime_api.obj
 0002:000048d8       ??_C@_0P@KIHOCIKB@cudaThreadExit?$AA@ 00000001800748d8     cudart_static:cudart_generated_cuda_runtime_api.obj
 0002:000048e8       ??_C@_0BG@GMFDFHJK@cudaThreadSynchronize?$AA@ 00000001800748e8     cudart_static:cudart_generated_cuda_runtime_api.obj
 0002:00004900       ??_C@_0BD@CNEHAHOK@cudaThreadSetLimit?$AA@ 0000000180074900     cudart_static:cudart_generated_cuda_runtime_api.obj
 0002:00004918       ??_C@_0BD@NMGLBEJH@cudaThreadGetLimit?$AA@ 0000000180074918     cudart_static:cudart_generated_cuda_runtime_api.obj
 0002:00004930       ??_C@_0BJ@FFPHHOMJ@cudaThreadGetCacheConfig?$AA@ 0000000180074930     cudart_static:cudart_generated_cuda_runtime_api.obj
 0002:00004950       ??_C@_0BJ@JLOJIEOF@cudaThreadSetCacheConfig?$AA@ 0000000180074950     cudart_static:cudart_generated_cuda_runtime_api.obj
 0002:00004970       ??_C@_0BB@OCGBEIAO@cudaGetLastError?$AA@ 0000000180074970     cudart_static:cudart_generated_cuda_runtime_api.obj
 0002:00004988       ??_C@_0BE@CFCPNMOF@cudaPeekAtLastError?$AA@ 0000000180074988     cudart_static:cudart_generated_cuda_runtime_api.obj
 0002:000049a0       ??_C@_0BB@BLEPBPMB@cudaGetErrorName?$AA@ 00000001800749a0     cudart_static:cudart_generated_cuda_runtime_api.obj
 0002:000049b8       ??_C@_0BD@MKGIDKDC@cudaGetErrorString?$AA@ 00000001800749b8     cudart_static:cudart_generated_cuda_runtime_api.obj
 0002:000049d0       ??_C@_0BD@CNHMBCKL@cudaGetDeviceCount?$AA@ 00000001800749d0     cudart_static:cudart_generated_cuda_runtime_api.obj
 0002:000049e8       ??_C@_0BL@FJKEKJDJ@cudaGetDeviceProperties_v2?$AA@ 00000001800749e8     cudart_static:cudart_generated_cuda_runtime_api.obj
 0002:00004a08       ??_C@_0BH@NGOLFICJ@cudaDeviceGetAttribute?$AA@ 0000000180074a08     cudart_static:cudart_generated_cuda_runtime_api.obj
 0002:00004a20       ??_C@_0BM@IFHJNOOK@cudaDeviceGetDefaultMemPool?$AA@ 0000000180074a20     cudart_static:cudart_generated_cuda_runtime_api.obj
 0002:00004a40       ??_C@_0BF@NFHOLNPJ@cudaDeviceSetMemPool?$AA@ 0000000180074a40     cudart_static:cudart_generated_cuda_runtime_api.obj
 0002:00004a58       ??_C@_0BF@MLFBAKLA@cudaDeviceGetMemPool?$AA@ 0000000180074a58     cudart_static:cudart_generated_cuda_runtime_api.obj
 0002:00004a70       ??_C@_0CB@BJDOOHJK@cudaDeviceGetNvSciSyncAttributes@ 0000000180074a70     cudart_static:cudart_generated_cuda_runtime_api.obj
 0002:00004a98       ??_C@_0BK@EJGPFIKF@cudaDeviceGetP2PAttribute?$AA@ 0000000180074a98     cudart_static:cudart_generated_cuda_runtime_api.obj
 0002:00004ab8       ??_C@_0BB@HMOGCBLJ@cudaChooseDevice?$AA@ 0000000180074ab8     cudart_static:cudart_generated_cuda_runtime_api.obj
 0002:00004ad0       ??_C@_0P@FIDFKNMH@cudaInitDevice?$AA@ 0000000180074ad0     cudart_static:cudart_generated_cuda_runtime_api.obj
 0002:00004ae0       ??_C@_0O@CFDKBDOG@cudaSetDevice?$AA@ 0000000180074ae0     cudart_static:cudart_generated_cuda_runtime_api.obj
 0002:00004af0       ??_C@_0O@LHPDCHE@cudaGetDevice?$AA@ 0000000180074af0     cudart_static:cudart_generated_cuda_runtime_api.obj
 0002:00004b00       ??_C@_0BE@HPLONBBC@cudaSetValidDevices?$AA@ 0000000180074b00     cudart_static:cudart_generated_cuda_runtime_api.obj
 0002:00004b18       ??_C@_0BD@GLOEGOGE@cudaSetDeviceFlags?$AA@ 0000000180074b18     cudart_static:cudart_generated_cuda_runtime_api.obj
 0002:00004b30       ??_C@_0BD@KFPKJEEI@cudaGetDeviceFlags?$AA@ 0000000180074b30     cudart_static:cudart_generated_cuda_runtime_api.obj
 0002:00004b48       ??_C@_0BB@MCIJDDLM@cudaStreamCreate?$AA@ 0000000180074b48     cudart_static:cudart_generated_cuda_runtime_api.obj
 0002:00004b60       ??_C@_0BK@JACEFEGE@cudaStreamCreateWithFlags?$AA@ 0000000180074b60     cudart_static:cudart_generated_cuda_runtime_api.obj
 0002:00004b80       ??_C@_0BN@BCBGFIAP@cudaStreamCreateWithPriority?$AA@ 0000000180074b80     cudart_static:cudart_generated_cuda_runtime_api.obj
 0002:00004ba0       ??_C@_0BL@GBHDDFIL@cudaStreamGetPriority_ptsz?$AA@ 0000000180074ba0     cudart_static:cudart_generated_cuda_runtime_api.obj
 0002:00004bc0       ??_C@_0BI@OAEAGJLA@cudaStreamGetFlags_ptsz?$AA@ 0000000180074bc0     cudart_static:cudart_generated_cuda_runtime_api.obj
 0002:00004bd8       ??_C@_0BF@FGPGMEMD@cudaStreamGetId_ptsz?$AA@ 0000000180074bd8     cudart_static:cudart_generated_cuda_runtime_api.obj
 0002:00004bf0       ??_C@_0BO@CJOEIAAA@cudaCtxResetPersistingL2Cache?$AA@ 0000000180074bf0     cudart_static:cudart_generated_cuda_runtime_api.obj
 0002:00004c10       ??_C@_0BO@EIONMCAE@cudaStreamCopyAttributes_ptsz?$AA@ 0000000180074c10     cudart_static:cudart_generated_cuda_runtime_api.obj
 0002:00004c30       ??_C@_0BM@KPDKMMKF@cudaStreamGetAttribute_ptsz?$AA@ 0000000180074c30     cudart_static:cudart_generated_cuda_runtime_api.obj
 0002:00004c50       ??_C@_0BM@IKDBEHLL@cudaStreamSetAttribute_ptsz?$AA@ 0000000180074c50     cudart_static:cudart_generated_cuda_runtime_api.obj
 0002:00004c70       ??_C@_0BC@MBCHDMAM@cudaStreamDestroy?$AA@ 0000000180074c70     cudart_static:cudart_generated_cuda_runtime_api.obj
 0002:00004c88       ??_C@_0BJ@OFILEEDO@cudaStreamWaitEvent_ptsz?$AA@ 0000000180074c88     cudart_static:cudart_generated_cuda_runtime_api.obj
 0002:00004ca8       ??_C@_0BL@CEFLNIMK@cudaStreamAddCallback_ptsz?$AA@ 0000000180074ca8     cudart_static:cudart_generated_cuda_runtime_api.obj
 0002:00004cc8       ??_C@_0BL@MLEBOJLJ@cudaStreamSynchronize_ptsz?$AA@ 0000000180074cc8     cudart_static:cudart_generated_cuda_runtime_api.obj
 0002:00004ce8       ??_C@_0BF@FCAOKPLE@cudaStreamQuery_ptsz?$AA@ 0000000180074ce8     cudart_static:cudart_generated_cuda_runtime_api.obj
 0002:00004d00       ??_C@_0BO@EGBOKDKJ@cudaStreamAttachMemAsync_ptsz?$AA@ 0000000180074d00     cudart_static:cudart_generated_cuda_runtime_api.obj
 0002:00004d20       ??_C@_0BM@EPAOOFNN@cudaStreamBeginCapture_ptsz?$AA@ 0000000180074d20     cudart_static:cudart_generated_cuda_runtime_api.obj
 0002:00004d40       ??_C@_0CE@HHKEDIC@cudaThreadExchangeStreamCaptureM@ 0000000180074d40     cudart_static:cudart_generated_cuda_runtime_api.obj
 0002:00004d68       ??_C@_0BK@KCNALJOP@cudaStreamEndCapture_ptsz?$AA@ 0000000180074d68     cudart_static:cudart_generated_cuda_runtime_api.obj
 0002:00004d88       ??_C@_0BL@JALGJOAI@cudaStreamIsCapturing_ptsz?$AA@ 0000000180074d88     cudart_static:cudart_generated_cuda_runtime_api.obj
 0002:00004da8       ??_C@_0CB@EEKFOKIL@cudaStreamGetCaptureInfo_v2_ptsz@ 0000000180074da8     cudart_static:cudart_generated_cuda_runtime_api.obj
 0002:00004dd0       ??_C@_0CE@HKDAHEKF@cudaStreamUpdateCaptureDependenc@ 0000000180074dd0     cudart_static:cudart_generated_cuda_runtime_api.obj
 0002:00004df8       ??_C@_0BA@OPBDEMDC@cudaEventCreate?$AA@ 0000000180074df8     cudart_static:cudart_generated_cuda_runtime_api.obj
 0002:00004e08       ??_C@_0BJ@LLEJDDBP@cudaEventCreateWithFlags?$AA@ 0000000180074e08     cudart_static:cudart_generated_cuda_runtime_api.obj
 0002:00004e28       ??_C@_0BF@BLCBANAH@cudaEventRecord_ptsz?$AA@ 0000000180074e28     cudart_static:cudart_generated_cuda_runtime_api.obj
 0002:00004e40       ??_C@_0BO@EDHFBPLE@cudaEventRecordWithFlags_ptsz?$AA@ 0000000180074e40     cudart_static:cudart_generated_cuda_runtime_api.obj
 0002:00004e60       ??_C@_0P@KMHEJBHA@cudaEventQuery?$AA@ 0000000180074e60     cudart_static:cudart_generated_cuda_runtime_api.obj
 0002:00004e70       ??_C@_0BF@GFIFHPMK@cudaEventSynchronize?$AA@ 0000000180074e70     cudart_static:cudart_generated_cuda_runtime_api.obj
 0002:00004e88       ??_C@_0BB@MLAKAIFE@cudaEventDestroy?$AA@ 0000000180074e88     cudart_static:cudart_generated_cuda_runtime_api.obj
 0002:00004ea0       ??_C@_0BF@CGNABAEK@cudaEventElapsedTime?$AA@ 0000000180074ea0     cudart_static:cudart_generated_cuda_runtime_api.obj
 0002:00004eb8       ??_C@_0BJ@KJGPBEOL@cudaImportExternalMemory?$AA@ 0000000180074eb8     cudart_static:cudart_generated_cuda_runtime_api.obj
 0002:00004ed8       ??_C@_0CC@HIHDKFCB@cudaExternalMemoryGetMappedBuffe@ 0000000180074ed8     cudart_static:cudart_generated_cuda_runtime_api.obj
 0002:00004f00       ??_C@_0CK@ILFBDOCP@cudaExternalMemoryGetMappedMipma@ 0000000180074f00     cudart_static:cudart_generated_cuda_runtime_api.obj
 0002:00004f30       ??_C@_0BK@KCJHMPNK@cudaDestroyExternalMemory?$AA@ 0000000180074f30     cudart_static:cudart_generated_cuda_runtime_api.obj
 0002:00004f50       ??_C@_0BM@DLOIFMC@cudaImportExternalSemaphore?$AA@ 0000000180074f50     cudart_static:cudart_generated_cuda_runtime_api.obj
 0002:00004f70       ??_C@_0CK@GPGNLNEH@cudaSignalExternalSemaphoresAsyn@ 0000000180074f70     cudart_static:cudart_generated_cuda_runtime_api.obj
 0002:00004fa0       ??_C@_0CI@NBIHCDF@cudaWaitExternalSemaphoresAsync_@ 0000000180074fa0     cudart_static:cudart_generated_cuda_runtime_api.obj
 0002:00004fc8       ??_C@_0BN@PHLNGMJE@cudaDestroyExternalSemaphore?$AA@ 0000000180074fc8     cudart_static:cudart_generated_cuda_runtime_api.obj
 0002:00004fe8       ??_C@_0BG@BJFNCPOO@cudaLaunchKernel_ptsz?$AA@ 0000000180074fe8     cudart_static:cudart_generated_cuda_runtime_api.obj
 0002:00005000       ??_C@_0BJ@HOJBANED@cudaLaunchKernelExC_ptsz?$AA@ 0000000180075000     cudart_static:cudart_generated_cuda_runtime_api.obj
 0002:00005020       ??_C@_0CB@CDMOKJEK@cudaLaunchCooperativeKernel_ptsz@ 0000000180075020     cudart_static:cudart_generated_cuda_runtime_api.obj
 0002:00005048       ??_C@_0CH@MGOPHIKD@cudaLaunchCooperativeKernelMulti@ 0000000180075048     cudart_static:cudart_generated_cuda_runtime_api.obj
 0002:00005070       ??_C@_0BH@BPCDABLJ@cudaFuncSetCacheConfig?$AA@ 0000000180075070     cudart_static:cudart_generated_cuda_runtime_api.obj
 0002:00005088       ??_C@_0BL@EECBHPKC@cudaFuncSetSharedMemConfig?$AA@ 0000000180075088     cudart_static:cudart_generated_cuda_runtime_api.obj
 0002:000050a8       ??_C@_0BG@EFLEKBNE@cudaFuncGetAttributes?$AA@ 00000001800750a8     cudart_static:cudart_generated_cuda_runtime_api.obj
 0002:000050c0       ??_C@_0BF@NGEPENOH@cudaFuncSetAttribute?$AA@ 00000001800750c0     cudart_static:cudart_generated_cuda_runtime_api.obj
 0002:000050d8       ??_C@_0BH@BKIIPPKO@cudaSetDoubleForDevice?$AA@ 00000001800750d8     cudart_static:cudart_generated_cuda_runtime_api.obj
 0002:000050f0       ??_C@_0BF@MEGALBKG@cudaSetDoubleForHost?$AA@ 00000001800750f0     cudart_static:cudart_generated_cuda_runtime_api.obj
 0002:00005108       ??_C@_0BI@IMFEPJB@cudaLaunchHostFunc_ptsz?$AA@ 0000000180075108     cudart_static:cudart_generated_cuda_runtime_api.obj
 0002:00005120       ??_C@_0CO@LBKPMKIC@cudaOccupancyMaxActiveBlocksPerM@ 0000000180075120     cudart_static:cudart_generated_cuda_runtime_api.obj
 0002:00005150       ??_C@_0CK@IFHKONAC@cudaOccupancyAvailableDynamicSMe@ 0000000180075150     cudart_static:cudart_generated_cuda_runtime_api.obj
 0002:00005180       ??_C@_0DH@LHCIDDIM@cudaOccupancyMaxActiveBlocksPerM@ 0000000180075180     cudart_static:cudart_generated_cuda_runtime_api.obj
 0002:000051b8       ??_C@_0CF@MONGPCKB@cudaOccupancyMaxPotentialCluster@ 00000001800751b8     cudart_static:cudart_generated_cuda_runtime_api.obj
 0002:000051e0       ??_C@_0BP@KHEHEEFK@cudaOccupancyMaxActiveClusters?$AA@ 00000001800751e0     cudart_static:cudart_generated_cuda_runtime_api.obj
 0002:00005200       ??_C@_0BC@OEDNNDIH@cudaMallocManaged?$AA@ 0000000180075200     cudart_static:cudart_generated_cuda_runtime_api.obj
 0002:00005218       ??_C@_0L@JGPNCOLD@cudaMalloc?$AA@ 0000000180075218     cudart_static:cudart_generated_cuda_runtime_api.obj
 0002:00005228       ??_C@_0P@JDEILNDJ@cudaMallocHost?$AA@ 0000000180075228     cudart_static:cudart_generated_cuda_runtime_api.obj
 0002:00005238       ??_C@_0BA@BGMJNJAA@cudaMallocPitch?$AA@ 0000000180075238     cudart_static:cudart_generated_cuda_runtime_api.obj
 0002:00005248       ??_C@_0BA@LMEFAGAP@cudaMallocArray?$AA@ 0000000180075248     cudart_static:cudart_generated_cuda_runtime_api.obj
 0002:00005258       ??_C@_08GEOKCOBK@cudaFree?$AA@ 0000000180075258     cudart_static:cudart_generated_cuda_runtime_api.obj
 0002:00005268       ??_C@_0N@PFBLPMBA@cudaFreeHost?$AA@ 0000000180075268     cudart_static:cudart_generated_cuda_runtime_api.obj
 0002:00005278       ??_C@_0O@POJBMNCC@cudaFreeArray?$AA@ 0000000180075278     cudart_static:cudart_generated_cuda_runtime_api.obj
 0002:00005288       ??_C@_0BH@OGEPGPLO@cudaFreeMipmappedArray?$AA@ 0000000180075288     cudart_static:cudart_generated_cuda_runtime_api.obj
 0002:000052a0       ??_C@_0O@BDAPCJPP@cudaHostAlloc?$AA@ 00000001800752a0     cudart_static:cudart_generated_cuda_runtime_api.obj
 0002:000052b0       ??_C@_0BB@ODJFNGAK@cudaHostRegister?$AA@ 00000001800752b0     cudart_static:cudart_generated_cuda_runtime_api.obj
 0002:000052c8       ??_C@_0BD@EAHLAGCC@cudaHostUnregister?$AA@ 00000001800752c8     cudart_static:cudart_generated_cuda_runtime_api.obj
 0002:000052e0       ??_C@_0BJ@NEALOGO@cudaHostGetDevicePointer?$AA@ 00000001800752e0     cudart_static:cudart_generated_cuda_runtime_api.obj
 0002:00005300       ??_C@_0BB@DKOGKCFF@cudaHostGetFlags?$AA@ 0000000180075300     cudart_static:cudart_generated_cuda_runtime_api.obj
 0002:00005318       ??_C@_0N@KBAGLHIB@cudaMalloc3D?$AA@ 0000000180075318     cudart_static:cudart_generated_cuda_runtime_api.obj
 0002:00005328       ??_C@_0BC@IOHKHPMC@cudaMalloc3DArray?$AA@ 0000000180075328     cudart_static:cudart_generated_cuda_runtime_api.obj
 0002:00005340       ??_C@_0BJ@KPCBNNBK@cudaMallocMipmappedArray?$AA@ 0000000180075340     cudart_static:cudart_generated_cuda_runtime_api.obj
 0002:00005360       ??_C@_0BL@OOBAKBEE@cudaGetMipmappedArrayLevel?$AA@ 0000000180075360     cudart_static:cudart_generated_cuda_runtime_api.obj
 0002:00005380       ??_C@_0BC@DDIGPKEB@cudaMemcpy3D_ptds?$AA@ 0000000180075380     cudart_static:cudart_generated_cuda_runtime_api.obj
 0002:00005398       ??_C@_0BG@MMJMAIPH@cudaMemcpy3DPeer_ptds?$AA@ 0000000180075398     cudart_static:cudart_generated_cuda_runtime_api.obj
 0002:000053b0       ??_C@_0BH@OOENJMPE@cudaMemcpy3DAsync_ptsz?$AA@ 00000001800753b0     cudart_static:cudart_generated_cuda_runtime_api.obj
 0002:000053c8       ??_C@_0BL@NPDAGELI@cudaMemcpy3DPeerAsync_ptsz?$AA@ 00000001800753c8     cudart_static:cudart_generated_cuda_runtime_api.obj
 0002:000053e8       ??_C@_0P@KFGAPOLJ@cudaMemGetInfo?$AA@ 00000001800753e8     cudart_static:cudart_generated_cuda_runtime_api.obj
 0002:000053f8       ??_C@_0BB@EMIBBJDM@cudaArrayGetInfo?$AA@ 00000001800753f8     cudart_static:cudart_generated_cuda_runtime_api.obj
 0002:00005410       ??_C@_0BC@PFKFDAMB@cudaArrayGetPlane?$AA@ 0000000180075410     cudart_static:cudart_generated_cuda_runtime_api.obj
 0002:00005428       ??_C@_0BP@IGCMIKAP@cudaArrayGetMemoryRequirements?$AA@ 0000000180075428     cudart_static:cudart_generated_cuda_runtime_api.obj
 0002:00005448       ??_C@_0CI@LDGGCDMK@cudaMipmappedArrayGetMemoryRequi@ 0000000180075448     cudart_static:cudart_generated_cuda_runtime_api.obj
 0002:00005470       ??_C@_0BN@NBDJJABN@cudaArrayGetSparseProperties?$AA@ 0000000180075470     cudart_static:cudart_generated_cuda_runtime_api.obj
 0002:00005490       ??_C@_0CG@NPGMMIME@cudaMipmappedArrayGetSparsePrope@ 0000000180075490     cudart_static:cudart_generated_cuda_runtime_api.obj
 0002:000054b8       ??_C@_0BA@MAIBHEFD@cudaMemcpy_ptds?$AA@ 00000001800754b8     cudart_static:cudart_generated_cuda_runtime_api.obj
 0002:000054c8       ??_C@_0P@BGPPJCBF@cudaMemcpyPeer?$AA@ 00000001800754c8     cudart_static:cudart_generated_cuda_runtime_api.obj
 0002:000054d8       ??_C@_0BC@PPCMPKNP@cudaMemcpy2D_ptds?$AA@ 00000001800754d8     cudart_static:cudart_generated_cuda_runtime_api.obj
 0002:000054f0       ??_C@_0BJ@CPFDIJ@cudaMemcpy2DToArray_ptds?$AA@ 00000001800754f0     cudart_static:cudart_generated_cuda_runtime_api.obj
 0002:00005510       ??_C@_0BL@MGBAEMDC@cudaMemcpy2DFromArray_ptds?$AA@ 0000000180075510     cudart_static:cudart_generated_cuda_runtime_api.obj
 0002:00005530       ??_C@_0BO@GOAJGOLH@cudaMemcpy2DArrayToArray_ptds?$AA@ 0000000180075530     cudart_static:cudart_generated_cuda_runtime_api.obj
 0002:00005550       ??_C@_0BI@IPEHHEBC@cudaMemcpyToSymbol_ptds?$AA@ 0000000180075550     cudart_static:cudart_generated_cuda_runtime_api.obj
 0002:00005568       ??_C@_0BK@LELBBIOA@cudaMemcpyFromSymbol_ptds?$AA@ 0000000180075568     cudart_static:cudart_generated_cuda_runtime_api.obj
 0002:00005588       ??_C@_0BF@MDDFDNOF@cudaMemcpyAsync_ptsz?$AA@ 0000000180075588     cudart_static:cudart_generated_cuda_runtime_api.obj
 0002:000055a0       ??_C@_0BE@HNJBMCGJ@cudaMemcpyPeerAsync?$AA@ 00000001800755a0     cudart_static:cudart_generated_cuda_runtime_api.obj
 0002:000055b8       ??_C@_0BH@DDNLEFHB@cudaMemcpy2DAsync_ptsz?$AA@ 00000001800755b8     cudart_static:cudart_generated_cuda_runtime_api.obj
 0002:000055d0       ??_C@_0BO@CFIJGKLO@cudaMemcpy2DToArrayAsync_ptsz?$AA@ 00000001800755d0     cudart_static:cudart_generated_cuda_runtime_api.obj
 0002:000055f0       ??_C@_0CA@PIHDMGBH@cudaMemcpy2DFromArrayAsync_ptsz?$AA@ 00000001800755f0     cudart_static:cudart_generated_cuda_runtime_api.obj
 0002:00005610       ??_C@_0BN@EEGFPFCE@cudaMemcpyToSymbolAsync_ptsz?$AA@ 0000000180075610     cudart_static:cudart_generated_cuda_runtime_api.obj
 0002:00005630       ??_C@_0BP@IKJKFOPI@cudaMemcpyFromSymbolAsync_ptsz?$AA@ 0000000180075630     cudart_static:cudart_generated_cuda_runtime_api.obj
 0002:00005650       ??_C@_0BA@DJMNGIKN@cudaMemset_ptds?$AA@ 0000000180075650     cudart_static:cudart_generated_cuda_runtime_api.obj
 0002:00005660       ??_C@_0BC@GBBCJDOP@cudaMemset2D_ptds?$AA@ 0000000180075660     cudart_static:cudart_generated_cuda_runtime_api.obj
 0002:00005678       ??_C@_0BC@KNLIJDHB@cudaMemset3D_ptds?$AA@ 0000000180075678     cudart_static:cudart_generated_cuda_runtime_api.obj
 0002:00005690       ??_C@_0BF@JCAABFKO@cudaMemsetAsync_ptsz?$AA@ 0000000180075690     cudart_static:cudart_generated_cuda_runtime_api.obj
 0002:000056a8       ??_C@_0BH@BFODCKHA@cudaMemset2DAsync_ptsz?$AA@ 00000001800756a8     cudart_static:cudart_generated_cuda_runtime_api.obj
 0002:000056c0       ??_C@_0BH@MIHFPDPF@cudaMemset3DAsync_ptsz?$AA@ 00000001800756c0     cudart_static:cudart_generated_cuda_runtime_api.obj
 0002:000056d8       ??_C@_0BF@OMAEBMAE@cudaGetSymbolAddress?$AA@ 00000001800756d8     cudart_static:cudart_generated_cuda_runtime_api.obj
 0002:000056f0       ??_C@_0BC@KNLJIOBK@cudaGetSymbolSize?$AA@ 00000001800756f0     cudart_static:cudart_generated_cuda_runtime_api.obj
 0002:00005708       ??_C@_0BK@KMCFICIO@cudaMemPrefetchAsync_ptsz?$AA@ 0000000180075708     cudart_static:cudart_generated_cuda_runtime_api.obj
 0002:00005728       ??_C@_0BN@BFEKPMDO@cudaMemPrefetchAsync_v2_ptsz?$AA@ 0000000180075728     cudart_static:cudart_generated_cuda_runtime_api.obj
 0002:00005748       ??_C@_0O@PKOLNHMP@cudaMemAdvise?$AA@ 0000000180075748     cudart_static:cudart_generated_cuda_runtime_api.obj
 0002:00005758       ??_C@_0BB@ENDAOGMI@cudaMemAdvise_v2?$AA@ 0000000180075758     cudart_static:cudart_generated_cuda_runtime_api.obj
 0002:00005770       ??_C@_0BJ@PGIAOJDN@cudaMemRangeGetAttribute?$AA@ 0000000180075770     cudart_static:cudart_generated_cuda_runtime_api.obj
 0002:00005790       ??_C@_0BK@FMIMOGMN@cudaMemRangeGetAttributes?$AA@ 0000000180075790     cudart_static:cudart_generated_cuda_runtime_api.obj
 0002:000057b0       ??_C@_0BH@ELNMBFHH@cudaMemcpyToArray_ptds?$AA@ 00000001800757b0     cudart_static:cudart_generated_cuda_runtime_api.obj
 0002:000057c8       ??_C@_0BJ@NDJACPFH@cudaMemcpyFromArray_ptds?$AA@ 00000001800757c8     cudart_static:cudart_generated_cuda_runtime_api.obj
 0002:000057e8       ??_C@_0BM@IDHNNMCN@cudaMemcpyArrayToArray_ptds?$AA@ 00000001800757e8     cudart_static:cudart_generated_cuda_runtime_api.obj
 0002:00005808       ??_C@_0BM@MIPNNICE@cudaMemcpyToArrayAsync_ptsz?$AA@ 0000000180075808     cudart_static:cudart_generated_cuda_runtime_api.obj
 0002:00005828       ??_C@_0BO@FGLCJLFD@cudaMemcpyFromArrayAsync_ptsz?$AA@ 0000000180075828     cudart_static:cudart_generated_cuda_runtime_api.obj
 0002:00005848       ??_C@_0BF@INDDGIAO@cudaMallocAsync_ptsz?$AA@ 0000000180075848     cudart_static:cudart_generated_cuda_runtime_api.obj
 0002:00005860       ??_C@_0BD@FNOBFKNH@cudaFreeAsync_ptsz?$AA@ 0000000180075860     cudart_static:cudart_generated_cuda_runtime_api.obj
 0002:00005878       ??_C@_0BC@FJGGAIKF@cudaMemPoolTrimTo?$AA@ 0000000180075878     cudart_static:cudart_generated_cuda_runtime_api.obj
 0002:00005890       ??_C@_0BI@DCDMAFGG@cudaMemPoolSetAttribute?$AA@ 0000000180075890     cudart_static:cudart_generated_cuda_runtime_api.obj
 0002:000058a8       ??_C@_0BI@EGICMJCK@cudaMemPoolGetAttribute?$AA@ 00000001800758a8     cudart_static:cudart_generated_cuda_runtime_api.obj
 0002:000058c0       ??_C@_0BF@PELHLDHN@cudaMemPoolSetAccess?$AA@ 00000001800758c0     cudart_static:cudart_generated_cuda_runtime_api.obj
 0002:000058d8       ??_C@_0BF@NKPCJCOP@cudaMemPoolGetAccess?$AA@ 00000001800758d8     cudart_static:cudart_generated_cuda_runtime_api.obj
 0002:000058f0       ??_C@_0BC@LGJLFGDG@cudaMemPoolCreate?$AA@ 00000001800758f0     cudart_static:cudart_generated_cuda_runtime_api.obj
 0002:00005908       ??_C@_0BD@MMDOEEFH@cudaMemPoolDestroy?$AA@ 0000000180075908     cudart_static:cudart_generated_cuda_runtime_api.obj
 0002:00005920       ??_C@_0BN@HJPJLDHH@cudaMallocFromPoolAsync_ptsz?$AA@ 0000000180075920     cudart_static:cudart_generated_cuda_runtime_api.obj
 0002:00005940       ??_C@_0CD@JENLFPG@cudaMemPoolExportToShareableHand@ 0000000180075940     cudart_static:cudart_generated_cuda_runtime_api.obj
 0002:00005968       ??_C@_0CF@DBAKOIHK@cudaMemPoolImportFromShareableHa@ 0000000180075968     cudart_static:cudart_generated_cuda_runtime_api.obj
 0002:00005990       ??_C@_0BJ@KLDHLLMK@cudaMemPoolExportPointer?$AA@ 0000000180075990     cudart_static:cudart_generated_cuda_runtime_api.obj
 0002:000059b0       ??_C@_0BJ@CIOKDPCO@cudaMemPoolImportPointer?$AA@ 00000001800759b0     cudart_static:cudart_generated_cuda_runtime_api.obj
 0002:000059d0       ??_C@_0BJ@BHBGBGJJ@cudaPointerGetAttributes?$AA@ 00000001800759d0     cudart_static:cudart_generated_cuda_runtime_api.obj
 0002:000059f0       ??_C@_0BI@PBFKIHHL@cudaDeviceCanAccessPeer?$AA@ 00000001800759f0     cudart_static:cudart_generated_cuda_runtime_api.obj
 0002:00005a08       ??_C@_0BL@FKLEPMND@cudaDeviceEnablePeerAccess?$AA@ 0000000180075a08     cudart_static:cudart_generated_cuda_runtime_api.obj
 0002:00005a28       ??_C@_0BM@FMOCPBNL@cudaDeviceDisablePeerAccess?$AA@ 0000000180075a28     cudart_static:cudart_generated_cuda_runtime_api.obj
 0002:00005a48       ??_C@_0BP@FNDDKLDK@cudaGraphicsUnregisterResource?$AA@ 0000000180075a48     cudart_static:cudart_generated_cuda_runtime_api.obj
 0002:00005a68       ??_C@_0CA@PMLEHOKA@cudaGraphicsResourceSetMapFlags?$AA@ 0000000180075a68     cudart_static:cudart_generated_cuda_runtime_api.obj
 0002:00005a88       ??_C@_0BJ@JELINGOB@cudaGraphicsMapResources?$AA@ 0000000180075a88     cudart_static:cudart_generated_cuda_runtime_api.obj
 0002:00005aa8       ??_C@_0BL@FCBIEEJP@cudaGraphicsUnmapResources?$AA@ 0000000180075aa8     cudart_static:cudart_generated_cuda_runtime_api.obj
 0002:00005ac8       ??_C@_0CF@CFKPPDI@cudaGraphicsResourceGetMappedPoi@ 0000000180075ac8     cudart_static:cudart_generated_cuda_runtime_api.obj
 0002:00005af0       ??_C@_0CG@PDHHFJPI@cudaGraphicsSubResourceGetMapped@ 0000000180075af0     cudart_static:cudart_generated_cuda_runtime_api.obj
 0002:00005b18       ??_C@_0CM@EFKKCKHM@cudaGraphicsResourceGetMappedMip@ 0000000180075b18     cudart_static:cudart_generated_cuda_runtime_api.obj
 0002:00005b48       ??_C@_0BD@KJOJBOHG@cudaGetChannelDesc?$AA@ 0000000180075b48     cudart_static:cudart_generated_cuda_runtime_api.obj
 0002:00005b60       ??_C@_0BG@DBAMOIJO@cudaCreateChannelDesc?$AA@ 0000000180075b60     cudart_static:cudart_generated_cuda_runtime_api.obj
 0002:00005b78       ??_C@_0BI@IGFDAIEI@cudaCreateTextureObject?$AA@ 0000000180075b78     cudart_static:cudart_generated_cuda_runtime_api.obj
 0002:00005b90       ??_C@_0BJ@IHOKPNFH@cudaDestroyTextureObject?$AA@ 0000000180075b90     cudart_static:cudart_generated_cuda_runtime_api.obj
 0002:00005bb0       ??_C@_0CB@GPGPMFIB@cudaGetTextureObjectResourceDesc@ 0000000180075bb0     cudart_static:cudart_generated_cuda_runtime_api.obj
 0002:00005bd8       ??_C@_0CA@FCFODCOO@cudaGetTextureObjectTextureDesc?$AA@ 0000000180075bd8     cudart_static:cudart_generated_cuda_runtime_api.obj
 0002:00005bf8       ??_C@_0CF@NNFAPEA@cudaGetTextureObjectResourceView@ 0000000180075bf8     cudart_static:cudart_generated_cuda_runtime_api.obj
 0002:00005c20       ??_C@_0BI@NOMKOGJJ@cudaCreateSurfaceObject?$AA@ 0000000180075c20     cudart_static:cudart_generated_cuda_runtime_api.obj
 0002:00005c38       ??_C@_0BJ@NPHDBDIG@cudaDestroySurfaceObject?$AA@ 0000000180075c38     cudart_static:cudart_generated_cuda_runtime_api.obj
 0002:00005c58       ??_C@_0CB@CJABHEOO@cudaGetSurfaceObjectResourceDesc@ 0000000180075c58     cudart_static:cudart_generated_cuda_runtime_api.obj
 0002:00005c80       ??_C@_0BF@GKELDGAE@cudaDriverGetVersion?$AA@ 0000000180075c80     cudart_static:cudart_generated_cuda_runtime_api.obj
 0002:00005c98       ??_C@_0BG@DCMGFCMH@cudaRuntimeGetVersion?$AA@ 0000000180075c98     cudart_static:cudart_generated_cuda_runtime_api.obj
 0002:00005cb0       ??_C@_0BA@PFAMLMNC@cudaGraphCreate?$AA@ 0000000180075cb0     cudart_static:cudart_generated_cuda_runtime_api.obj
 0002:00005cc0       ??_C@_0BH@JPMAMKIH@cudaGraphAddKernelNode?$AA@ 0000000180075cc0     cudart_static:cudart_generated_cuda_runtime_api.obj
 0002:00005cd8       ??_C@_0BN@PIKEDOOA@cudaGraphKernelNodeGetParams?$AA@ 0000000180075cd8     cudart_static:cudart_generated_cuda_runtime_api.obj
 0002:00005cf8       ??_C@_0BN@NGOBBPHC@cudaGraphKernelNodeSetParams?$AA@ 0000000180075cf8     cudart_static:cudart_generated_cuda_runtime_api.obj
 0002:00005d18       ??_C@_0CC@PGODCPDB@cudaGraphKernelNodeCopyAttribute@ 0000000180075d18     cudart_static:cudart_generated_cuda_runtime_api.obj
 0002:00005d40       ??_C@_0CA@FGHMDNAM@cudaGraphKernelNodeGetAttribute?$AA@ 0000000180075d40     cudart_static:cudart_generated_cuda_runtime_api.obj
 0002:00005d60       ??_C@_0CA@CCMCPBEA@cudaGraphKernelNodeSetAttribute?$AA@ 0000000180075d60     cudart_static:cudart_generated_cuda_runtime_api.obj
 0002:00005d80       ??_C@_0BH@PJPELIPE@cudaGraphAddMemcpyNode?$AA@ 0000000180075d80     cudart_static:cudart_generated_cuda_runtime_api.obj
 0002:00005d98       ??_C@_0BP@MBLHFLNI@cudaGraphAddMemcpyNodeToSymbol?$AA@ 0000000180075d98     cudart_static:cudart_generated_cuda_runtime_api.obj
 0002:00005db8       ??_C@_0CB@CAPHNNCL@cudaGraphAddMemcpyNodeFromSymbol@ 0000000180075db8     cudart_static:cudart_generated_cuda_runtime_api.obj
 0002:00005de0       ??_C@_0BJ@ENGODFF@cudaGraphAddMemcpyNode1D?$AA@ 0000000180075de0     cudart_static:cudart_generated_cuda_runtime_api.obj
 0002:00005e00       ??_C@_0BN@FNHODKBL@cudaGraphMemcpyNodeGetParams?$AA@ 0000000180075e00     cudart_static:cudart_generated_cuda_runtime_api.obj
 0002:00005e20       ??_C@_0BN@HDDLBLIJ@cudaGraphMemcpyNodeSetParams?$AA@ 0000000180075e20     cudart_static:cudart_generated_cuda_runtime_api.obj
 0002:00005e40       ??_C@_0CF@JLEJBCDI@cudaGraphMemcpyNodeSetParamsToSy@ 0000000180075e40     cudart_static:cudart_generated_cuda_runtime_api.obj
 0002:00005e68       ??_C@_0CH@HBIJINAN@cudaGraphMemcpyNodeSetParamsFrom@ 0000000180075e68     cudart_static:cudart_generated_cuda_runtime_api.obj
 0002:00005e90       ??_C@_0BP@NBJIJMHD@cudaGraphMemcpyNodeSetParams1D?$AA@ 0000000180075e90     cudart_static:cudart_generated_cuda_runtime_api.obj
 0002:00005eb0       ??_C@_0BH@MDHCJGI@cudaGraphAddMemsetNode?$AA@ 0000000180075eb0     cudart_static:cudart_generated_cuda_runtime_api.obj
 0002:00005ec8       ??_C@_0BN@CKFPDCOC@cudaGraphMemsetNodeGetParams?$AA@ 0000000180075ec8     cudart_static:cudart_generated_cuda_runtime_api.obj
 0002:00005ee8       ??_C@_0BN@EBKBDHA@cudaGraphMemsetNodeSetParams?$AA@ 0000000180075ee8     cudart_static:cudart_generated_cuda_runtime_api.obj
 0002:00005f08       ??_C@_0BF@MJBGMIGL@cudaGraphAddHostNode?$AA@ 0000000180075f08     cudart_static:cudart_generated_cuda_runtime_api.obj
 0002:00005f20       ??_C@_0BL@HCEFKND@cudaGraphHostNodeGetParams?$AA@ 0000000180075f20     cudart_static:cudart_generated_cuda_runtime_api.obj
 0002:00005f40       ??_C@_0BL@CJGBHLEB@cudaGraphHostNodeSetParams?$AA@ 0000000180075f40     cudart_static:cudart_generated_cuda_runtime_api.obj
 0002:00005f60       ??_C@_0BL@NHBLKPMG@cudaGraphAddChildGraphNode?$AA@ 0000000180075f60     cudart_static:cudart_generated_cuda_runtime_api.obj
 0002:00005f80       ??_C@_0CA@IIDDCMPO@cudaGraphChildGraphNodeGetGraph?$AA@ 0000000180075f80     cudart_static:cudart_generated_cuda_runtime_api.obj
 0002:00005fa0       ??_C@_0BG@KELJEJLI@cudaGraphAddEmptyNode?$AA@ 0000000180075fa0     cudart_static:cudart_generated_cuda_runtime_api.obj
 0002:00005fb8       ??_C@_0BM@ICODDMH@cudaGraphAddEventRecordNode?$AA@ 0000000180075fb8     cudart_static:cudart_generated_cuda_runtime_api.obj
 0002:00005fd8       ??_C@_0CB@HGLMHKPM@cudaGraphEventRecordNodeGetEvent@ 0000000180075fd8     cudart_static:cudart_generated_cuda_runtime_api.obj
 0002:00006000       ??_C@_0CB@IHJAGJIB@cudaGraphEventRecordNodeSetEvent@ 0000000180076000     cudart_static:cudart_generated_cuda_runtime_api.obj
 0002:00006028       ??_C@_0BK@FCIFJNNF@cudaGraphAddEventWaitNode?$AA@ 0000000180076028     cudart_static:cudart_generated_cuda_runtime_api.obj
 0002:00006048       ??_C@_0BP@GOPHJNHB@cudaGraphEventWaitNodeGetEvent?$AA@ 0000000180076048     cudart_static:cudart_generated_cuda_runtime_api.obj
 0002:00006068       ??_C@_0BP@JPNLIOAM@cudaGraphEventWaitNodeSetEvent?$AA@ 0000000180076068     cudart_static:cudart_generated_cuda_runtime_api.obj
 0002:00006088       ??_C@_0CJ@KDOAJCGF@cudaGraphAddExternalSemaphoresSi@ 0000000180076088     cudart_static:cudart_generated_cuda_runtime_api.obj
 0002:000060b8       ??_C@_0CP@GJBNLPJN@cudaGraphExternalSemaphoresSigna@ 00000001800760b8     cudart_static:cudart_generated_cuda_runtime_api.obj
 0002:000060e8       ??_C@_0CP@EHFIJOAP@cudaGraphExternalSemaphoresSigna@ 00000001800760e8     cudart_static:cudart_generated_cuda_runtime_api.obj
 0002:00006118       ??_C@_0CH@IJMOOPAB@cudaGraphAddExternalSemaphoresWa@ 0000000180076118     cudart_static:cudart_generated_cuda_runtime_api.obj
 0002:00006140       ??_C@_0CN@EFOGKPDO@cudaGraphExternalSemaphoresWaitN@ 0000000180076140     cudart_static:cudart_generated_cuda_runtime_api.obj
 0002:00006170       ??_C@_0CN@GLKDIOKM@cudaGraphExternalSemaphoresWaitN@ 0000000180076170     cudart_static:cudart_generated_cuda_runtime_api.obj
 0002:000061a0       ??_C@_0BJ@CNPNGCLI@cudaGraphAddMemAllocNode?$AA@ 00000001800761a0     cudart_static:cudart_generated_cuda_runtime_api.obj
 0002:000061c0       ??_C@_0BP@INAIKHGI@cudaGraphMemAllocNodeGetParams?$AA@ 00000001800761c0     cudart_static:cudart_generated_cuda_runtime_api.obj
 0002:000061e0       ??_C@_0BI@MPJHHFAD@cudaGraphAddMemFreeNode?$AA@ 00000001800761e0     cudart_static:cudart_generated_cuda_runtime_api.obj
 0002:000061f8       ??_C@_0BO@HLDOBGIB@cudaGraphMemFreeNodeGetParams?$AA@ 00000001800761f8     cudart_static:cudart_generated_cuda_runtime_api.obj
 0002:00006218       ??_C@_0BH@HAPEALAE@cudaDeviceGraphMemTrim?$AA@ 0000000180076218     cudart_static:cudart_generated_cuda_runtime_api.obj
 0002:00006230       ??_C@_0BP@KCKJJEOB@cudaDeviceGetGraphMemAttribute?$AA@ 0000000180076230     cudart_static:cudart_generated_cuda_runtime_api.obj
 0002:00006250       ??_C@_0BP@PLLEICLG@cudaDeviceSetGraphMemAttribute?$AA@ 0000000180076250     cudart_static:cudart_generated_cuda_runtime_api.obj
 0002:00006270       ??_C@_0P@NGEILNCK@cudaGraphClone?$AA@ 0000000180076270     cudart_static:cudart_generated_cuda_runtime_api.obj
 0002:00006280       ??_C@_0BJ@OILNCACJ@cudaGraphNodeFindInClone?$AA@ 0000000180076280     cudart_static:cudart_generated_cuda_runtime_api.obj
 0002:000062a0       ??_C@_0BF@IBINOJHB@cudaGraphNodeGetType?$AA@ 00000001800762a0     cudart_static:cudart_generated_cuda_runtime_api.obj
 0002:000062b8       ??_C@_0BC@IIJKAGJJ@cudaGraphGetNodes?$AA@ 00000001800762b8     cudart_static:cudart_generated_cuda_runtime_api.obj
 0002:000062d0       ??_C@_0BG@FAJFOGBB@cudaGraphGetRootNodes?$AA@ 00000001800762d0     cudart_static:cudart_generated_cuda_runtime_api.obj
 0002:000062e8       ??_C@_0BC@IHDIGIKF@cudaGraphGetEdges?$AA@ 00000001800762e8     cudart_static:cudart_generated_cuda_runtime_api.obj
 0002:00006300       ??_C@_0BN@JMLNIFLM@cudaGraphNodeGetDependencies?$AA@ 0000000180076300     cudart_static:cudart_generated_cuda_runtime_api.obj
 0002:00006320       ??_C@_0BP@KAACMJBB@cudaGraphNodeGetDependentNodes?$AA@ 0000000180076320     cudart_static:cudart_generated_cuda_runtime_api.obj
 0002:00006340       ??_C@_0BJ@GNCBFGBM@cudaGraphAddDependencies?$AA@ 0000000180076340     cudart_static:cudart_generated_cuda_runtime_api.obj
 0002:00006360       ??_C@_0BM@LLJJNGPB@cudaGraphRemoveDependencies?$AA@ 0000000180076360     cudart_static:cudart_generated_cuda_runtime_api.obj
 0002:00006380       ??_C@_0BF@GGBCAIHC@cudaGraphDestroyNode?$AA@ 0000000180076380     cudart_static:cudart_generated_cuda_runtime_api.obj
 0002:00006398       ??_C@_0BF@LMFJIHCN@cudaGraphInstantiate?$AA@ 0000000180076398     cudart_static:cudart_generated_cuda_runtime_api.obj
 0002:000063b0       ??_C@_0BO@IFJNLFLA@cudaGraphInstantiateWithFlags?$AA@ 00000001800763b0     cudart_static:cudart_generated_cuda_runtime_api.obj
 0002:000063d0       ??_C@_0CE@CKIKPBIF@cudaGraphInstantiateWithParams_p@ 00000001800763d0     cudart_static:cudart_generated_cuda_runtime_api.obj
 0002:000063f8       ??_C@_0BG@HNHHKNNH@cudaGraphExecGetFlags?$AA@ 00000001800763f8     cudart_static:cudart_generated_cuda_runtime_api.obj
 0002:00006410       ??_C@_0CB@GCKECBGF@cudaGraphExecKernelNodeSetParams@ 0000000180076410     cudart_static:cudart_generated_cuda_runtime_api.obj
 0002:00006438       ??_C@_0CB@MHHOCFJO@cudaGraphExecMemcpyNodeSetParams@ 0000000180076438     cudart_static:cudart_generated_cuda_runtime_api.obj
 0002:00006460       ??_C@_0CJ@KPLJMBAO@cudaGraphExecMemcpyNodeSetParams@ 0000000180076460     cudart_static:cudart_generated_cuda_runtime_api.obj
 0002:00006490       ??_C@_0CL@OHEPKLOG@cudaGraphExecMemcpyNodeSetParams@ 0000000180076490     cudart_static:cudart_generated_cuda_runtime_api.obj
 0002:000064c0       ??_C@_0CD@BFHKLBAL@cudaGraphExecMemcpyNodeSetParams@ 00000001800764c0     cudart_static:cudart_generated_cuda_runtime_api.obj
 0002:000064e8       ??_C@_0CB@LAFPCNGH@cudaGraphExecMemsetNodeSetParams@ 00000001800764e8     cudart_static:cudart_generated_cuda_runtime_api.obj
 0002:00006510       ??_C@_0BP@KNMCNDKD@cudaGraphExecHostNodeSetParams?$AA@ 0000000180076510     cudart_static:cudart_generated_cuda_runtime_api.obj
 0002:00006530       ??_C@_0CF@DMPGEBMP@cudaGraphExecChildGraphNodeSetPa@ 0000000180076530     cudart_static:cudart_generated_cuda_runtime_api.obj
 0002:00006558       ??_C@_0CF@CFKJACOI@cudaGraphExecEventRecordNodeSetE@ 0000000180076558     cudart_static:cudart_generated_cuda_runtime_api.obj
 0002:00006580       ??_C@_0CD@FLDJKDHE@cudaGraphExecEventWaitNodeSetEve@ 0000000180076580     cudart_static:cudart_generated_cuda_runtime_api.obj
 0002:000065a8       ??_C@_0DD@KMHIIEIH@cudaGraphExecExternalSemaphoresS@ 00000001800765a8     cudart_static:cudart_generated_cuda_runtime_api.obj
 0002:000065e0       ??_C@_0DB@PDBJMKNB@cudaGraphExecExternalSemaphoresW@ 00000001800765e0     cudart_static:cudart_generated_cuda_runtime_api.obj
 0002:00006618       ??_C@_0BI@BBGHDJP@cudaGraphNodeSetEnabled?$AA@ 0000000180076618     cudart_static:cudart_generated_cuda_runtime_api.obj
 0002:00006630       ??_C@_0BI@BPDJMENG@cudaGraphNodeGetEnabled?$AA@ 0000000180076630     cudart_static:cudart_generated_cuda_runtime_api.obj
 0002:00006648       ??_C@_0BE@CECNNIL@cudaGraphExecUpdate?$AA@ 0000000180076648     cudart_static:cudart_generated_cuda_runtime_api.obj
 0002:00006660       ??_C@_0BF@LKMCCOKK@cudaGraphUpload_ptsz?$AA@ 0000000180076660     cudart_static:cudart_generated_cuda_runtime_api.obj
 0002:00006678       ??_C@_0BF@NEODBKE@cudaGraphLaunch_ptsz?$AA@ 0000000180076678     cudart_static:cudart_generated_cuda_runtime_api.obj
 0002:00006690       ??_C@_0BF@JPENKIMN@cudaGraphExecDestroy?$AA@ 0000000180076690     cudart_static:cudart_generated_cuda_runtime_api.obj
 0002:000066a8       ??_C@_0BB@GLBKPFNM@cudaGraphDestroy?$AA@ 00000001800766a8     cudart_static:cudart_generated_cuda_runtime_api.obj
 0002:000066c0       ??_C@_0BH@GLEFCNFP@cudaGraphDebugDotPrint?$AA@ 00000001800766c0     cudart_static:cudart_generated_cuda_runtime_api.obj
 0002:000066d8       ??_C@_0BF@MGLAEIAJ@cudaUserObjectCreate?$AA@ 00000001800766d8     cudart_static:cudart_generated_cuda_runtime_api.obj
 0002:000066f0       ??_C@_0BF@LDEALKIK@cudaUserObjectRetain?$AA@ 00000001800766f0     cudart_static:cudart_generated_cuda_runtime_api.obj
 0002:00006708       ??_C@_0BG@NOBLILJM@cudaUserObjectRelease?$AA@ 0000000180076708     cudart_static:cudart_generated_cuda_runtime_api.obj
 0002:00006720       ??_C@_0BK@KFIFMJHI@cudaGraphRetainUserObject?$AA@ 0000000180076720     cudart_static:cudart_generated_cuda_runtime_api.obj
 0002:00006740       ??_C@_0BL@LAKAJAPH@cudaGraphReleaseUserObject?$AA@ 0000000180076740     cudart_static:cudart_generated_cuda_runtime_api.obj
 0002:00006760       ??_C@_0BB@DIJOFPPG@cudaGraphAddNode?$AA@ 0000000180076760     cudart_static:cudart_generated_cuda_runtime_api.obj
 0002:00006778       ??_C@_0BH@GLMCKAOA@cudaGraphNodeSetParams?$AA@ 0000000180076778     cudart_static:cudart_generated_cuda_runtime_api.obj
 0002:00006790       ??_C@_0BL@IHNMJGLD@cudaGraphExecNodeSetParams?$AA@ 0000000180076790     cudart_static:cudart_generated_cuda_runtime_api.obj
 0002:000067b0       ??_C@_0BN@IALAGIOE@cudaGetDriverEntryPoint_ptsz?$AA@ 00000001800767b0     cudart_static:cudart_generated_cuda_runtime_api.obj
 0002:000067d0       ??_C@_0BE@OBMICPIP@cudaGetFuncBySymbol?$AA@ 00000001800767d0     cudart_static:cudart_generated_cuda_runtime_api.obj
 0002:000067e8       ??_C@_0O@EACPBLBP@cudaGetKernel?$AA@ 00000001800767e8     cudart_static:cudart_generated_cuda_runtime_api.obj
 0002:000067f8       ??_C@_0L@MPDIELNF@cudaMemcpy?$AA@ 00000001800767f8     cudart_static:cudart_generated_cuda_runtime_api.obj
 0002:00006808       ??_C@_0BD@OJLGIKLN@cudaMemcpyToSymbol?$AA@ 0000000180076808     cudart_static:cudart_generated_cuda_runtime_api.obj
 0002:00006820       ??_C@_0BF@MJKJIIIK@cudaMemcpyFromSymbol?$AA@ 0000000180076820     cudart_static:cudart_generated_cuda_runtime_api.obj
 0002:00006838       ??_C@_0N@KOLLNNIF@cudaMemcpy2D?$AA@ 0000000180076838     cudart_static:cudart_generated_cuda_runtime_api.obj
 0002:00006848       ??_C@_0BC@LOEBHLLD@cudaMemcpyToArray?$AA@ 0000000180076848     cudart_static:cudart_generated_cuda_runtime_api.obj
 0002:00006860       ??_C@_0BE@CDHHDNHO@cudaMemcpy2DToArray?$AA@ 0000000180076860     cudart_static:cudart_generated_cuda_runtime_api.obj
 0002:00006878       ??_C@_0BE@MOMGPPMG@cudaMemcpyFromArray?$AA@ 0000000180076878     cudart_static:cudart_generated_cuda_runtime_api.obj
 0002:00006890       ??_C@_0BG@CPCNCPFG@cudaMemcpy2DFromArray?$AA@ 0000000180076890     cudart_static:cudart_generated_cuda_runtime_api.obj
 0002:000068a8       ??_C@_0BH@NMHHNEFM@cudaMemcpyArrayToArray?$AA@ 00000001800768a8     cudart_static:cudart_generated_cuda_runtime_api.obj
 0002:000068c0       ??_C@_0BJ@JHIEJCKC@cudaMemcpy2DArrayToArray?$AA@ 00000001800768c0     cudart_static:cudart_generated_cuda_runtime_api.obj
 0002:000068e0       ??_C@_0N@KPHJLHLC@cudaMemcpy3D?$AA@ 00000001800768e0     cudart_static:cudart_generated_cuda_runtime_api.obj
 0002:000068f0       ??_C@_0BB@KIAAMIAH@cudaMemcpy3DPeer?$AA@ 00000001800768f0     cudart_static:cudart_generated_cuda_runtime_api.obj
 0002:00006908       ??_C@_0L@DAGCADJM@cudaMemset?$AA@ 0000000180076908     cudart_static:cudart_generated_cuda_runtime_api.obj
 0002:00006918       ??_C@_0N@PHAHBPDB@cudaMemset2D?$AA@ 0000000180076918     cudart_static:cudart_generated_cuda_runtime_api.obj
 0002:00006928       ??_C@_0N@PGMFHFAG@cudaMemset3D?$AA@ 0000000180076928     cudart_static:cudart_generated_cuda_runtime_api.obj
 0002:00006938       ??_C@_0BA@LMCCCDC@cudaMemcpyAsync?$AA@ 0000000180076938     cudart_static:cudart_generated_cuda_runtime_api.obj
 0002:00006948       ??_C@_0BI@EEAECCHD@cudaMemcpyToSymbolAsync?$AA@ 0000000180076948     cudart_static:cudart_generated_cuda_runtime_api.obj
 0002:00006960       ??_C@_0BK@HPPCEOIB@cudaMemcpyFromSymbolAsync?$AA@ 0000000180076960     cudart_static:cudart_generated_cuda_runtime_api.obj
 0002:00006980       ??_C@_0BC@DEGPKMLO@cudaMemcpy2DAsync?$AA@ 0000000180076980     cudart_static:cudart_generated_cuda_runtime_api.obj
 0002:00006998       ??_C@_0BH@IAJPEDBG@cudaMemcpyToArrayAsync?$AA@ 0000000180076998     cudart_static:cudart_generated_cuda_runtime_api.obj
 0002:000069b0       ??_C@_0BJ@MLGMAFOI@cudaMemcpy2DToArrayAsync?$AA@ 00000001800769b0     cudart_static:cudart_generated_cuda_runtime_api.obj
 0002:000069d0       ??_C@_0BJ@BINDHJDG@cudaMemcpyFromArrayAsync?$AA@ 00000001800769d0     cudart_static:cudart_generated_cuda_runtime_api.obj
 0002:000069f0       ??_C@_0BL@NFDBKFD@cudaMemcpy2DFromArrayAsync?$AA@ 00000001800769f0     cudart_static:cudart_generated_cuda_runtime_api.obj
 0002:00006a10       ??_C@_0BC@PIMFKMCA@cudaMemcpy3DAsync?$AA@ 0000000180076a10     cudart_static:cudart_generated_cuda_runtime_api.obj
 0002:00006a28       ??_C@_0BG@HNPFOJG@cudaMemcpy3DPeerAsync?$AA@ 0000000180076a28     cudart_static:cudart_generated_cuda_runtime_api.obj
 0002:00006a40       ??_C@_0BA@PCIODOMM@cudaMemsetAsync?$AA@ 0000000180076a40     cudart_static:cudart_generated_cuda_runtime_api.obj
 0002:00006a50       ??_C@_0BC@KKFBMFIO@cudaMemset2DAsync?$AA@ 0000000180076a50     cudart_static:cudart_generated_cuda_runtime_api.obj
 0002:00006a68       ??_C@_0BC@GGPLMFBA@cudaMemset3DAsync?$AA@ 0000000180076a68     cudart_static:cudart_generated_cuda_runtime_api.obj
 0002:00006a80       ??_C@_0BA@DEOEJCIP@cudaStreamQuery?$AA@ 0000000180076a80     cudart_static:cudart_generated_cuda_runtime_api.obj
 0002:00006a90       ??_C@_0BD@JBEKDFGF@cudaStreamGetFlags?$AA@ 0000000180076a90     cudart_static:cudart_generated_cuda_runtime_api.obj
 0002:00006aa8       ??_C@_0BA@LOHMLCBM@cudaStreamGetId?$AA@ 0000000180076aa8     cudart_static:cudart_generated_cuda_runtime_api.obj
 0002:00006ab8       ??_C@_0BG@MFDICEIA@cudaStreamGetPriority?$AA@ 0000000180076ab8     cudart_static:cudart_generated_cuda_runtime_api.obj
 0002:00006ad0       ??_C@_0BA@ECGACGAL@cudaEventRecord?$AA@ 0000000180076ad0     cudart_static:cudart_generated_cuda_runtime_api.obj
 0002:00006ae0       ??_C@_0BJ@PCDBGD@cudaEventRecordWithFlags?$AA@ 0000000180076ae0     cudart_static:cudart_generated_cuda_runtime_api.obj
 0002:00006b00       ??_C@_0BE@JIIOMELB@cudaStreamWaitEvent?$AA@ 0000000180076b00     cudart_static:cudart_generated_cuda_runtime_api.obj
 0002:00006b18       ??_C@_0BG@LLDJLAHG@cudaStreamAddCallback?$AA@ 0000000180076b18     cudart_static:cudart_generated_cuda_runtime_api.obj
 0002:00006b30       ??_C@_0BJ@MEDBEICI@cudaStreamAttachMemAsync?$AA@ 0000000180076b30     cudart_static:cudart_generated_cuda_runtime_api.obj
 0002:00006b50       ??_C@_0BG@IIKBKGDK@cudaStreamSynchronize?$AA@ 0000000180076b50     cudart_static:cudart_generated_cuda_runtime_api.obj
 0002:00006b68       ??_C@_0BB@BJDBEHKH@cudaLaunchKernel?$AA@ 0000000180076b68     cudart_static:cudart_generated_cuda_runtime_api.obj
 0002:00006b80       ??_C@_0BE@BPKNBPCF@cudaLaunchKernelExC?$AA@ 0000000180076b80     cudart_static:cudart_generated_cuda_runtime_api.obj
 0002:00006b98       ??_C@_0BM@NJLIPGPI@cudaLaunchCooperativeKernel?$AA@ 0000000180076b98     cudart_static:cudart_generated_cuda_runtime_api.obj
 0002:00006bb8       ??_C@_0BD@CGAHOOH@cudaLaunchHostFunc?$AA@ 0000000180076bb8     cudart_static:cudart_generated_cuda_runtime_api.obj
 0002:00006bd0       ??_C@_0BF@JDHONMOG@cudaMemPrefetchAsync?$AA@ 0000000180076bd0     cudart_static:cudart_generated_cuda_runtime_api.obj
 0002:00006be8       ??_C@_0BI@BJDNCFMO@cudaMemPrefetchAsync_v2?$AA@ 0000000180076be8     cudart_static:cudart_generated_cuda_runtime_api.obj
 0002:00006c00       ??_C@_0CC@FNGDACMM@cudaSignalExternalSemaphoresAsyn@ 0000000180076c00     cudart_static:cudart_generated_cuda_runtime_api.obj
 0002:00006c28       ??_C@_0CH@KAFILBGC@cudaSignalExternalSemaphoresAsyn@ 0000000180076c28     cudart_static:cudart_generated_cuda_runtime_api.obj
 0002:00006c50       ??_C@_0CF@FAFKGCHO@cudaSignalExternalSemaphoresAsyn@ 0000000180076c50     cudart_static:cudart_generated_cuda_runtime_api.obj
 0002:00006c78       ??_C@_0CA@MDMMCBHN@cudaWaitExternalSemaphoresAsync?$AA@ 0000000180076c78     cudart_static:cudart_generated_cuda_runtime_api.obj
 0002:00006c98       ??_C@_0CF@CJOCNNP@cudaWaitExternalSemaphoresAsync_@ 0000000180076c98     cudart_static:cudart_generated_cuda_runtime_api.obj
 0002:00006cc0       ??_C@_0CD@GMAGDPNP@cudaWaitExternalSemaphoresAsync_@ 0000000180076cc0     cudart_static:cudart_generated_cuda_runtime_api.obj
 0002:00006ce8       ??_C@_0BP@GDPFICNC@cudaGraphInstantiateWithParams?$AA@ 0000000180076ce8     cudart_static:cudart_generated_cuda_runtime_api.obj
 0002:00006d08       ??_C@_0BA@FCPDPBLF@cudaGraphUpload?$AA@ 0000000180076d08     cudart_static:cudart_generated_cuda_runtime_api.obj
 0002:00006d18       ??_C@_0BA@BCECPAGC@cudaGraphLaunch?$AA@ 0000000180076d18     cudart_static:cudart_generated_cuda_runtime_api.obj
 0002:00006d28       ??_C@_0BH@FIAGFCNH@cudaStreamBeginCapture?$AA@ 0000000180076d28     cudart_static:cudart_generated_cuda_runtime_api.obj
 0002:00006d40       ??_C@_0BF@OOBMOFAE@cudaStreamEndCapture?$AA@ 0000000180076d40     cudart_static:cudart_generated_cuda_runtime_api.obj
 0002:00006d58       ??_C@_0BG@PKLOHGDB@cudaStreamIsCapturing?$AA@ 0000000180076d58     cudart_static:cudart_generated_cuda_runtime_api.obj
 0002:00006d70       ??_C@_0BJ@PCBCEBGK@cudaStreamGetCaptureInfo?$AA@ 0000000180076d70     cudart_static:cudart_generated_cuda_runtime_api.obj
 0002:00006d90       ??_C@_0BO@KKDCIOMG@cudaStreamGetCaptureInfo_ptsz?$AA@ 0000000180076d90     cudart_static:cudart_generated_cuda_runtime_api.obj
 0002:00006db0       ??_C@_0BM@HBPJBOGP@cudaStreamGetCaptureInfo_v2?$AA@ 0000000180076db0     cudart_static:cudart_generated_cuda_runtime_api.obj
 0002:00006dd0       ??_C@_0CJ@MOBBHJJC@cudaStreamUpdateCaptureDependenc@ 0000000180076dd0     cudart_static:cudart_generated_cuda_runtime_api.obj
 0002:00006e00       ??_C@_0BJ@NGNEJFCB@cudaStreamCopyAttributes?$AA@ 0000000180076e00     cudart_static:cudart_generated_cuda_runtime_api.obj
 0002:00006e20       ??_C@_0BH@BJDFJDB@cudaStreamGetAttribute?$AA@ 0000000180076e20     cudart_static:cudart_generated_cuda_runtime_api.obj
 0002:00006e38       ??_C@_0BH@HFCNJFHN@cudaStreamSetAttribute?$AA@ 0000000180076e38     cudart_static:cudart_generated_cuda_runtime_api.obj
 0002:00006e50       ??_C@_0BA@ONFFBFFI@cudaMallocAsync?$AA@ 0000000180076e50     cudart_static:cudart_generated_cuda_runtime_api.obj
 0002:00006e60       ??_C@_0O@KPIBNOHF@cudaFreeAsync?$AA@ 0000000180076e60     cudart_static:cudart_generated_cuda_runtime_api.obj
 0002:00006e70       ??_C@_0BI@NIKFANCO@cudaMallocFromPoolAsync?$AA@ 0000000180076e70     cudart_static:cudart_generated_cuda_runtime_api.obj
 0002:00006e88       ??_C@_0BI@GBEGMJOF@cudaGetDriverEntryPoint?$AA@ 0000000180076e88     cudart_static:cudart_generated_cuda_runtime_api.obj
 0002:00006ea0       ??_C@_0BI@LCIMFPOE@cudaGetDeviceProperties?$AA@ 0000000180076ea0     cudart_static:cudart_generated_cuda_runtime_api.obj
 0002:00006eb8       ??_C@_0P@OOGCFAKH@KernelBase?4dll?$AA@ 0000000180076eb8     cudart_static:cudart_cuoswin32.obj
 0002:00006ec8       ??_C@_0O@CHHBGLIN@VirtualAlloc2?$AA@ 0000000180076ec8     cudart_static:cudart_cuoswin32.obj
 0002:00006ed8       ??_C@_0P@HAFDKAFI@MapViewOfFile3?$AA@ 0000000180076ed8     cudart_static:cudart_cuoswin32.obj
 0002:00006ee8       ??_C@_0BB@FIMLDGPE@UnmapViewOfFile2?$AA@ 0000000180076ee8     cudart_static:cudart_cuoswin32.obj
 0002:00006efc       ??_C@_02KHDDNBB@?2?$CK?$AA@ 0000000180076efc     cudart_static:cudart_cuoswin32.obj
 0002:00006f00       ??_C@_01LFCBOECM@?4?$AA@   0000000180076f00     cudart_static:cudart_cuoswin32.obj
 0002:00006f04       ??_C@_02DJGKEECL@?4?4?$AA@ 0000000180076f04     cudart_static:cudart_cuoswin32.obj
 0002:00006f08       ??_C@_01KMDKNFGN@?1?$AA@   0000000180076f08     cudart_static:cudart_cuoswin32.obj
 0002:00006f10       ??_C@_07FMLNDKFM@APPDATA?$AA@ 0000000180076f10     cudart_static:cudart_cuoswin32.obj
 0002:00006f18       ??_C@_0N@MDJJJHMB@kernel32?4dll?$AA@ 0000000180076f18     cudart_static:cudart_cuoswin32.obj
 0002:00006f28       ??_C@_0BK@DFNBACLA@GetCurrentProcessorNumber?$AA@ 0000000180076f28     cudart_static:cudart_cuoswin32.obj
 0002:00006f48       ??_C@_0BF@BEALKGCI@GetNumaProcessorNode?$AA@ 0000000180076f48     cudart_static:cudart_cuoswin32.obj
 0002:00006f60       ??_C@_0BL@KHLNJIAF@GetNumaAvailableMemoryNode?$AA@ 0000000180076f60     cudart_static:cudart_cuoswin32.obj
 0002:00006f80       __real@408f400000000000    0000000180076f80     cudart_static:cudart_cuoswin32.obj
 0002:00006f88       __real@412e848000000000    0000000180076f88     cudart_static:cudart_cuoswin32.obj
 0002:00006f90       __real@43e0000000000000    0000000180076f90     cudart_static:cudart_cuoswin32.obj
 0002:00006f98       __real@5f000000            0000000180076f98     cudart_static:cudart_cuoswin32.obj
 0002:00007370       ??_C@_0L@BCLCHHLA@nvcuda?4dll?$AA@ 0000000180077370     cudart_static:cudart_cudart_global.obj
 0002:00007380       ??_C@_0CA@GDCIGDGK@CUDA_ENABLE_MODULE_LAZY_LOADING?$AA@ 0000000180077380     cudart_static:cudart_cudart_global.obj
 0002:000073a0       ??_C@_0BE@PGLDBEEN@cuGetProcAddress_v2?$AA@ 00000001800773a0     cudart_static:cudart_cudart_global.obj
 0002:000073b4       ??_C@_00CNPNBAHC@?$AA@     00000001800773b4     cudart_static:cudart_cudart_global.obj
 0002:000073b8       ??_C@_06BGNBMNO@cuInit?$AA@ 00000001800773b8     cudart_static:cudart_cudart_global.obj
 0002:000073c0       ??_C@_0BB@JLEKBDDP@cuGetProcAddress?$AA@ 00000001800773c0     cudart_static:cudart_cudart_global.obj
 0002:000073d8       ??_C@_0M@HNBJNLLN@cuDeviceGet?$AA@ 00000001800773d8     cudart_static:cudart_cudart_global.obj
 0002:000073e8       ??_C@_0BB@FHDBPPFB@cuDeviceGetCount?$AA@ 00000001800773e8     cudart_static:cudart_cudart_global.obj
 0002:00007400       ??_C@_0BA@OHKMFJNA@cuDeviceGetName?$AA@ 0000000180077400     cudart_static:cudart_cudart_global.obj
 0002:00007410       ??_C@_0BE@KGPMMCLE@cuDeviceTotalMem_v2?$AA@ 0000000180077410     cudart_static:cudart_cudart_global.obj
 0002:00007428       ??_C@_0BF@PDOGFPNC@cuDeviceGetAttribute?$AA@ 0000000180077428     cudart_static:cudart_cudart_global.obj
 0002:00007440       ??_C@_0BI@MBAOCOML@cuDeviceGetP2PAttribute?$AA@ 0000000180077440     cudart_static:cudart_cudart_global.obj
 0002:00007458       ??_C@_0BD@GCANFLFI@cuDriverGetVersion?$AA@ 0000000180077458     cudart_static:cudart_cudart_global.obj
 0002:00007470       ??_C@_0BG@PHEICNGO@cuDeviceGetByPCIBusId?$AA@ 0000000180077470     cudart_static:cudart_cudart_global.obj
 0002:00007488       ??_C@_0BE@LBINIEHA@cuDeviceGetPCIBusId?$AA@ 0000000180077488     cudart_static:cudart_cudart_global.obj
 0002:000074a0       ??_C@_0BA@DBPFKGBG@cuDeviceGetUuid?$AA@ 00000001800774a0     cudart_static:cudart_cudart_global.obj
 0002:000074b0       ??_C@_0CD@HFPAKKMG@cuDeviceGetTexture1DLinearMaxWid@ 00000001800774b0     cudart_static:cudart_cudart_global.obj
 0002:000074d8       ??_C@_0BK@MHGBMEKL@cuDeviceGetDefaultMemPool?$AA@ 00000001800774d8     cudart_static:cudart_cudart_global.obj
 0002:000074f8       ??_C@_0BD@NNDINAKF@cuDeviceSetMemPool?$AA@ 00000001800774f8     cudart_static:cudart_cudart_global.obj
 0002:00007510       ??_C@_0BD@MDBHGHOM@cuDeviceGetMemPool?$AA@ 0000000180077510     cudart_static:cudart_cudart_global.obj
 0002:00007528       ??_C@_0BL@DLIIDLMF@cuFlushGPUDirectRDMAWrites?$AA@ 0000000180077528     cudart_static:cudart_cudart_global.obj
 0002:00007548       ??_C@_0BA@FMAFFDOF@cuDeviceGetLuid?$AA@ 0000000180077548     cudart_static:cudart_cudart_global.obj
 0002:00007558       ??_C@_0BJ@FCIECOCP@cuDevicePrimaryCtxRetain?$AA@ 0000000180077558     cudart_static:cudart_cudart_global.obj
 0002:00007578       ??_C@_0BK@HIEGBIGP@cuDevicePrimaryCtxRelease?$AA@ 0000000180077578     cudart_static:cudart_cudart_global.obj
 0002:00007598       ??_C@_0BO@CLLBMLEA@cuDevicePrimaryCtxSetFlags_v2?$AA@ 0000000180077598     cudart_static:cudart_cudart_global.obj
 0002:000075b8       ??_C@_0BL@OKEONKLF@cuDevicePrimaryCtxGetState?$AA@ 00000001800775b8     cudart_static:cudart_cudart_global.obj
 0002:000075d8       ??_C@_0BI@CDHEKJJF@cuDevicePrimaryCtxReset?$AA@ 00000001800775d8     cudart_static:cudart_cudart_global.obj
 0002:000075f0       ??_C@_0P@IHFIKMAB@cuCtxCreate_v2?$AA@ 00000001800775f0     cudart_static:cudart_cudart_global.obj
 0002:00007600       ??_C@_0O@OALHECKC@cuCtxGetFlags?$AA@ 0000000180077600     cudart_static:cudart_cudart_global.obj
 0002:00007610       ??_C@_0BA@PBEAEEAM@cuCtxSetCurrent?$AA@ 0000000180077610     cudart_static:cudart_cudart_global.obj
 0002:00007620       ??_C@_0BA@OPGPPDEF@cuCtxGetCurrent?$AA@ 0000000180077620     cudart_static:cudart_cudart_global.obj
 0002:00007630       ??_C@_0M@HDOEFALK@cuCtxDetach?$AA@ 0000000180077630     cudart_static:cudart_cudart_global.obj
 0002:00007640       ??_C@_0BD@EBMOCPLL@cuCtxGetApiVersion?$AA@ 0000000180077640     cudart_static:cudart_cudart_global.obj
 0002:00007658       ??_C@_0P@LOBLDFFE@cuCtxGetDevice?$AA@ 0000000180077658     cudart_static:cudart_cudart_global.obj
 0002:00007668       ??_C@_0O@IGMFOKMB@cuCtxGetLimit?$AA@ 0000000180077668     cudart_static:cudart_cudart_global.obj
 0002:00007678       ??_C@_0O@HHOJPJLM@cuCtxSetLimit?$AA@ 0000000180077678     cudart_static:cudart_cudart_global.obj
 0002:00007688       ??_C@_0BE@LELLLOEP@cuCtxGetCacheConfig?$AA@ 0000000180077688     cudart_static:cudart_cudart_global.obj
 0002:000076a0       ??_C@_0BE@HKKFEEGD@cuCtxSetCacheConfig?$AA@ 00000001800776a0     cudart_static:cudart_cudart_global.obj
 0002:000076b8       ??_C@_0BI@NBLCPFIG@cuCtxGetSharedMemConfig?$AA@ 00000001800776b8     cudart_static:cudart_cudart_global.obj
 0002:000076d0       ??_C@_0BM@PIPHGPCK@cuCtxGetStreamPriorityRange?$AA@ 00000001800776d0     cudart_static:cudart_cudart_global.obj
 0002:000076f0       ??_C@_0BI@CLJIMDGO@cuCtxSetSharedMemConfig?$AA@ 00000001800776f0     cudart_static:cudart_cudart_global.obj
 0002:00007708       ??_C@_0BB@LPDDEHBO@cuCtxSynchronize?$AA@ 0000000180077708     cudart_static:cudart_cudart_global.obj
 0002:00007720       ??_C@_0BM@DNOEEFCG@cuCtxResetPersistingL2Cache?$AA@ 0000000180077720     cudart_static:cudart_cudart_global.obj
 0002:00007740       ??_C@_0BD@IAIJBFOB@cuCtxPopCurrent_v2?$AA@ 0000000180077740     cudart_static:cudart_cudart_global.obj
 0002:00007758       ??_C@_0BE@LCJOPGOL@cuCtxPushCurrent_v2?$AA@ 0000000180077758     cudart_static:cudart_cudart_global.obj
 0002:00007770       ??_C@_0N@IFLJFIJB@cuModuleLoad?$AA@ 0000000180077770     cudart_static:cudart_cudart_global.obj
 0002:00007780       ??_C@_0BB@MOHBGPBC@cuModuleLoadData?$AA@ 0000000180077780     cudart_static:cudart_cudart_global.obj
 0002:00007798       ??_C@_0BG@KAGEFBHF@cuModuleLoadFatBinary?$AA@ 0000000180077798     cudart_static:cudart_cudart_global.obj
 0002:000077b0       ??_C@_0P@FDOFKBJI@cuModuleUnload?$AA@ 00000001800777b0     cudart_static:cudart_cudart_global.obj
 0002:000077c0       ??_C@_0BE@NDFPCGHH@cuModuleGetFunction?$AA@ 00000001800777c0     cudart_static:cudart_cudart_global.obj
 0002:000077d8       ??_C@_0BF@NPFLGNMH@cuModuleGetGlobal_v2?$AA@ 00000001800777d8     cudart_static:cudart_cudart_global.obj
 0002:000077f0       ??_C@_0BC@BCHGFMCM@cuModuleGetTexRef?$AA@ 00000001800777f0     cudart_static:cudart_cudart_global.obj
 0002:00007808       ??_C@_0BD@PGPGAACI@cuModuleGetSurfRef?$AA@ 0000000180077808     cudart_static:cudart_cudart_global.obj
 0002:00007820       ??_C@_0BH@CGIKCFKL@cuModuleGetLoadingMode?$AA@ 0000000180077820     cudart_static:cudart_cudart_global.obj
 0002:00007838       ??_C@_0BC@JOGDCLBB@cuLibraryLoadData?$AA@ 0000000180077838     cudart_static:cudart_cudart_global.obj
 0002:00007850       ??_C@_0BG@IDNJLBBL@cuLibraryLoadFromFile?$AA@ 0000000180077850     cudart_static:cudart_cudart_global.obj
 0002:00007868       ??_C@_0BA@NBGEJCAG@cuLibraryUnload?$AA@ 0000000180077868     cudart_static:cudart_cudart_global.obj
 0002:00007878       ??_C@_0BD@BABLEEMH@cuLibraryGetKernel?$AA@ 0000000180077878     cudart_static:cudart_cudart_global.obj
 0002:00007890       ??_C@_0BD@GEPLGAOB@cuLibraryGetModule?$AA@ 0000000180077890     cudart_static:cudart_cudart_global.obj
 0002:000078a8       ??_C@_0BE@OJOMNOMI@cuKernelGetFunction?$AA@ 00000001800778a8     cudart_static:cudart_cudart_global.obj
 0002:000078c0       ??_C@_0BD@CFBLDLCM@cuLibraryGetGlobal?$AA@ 00000001800778c0     cudart_static:cudart_cudart_global.obj
 0002:000078d8       ??_C@_0BE@GFDNGJFF@cuLibraryGetManaged?$AA@ 00000001800778d8     cudart_static:cudart_cudart_global.obj
 0002:000078f0       ??_C@_0BF@LCCEDNBE@cuKernelGetAttribute?$AA@ 00000001800778f0     cudart_static:cudart_cudart_global.obj
 0002:00007908       ??_C@_0BF@MGJKPBFI@cuKernelSetAttribute?$AA@ 0000000180077908     cudart_static:cudart_cudart_global.obj
 0002:00007920       ??_C@_0BH@LOKJFMLM@cuKernelSetCacheConfig?$AA@ 0000000180077920     cudart_static:cudart_cudart_global.obj
 0002:00007938       ??_C@_0N@LNOIEPFL@cuLinkCreate?$AA@ 0000000180077938     cudart_static:cudart_cudart_global.obj
 0002:00007948       ??_C@_0O@HOJHIJGH@cuLinkAddData?$AA@ 0000000180077948     cudart_static:cudart_cudart_global.obj
 0002:00007958       ??_C@_0O@LHLKMFCE@cuLinkAddFile?$AA@ 0000000180077958     cudart_static:cudart_cudart_global.obj
 0002:00007968       ??_C@_0P@LIBFFNPI@cuLinkComplete?$AA@ 0000000180077968     cudart_static:cudart_cudart_global.obj
 0002:00007978       ??_C@_0O@PPDGCKKL@cuLinkDestroy?$AA@ 0000000180077978     cudart_static:cudart_cudart_global.obj
 0002:00007988       ??_C@_0BA@GHAIGLK@cuMemGetInfo_v2?$AA@ 0000000180077988     cudart_static:cudart_cudart_global.obj
 0002:00007998       ??_C@_0BC@NKBPPAGK@cuMemAllocManaged?$AA@ 0000000180077998     cudart_static:cudart_cudart_global.obj
 0002:000079b0       ??_C@_0O@NJJMILKN@cuMemAlloc_v2?$AA@ 00000001800779b0     cudart_static:cudart_cudart_global.obj
 0002:000079c0       ??_C@_0BD@ECKFOHNF@cuMemAllocPitch_v2?$AA@ 00000001800779c0     cudart_static:cudart_cudart_global.obj
 0002:000079d8       ??_C@_0N@MLOJDHPN@cuMemFree_v2?$AA@ 00000001800779d8     cudart_static:cudart_cudart_global.obj
 0002:000079e8       ??_C@_0BI@CBNHHFPK@cuMemGetAddressRange_v2?$AA@ 00000001800779e8     cudart_static:cudart_cudart_global.obj
 0002:00007a00       ??_C@_0O@GBNGPBE@cuMemFreeHost?$AA@ 0000000180077a00     cudart_static:cudart_cudart_global.obj
 0002:00007a10       ??_C@_0P@BEJBOLHF@cuMemHostAlloc?$AA@ 0000000180077a10     cudart_static:cudart_cudart_global.obj
 0002:00007a20       ??_C@_0BN@OAJLALOJ@cuMemHostGetDevicePointer_v2?$AA@ 0000000180077a20     cudart_static:cudart_cudart_global.obj
 0002:00007a40       ??_C@_0BC@DIDPDHIL@cuMemHostGetFlags?$AA@ 0000000180077a40     cudart_static:cudart_cudart_global.obj
 0002:00007a58       ??_C@_0BF@NMNDBH@cuMemHostRegister_v2?$AA@ 0000000180077a58     cudart_static:cudart_cudart_global.obj
 0002:00007a70       ??_C@_0BE@NPKFILKB@cuMemHostUnregister?$AA@ 0000000180077a70     cudart_static:cudart_cudart_global.obj
 0002:00007a88       ??_C@_0BG@ECOONMIL@cuPointerGetAttribute?$AA@ 0000000180077a88     cudart_static:cudart_cudart_global.obj
 0002:00007aa0       ??_C@_0BH@HODKJOEB@cuPointerGetAttributes?$AA@ 0000000180077aa0     cudart_static:cudart_cudart_global.obj
 0002:00007ab8       ??_C@_0BA@NAHDKMHJ@cuMemAllocAsync?$AA@ 0000000180077ab8     cudart_static:cudart_cudart_global.obj
 0002:00007ac8       ??_C@_0BF@EHMABNEG@cuMemAllocAsync_ptsz?$AA@ 0000000180077ac8     cudart_static:cudart_cudart_global.obj
 0002:00007ae0       ??_C@_0BI@NANAPPIJ@cuMemAllocFromPoolAsync?$AA@ 0000000180077ae0     cudart_static:cudart_cudart_global.obj
 0002:00007af8       ??_C@_0BN@NHCAOGO@cuMemAllocFromPoolAsync_ptsz?$AA@ 0000000180077af8     cudart_static:cudart_cudart_global.obj
 0002:00007b18       ??_C@_0P@KIBPBMPP@cuMemFreeAsync?$AA@ 0000000180077b18     cudart_static:cudart_cudart_global.obj
 0002:00007b28       ??_C@_0BE@MCDPNHFE@cuMemFreeAsync_ptsz?$AA@ 0000000180077b28     cudart_static:cudart_cudart_global.obj
 0002:00007b40       ??_C@_0BA@HMHGLJCJ@cuMemPoolTrimTo?$AA@ 0000000180077b40     cudart_static:cudart_cudart_global.obj
 0002:00007b50       ??_C@_0BG@BIHGCDPF@cuMemPoolSetAttribute?$AA@ 0000000180077b50     cudart_static:cudart_cudart_global.obj
 0002:00007b68       ??_C@_0BG@GMMIOPLJ@cuMemPoolGetAttribute?$AA@ 0000000180077b68     cudart_static:cudart_cudart_global.obj
 0002:00007b80       ??_C@_0BD@PMPBNOCB@cuMemPoolSetAccess?$AA@ 0000000180077b80     cudart_static:cudart_cudart_global.obj
 0002:00007b98       ??_C@_0BD@NCLEPPLD@cuMemPoolGetAccess?$AA@ 0000000180077b98     cudart_static:cudart_cudart_global.obj
 0002:00007bb0       ??_C@_0BA@JDILOHLK@cuMemPoolCreate?$AA@ 0000000180077bb0     cudart_static:cudart_cudart_global.obj
 0002:00007bc0       ??_C@_0BB@CIBFJLON@cuMemPoolDestroy?$AA@ 0000000180077bc0     cudart_static:cudart_cudart_global.obj
 0002:00007bd8       ??_C@_0CB@CIPBKGDD@cuMemPoolExportToShareableHandle@ 0000000180077bd8     cudart_static:cudart_cudart_global.obj
 0002:00007c00       ??_C@_0CD@DDJKLBD@cuMemPoolImportFromShareableHand@ 0000000180077c00     cudart_static:cudart_cudart_global.obj
 0002:00007c28       ??_C@_0BH@MCBLDDBC@cuMemPoolExportPointer?$AA@ 0000000180077c28     cudart_static:cudart_cudart_global.obj
 0002:00007c40       ??_C@_0BH@EBMGLHPG@cuMemPoolImportPointer?$AA@ 0000000180077c40     cudart_static:cudart_cudart_global.obj
 0002:00007c58       ??_C@_08HHAACGK@cuMemcpy?$AA@ 0000000180077c58     cudart_static:cudart_cudart_global.obj
 0002:00007c68       ??_C@_0O@MJKAHNBP@cuMemcpy_ptds?$AA@ 0000000180077c68     cudart_static:cudart_cudart_global.obj
 0002:00007c78       ??_C@_0O@CODCLHO@cuMemcpyAsync?$AA@ 0000000180077c78     cudart_static:cudart_cudart_global.obj
 0002:00007c88       ??_C@_0BD@MLHDFALJ@cuMemcpyAsync_ptsz?$AA@ 0000000180077c88     cudart_static:cudart_cudart_global.obj
 0002:00007ca0       ??_C@_0N@IBLKPFBJ@cuMemcpyPeer?$AA@ 0000000180077ca0     cudart_static:cudart_cudart_global.obj
 0002:00007cb0       ??_C@_0BC@JNICOFEF@cuMemcpyPeer_ptds?$AA@ 0000000180077cb0     cudart_static:cudart_cudart_global.obj
 0002:00007cc8       ??_C@_0BC@FGMBLDCE@cuMemcpyPeerAsync?$AA@ 0000000180077cc8     cudart_static:cudart_cudart_global.obj
 0002:00007ce0       ??_C@_0BH@CEDKEEEG@cuMemcpyPeerAsync_ptsz?$AA@ 0000000180077ce0     cudart_static:cudart_cudart_global.obj
 0002:00007cf8       ??_C@_0BA@JOOHFLNH@cuMemcpyHtoD_v2?$AA@ 0000000180077cf8     cudart_static:cudart_cudart_global.obj
 0002:00007d08       ??_C@_0BF@MPCNGOLE@cuMemcpyHtoD_v2_ptds?$AA@ 0000000180077d08     cudart_static:cudart_cudart_global.obj
 0002:00007d20       ??_C@_0BF@MMFGMAIP@cuMemcpyHtoDAsync_v2?$AA@ 0000000180077d20     cudart_static:cudart_cudart_global.obj
 0002:00007d38       ??_C@_0BK@CJLFCJFG@cuMemcpyHtoDAsync_v2_ptsz?$AA@ 0000000180077d38     cudart_static:cudart_cudart_global.obj
 0002:00007d58       ??_C@_0BA@MLIKDJJ@cuMemcpyDtoH_v2?$AA@ 0000000180077d58     cudart_static:cudart_cudart_global.obj
 0002:00007d68       ??_C@_0BF@EPKLDHMB@cuMemcpyDtoH_v2_ptds?$AA@ 0000000180077d68     cudart_static:cudart_cudart_global.obj
 0002:00007d80       ??_C@_0BF@EMNAJJPK@cuMemcpyDtoHAsync_v2?$AA@ 0000000180077d80     cudart_static:cudart_cudart_global.obj
 0002:00007d98       ??_C@_0BK@HALJPJLI@cuMemcpyDtoHAsync_v2_ptsz?$AA@ 0000000180077d98     cudart_static:cudart_cudart_global.obj
 0002:00007db8       ??_C@_0BA@MJEIEOJI@cuMemcpyDtoD_v2?$AA@ 0000000180077db8     cudart_static:cudart_cudart_global.obj
 0002:00007dc8       ??_C@_0BF@FFJHNHEP@cuMemcpyDtoD_v2_ptds?$AA@ 0000000180077dc8     cudart_static:cudart_cudart_global.obj
 0002:00007de0       ??_C@_0BF@FGOMHJHE@cuMemcpyDtoDAsync_v2?$AA@ 0000000180077de0     cudart_static:cudart_cudart_global.obj
 0002:00007df8       ??_C@_0BK@DFEMFAFM@cuMemcpyDtoDAsync_v2_ptsz?$AA@ 0000000180077df8     cudart_static:cudart_cudart_global.obj
 0002:00007e18       ??_C@_0BH@GLDKDDLA@cuMemcpy2DUnaligned_v2?$AA@ 0000000180077e18     cudart_static:cudart_cudart_global.obj
 0002:00007e30       ??_C@_0BM@PGDHKJJO@cuMemcpy2DUnaligned_v2_ptds?$AA@ 0000000180077e30     cudart_static:cudart_cudart_global.obj
 0002:00007e50       ??_C@_0BD@DGFLGODJ@cuMemcpy2DAsync_v2?$AA@ 0000000180077e50     cudart_static:cudart_cudart_global.obj
 0002:00007e68       ??_C@_0BI@PNANCALA@cuMemcpy2DAsync_v2_ptsz?$AA@ 0000000180077e68     cudart_static:cudart_cudart_global.obj
 0002:00007e80       ??_C@_0O@GDMEINBN@cuMemcpy3D_v2?$AA@ 0000000180077e80     cudart_static:cudart_cudart_global.obj
 0002:00007e90       ??_C@_0BD@PEKOBPMC@cuMemcpy3D_v2_ptds?$AA@ 0000000180077e90     cudart_static:cudart_cudart_global.obj
 0002:00007ea8       ??_C@_0BD@PHNFLBPJ@cuMemcpy3DAsync_v2?$AA@ 0000000180077ea8     cudart_static:cudart_cudart_global.obj
 0002:00007ec0       ??_C@_0BI@FDGFLBCB@cuMemcpy3DAsync_v2_ptsz?$AA@ 0000000180077ec0     cudart_static:cudart_cudart_global.obj
 0002:00007ed8       ??_C@_0P@NHGDOELF@cuMemcpy3DPeer?$AA@ 0000000180077ed8     cudart_static:cudart_cudart_global.obj
 0002:00007ee8       ??_C@_0BE@KOEJFDEF@cuMemcpy3DPeer_ptds?$AA@ 0000000180077ee8     cudart_static:cudart_cudart_global.obj
 0002:00007f00       ??_C@_0BE@GFAKAFCE@cuMemcpy3DPeerAsync?$AA@ 0000000180077f00     cudart_static:cudart_cudart_global.obj
 0002:00007f18       ??_C@_0BJ@HFLCEJJB@cuMemcpy3DPeerAsync_ptsz?$AA@ 0000000180077f18     cudart_static:cudart_cudart_global.obj
 0002:00007f38       ??_C@_0O@LAINKBFE@cuMemsetD8_v2?$AA@ 0000000180077f38     cudart_static:cudart_cudart_global.obj
 0002:00007f48       ??_C@_0BD@JOPHBFOP@cuMemsetD8_v2_ptds?$AA@ 0000000180077f48     cudart_static:cudart_cudart_global.obj
 0002:00007f60       ??_C@_0BA@MOLGFGEK@cuMemsetD8Async?$AA@ 0000000180077f60     cudart_static:cudart_cudart_global.obj
 0002:00007f70       ??_C@_0BF@LLPECKH@cuMemsetD8Async_ptsz?$AA@ 0000000180077f70     cudart_static:cudart_cudart_global.obj
 0002:00007f88       ??_C@_0BA@CBOEJPNA@cuMemsetD2D8_v2?$AA@ 0000000180077f88     cudart_static:cudart_cudart_global.obj
 0002:00007f98       ??_C@_0BF@OFDJMHNL@cuMemsetD2D8_v2_ptds?$AA@ 0000000180077f98     cudart_static:cudart_cudart_global.obj
 0002:00007fb0       ??_C@_0BC@FADIIHMH@cuMemsetD2D8Async?$AA@ 0000000180077fb0     cudart_static:cudart_cudart_global.obj
 0002:00007fc8       ??_C@_0BH@NIEIHJGG@cuMemsetD2D8Async_ptsz?$AA@ 0000000180077fc8     cudart_static:cudart_cudart_global.obj
 0002:00007fe0       ??_C@_0BF@DKCOAGEC@cuFuncSetCacheConfig?$AA@ 0000000180077fe0     cudart_static:cudart_cudart_global.obj
 0002:00007ff8       ??_C@_0BJ@OOKDFCIL@cuFuncSetSharedMemConfig?$AA@ 0000000180077ff8     cudart_static:cudart_cudart_global.obj
 0002:00008018       ??_C@_0BD@KKLHOMPH@cuFuncGetAttribute?$AA@ 0000000180078018     cudart_static:cudart_cudart_global.obj
 0002:00008030       ??_C@_0BD@NOAJCALL@cuFuncSetAttribute?$AA@ 0000000180078030     cudart_static:cudart_cudart_global.obj
 0002:00008048       ??_C@_0BB@NGHAGIJH@cuArrayCreate_v2?$AA@ 0000000180078048     cudart_static:cudart_cudart_global.obj
 0002:00008060       ??_C@_0BI@FJCANFJP@cuArrayGetDescriptor_v2?$AA@ 0000000180078060     cudart_static:cudart_cudart_global.obj
 0002:00008078       ??_C@_0BL@NAKAPJAB@cuArrayGetSparseProperties?$AA@ 0000000180078078     cudart_static:cudart_cudart_global.obj
 0002:00008098       ??_C@_0BA@NALFIBEN@cuArrayGetPlane?$AA@ 0000000180078098     cudart_static:cudart_cudart_global.obj
 0002:000080a8       ??_C@_0BD@DEMHEMAD@cuArray3DCreate_v2?$AA@ 00000001800780a8     cudart_static:cudart_cudart_global.obj
 0002:000080c0       ??_C@_0BK@LJNCH@cuArray3DGetDescriptor_v2?$AA@ 00000001800780c0     cudart_static:cudart_cudart_global.obj
 0002:000080e0       ??_C@_0P@PAFPBIJN@cuArrayDestroy?$AA@ 00000001800780e0     cudart_static:cudart_cudart_global.obj
 0002:000080f0       ??_C@_0BH@PNFBIJFG@cuMipmappedArrayCreate?$AA@ 00000001800780f0     cudart_static:cudart_cudart_global.obj
 0002:00008108       ??_C@_0BJ@LBPELPII@cuMipmappedArrayGetLevel?$AA@ 0000000180078108     cudart_static:cudart_cudart_global.obj
 0002:00008128       ??_C@_0CE@OLDACCHL@cuMipmappedArrayGetSparsePropert@ 0000000180078128     cudart_static:cudart_cudart_global.obj
 0002:00008150       ??_C@_0BI@IBMHOPNA@cuMipmappedArrayDestroy?$AA@ 0000000180078150     cudart_static:cudart_cudart_global.obj
 0002:00008168       ??_C@_0BN@FEDFAPDH@cuArrayGetMemoryRequirements?$AA@ 0000000180078168     cudart_static:cudart_cudart_global.obj
 0002:00008188       ??_C@_0CG@JAOEKOIH@cuMipmappedArrayGetMemoryRequire@ 0000000180078188     cudart_static:cudart_cudart_global.obj
 0002:000081b0       ??_C@_0BC@INLCLEBG@cuTexObjectCreate?$AA@ 00000001800781b0     cudart_static:cudart_cudart_global.obj
 0002:000081c8       ??_C@_0BD@PHGLENHN@cuTexObjectDestroy?$AA@ 00000001800781c8     cudart_static:cudart_cudart_global.obj
 0002:000081e0       ??_C@_0BL@CMCGAFNF@cuTexObjectGetResourceDesc?$AA@ 00000001800781e0     cudart_static:cudart_cudart_global.obj
 0002:00008200       ??_C@_0BK@HCHHAMIG@cuTexObjectGetTextureDesc?$AA@ 0000000180078200     cudart_static:cudart_cudart_global.obj
 0002:00008220       ??_C@_0BP@BGHLOFJD@cuTexObjectGetResourceViewDesc?$AA@ 0000000180078220     cudart_static:cudart_cudart_global.obj
 0002:00008240       ??_C@_0BD@JKCONIJL@cuSurfObjectCreate?$AA@ 0000000180078240     cudart_static:cudart_cudart_global.obj
 0002:00008258       ??_C@_0BE@GEHFCOIM@cuSurfObjectDestroy?$AA@ 0000000180078258     cudart_static:cudart_cudart_global.obj
 0002:00008270       ??_C@_0BM@KMDHJFC@cuSurfObjectGetResourceDesc?$AA@ 0000000180078270     cudart_static:cudart_cudart_global.obj
 0002:00008290       ??_C@_0BH@MAEDJMDD@cuImportExternalMemory?$AA@ 0000000180078290     cudart_static:cudart_cudart_global.obj
 0002:000082a8       ??_C@_0CA@HAJENFBF@cuExternalMemoryGetMappedBuffer?$AA@ 00000001800782a8     cudart_static:cudart_cudart_global.obj
 0002:000082c8       ??_C@_0CI@FNIPNDHI@cuExternalMemoryGetMappedMipmapp@ 00000001800782c8     cudart_static:cudart_cudart_global.obj
 0002:000082f0       ??_C@_0BI@CKPGLJLE@cuDestroyExternalMemory?$AA@ 00000001800782f0     cudart_static:cudart_cudart_global.obj
 0002:00008308       ??_C@_0BK@EBKGJPID@cuImportExternalSemaphore?$AA@ 0000000180078308     cudart_static:cudart_cudart_global.obj
 0002:00008328       ??_C@_0CA@FFIEHCPI@cuSignalExternalSemaphoresAsync?$AA@ 0000000180078328     cudart_static:cudart_cudart_global.obj
 0002:00008348       ??_C@_0CF@PLLCEDJF@cuSignalExternalSemaphoresAsync_@ 0000000180078348     cudart_static:cudart_cudart_global.obj
 0002:00008370       ??_C@_0BO@OLBMIAGG@cuWaitExternalSemaphoresAsync?$AA@ 0000000180078370     cudart_static:cudart_cudart_global.obj
 0002:00008390       ??_C@_0CD@DAKNGOLG@cuWaitExternalSemaphoresAsync_pt@ 0000000180078390     cudart_static:cudart_cudart_global.obj
 0002:000083b8       ??_C@_0BL@PGCEAFII@cuDestroyExternalSemaphore?$AA@ 00000001800783b8     cudart_static:cudart_cudart_global.obj
 0002:000083d8       ??_C@_0P@GGFCGLBF@cuLaunchKernel?$AA@ 00000001800783d8     cudart_static:cudart_cudart_global.obj
 0002:000083e8       ??_C@_0BE@HLIIHEFM@cuLaunchKernel_ptsz?$AA@ 00000001800783e8     cudart_static:cudart_cudart_global.obj
 0002:00008400       ??_C@_0BK@JLKAOMLJ@cuLaunchCooperativeKernel?$AA@ 0000000180078400     cudart_static:cudart_cudart_global.obj
 0002:00008420       ??_C@_0BP@KJIDLAAH@cuLaunchCooperativeKernel_ptsz?$AA@ 0000000180078420     cudart_static:cudart_cudart_global.obj
 0002:00008440       ??_C@_0CF@JNAFIKFE@cuLaunchCooperativeKernelMultiDe@ 0000000180078440     cudart_static:cudart_cudart_global.obj
 0002:00008468       ??_C@_0BB@OGELKBFN@cuLaunchHostFunc?$AA@ 0000000180078468     cudart_static:cudart_cudart_global.obj
 0002:00008480       ??_C@_0BG@CCIPGJAC@cuLaunchHostFunc_ptsz?$AA@ 0000000180078480     cudart_static:cudart_cudart_global.obj
 0002:00008498       ??_C@_0BB@HMGCIEED@cuLaunchKernelEx?$AA@ 0000000180078498     cudart_static:cudart_cudart_global.obj
 0002:000084b0       ??_C@_0BG@NGIBAABC@cuLaunchKernelEx_ptsz?$AA@ 00000001800784b0     cudart_static:cudart_cudart_global.obj
 0002:000084c8       ??_C@_0O@OGDCEFHO@cuEventCreate?$AA@ 00000001800784c8     cudart_static:cudart_cudart_global.obj
 0002:000084d8       ??_C@_0O@ELEBCPEH@cuEventRecord?$AA@ 00000001800784d8     cudart_static:cudart_cudart_global.obj
 0002:000084e8       ??_C@_0BD@BDGHGAFL@cuEventRecord_ptsz?$AA@ 00000001800784e8     cudart_static:cudart_cudart_global.obj
 0002:00008500       ??_C@_0BH@GJNOLJLL@cuEventRecordWithFlags?$AA@ 0000000180078500     cudart_static:cudart_cudart_global.obj
 0002:00008518       ??_C@_0BM@FHHFNKJC@cuEventRecordWithFlags_ptsz?$AA@ 0000000180078518     cudart_static:cudart_cudart_global.obj
 0002:00008538       ??_C@_0N@DLDBPGHM@cuEventQuery?$AA@ 0000000180078538     cudart_static:cudart_cudart_global.obj
 0002:00008548       ??_C@_0BD@GNMDBCJG@cuEventSynchronize?$AA@ 0000000180078548     cudart_static:cudart_cudart_global.obj
 0002:00008560       ??_C@_0BC@EGILMLJL@cuEventDestroy_v2?$AA@ 0000000180078560     cudart_static:cudart_cudart_global.obj
 0002:00008578       ??_C@_0BD@COJGHNBG@cuEventElapsedTime?$AA@ 0000000180078578     cudart_static:cudart_cudart_global.obj
 0002:00008590       ??_C@_0BE@EAIIAGPN@cuStreamWaitValue32?$AA@ 0000000180078590     cudart_static:cudart_cudart_global.obj
 0002:000085a8       ??_C@_0BJ@OJKAOEFO@cuStreamWaitValue32_ptsz?$AA@ 00000001800785a8     cudart_static:cudart_cudart_global.obj
 0002:000085c8       ??_C@_0BF@HEEFEPB@cuStreamWriteValue32?$AA@ 00000001800785c8     cudart_static:cudart_cudart_global.obj
 0002:000085e0       ??_C@_0BK@GKNJHIJA@cuStreamWriteValue32_ptsz?$AA@ 00000001800785e0     cudart_static:cudart_cudart_global.obj
 0002:00008600       ??_C@_0BE@BABJGDJA@cuStreamWaitValue64?$AA@ 0000000180078600     cudart_static:cudart_cudart_global.obj
 0002:00008618       ??_C@_0BJ@MCJANPAA@cuStreamWaitValue64_ptsz?$AA@ 0000000180078618     cudart_static:cudart_cudart_global.obj
 0002:00008638       ??_C@_0BF@FHNFDBJM@cuStreamWriteValue64?$AA@ 0000000180078638     cudart_static:cudart_cudart_global.obj
 0002:00008650       ??_C@_0BK@EBOJEDMO@cuStreamWriteValue64_ptsz?$AA@ 0000000180078650     cudart_static:cudart_cudart_global.obj
 0002:00008670       ??_C@_0BD@JFILOGEE@cuStreamBatchMemOp?$AA@ 0000000180078670     cudart_static:cudart_cudart_global.obj
 0002:00008688       ??_C@_0BI@NMABEAAA@cuStreamBatchMemOp_ptsz?$AA@ 0000000180078688     cudart_static:cudart_cudart_global.obj
 0002:000086a0       ??_C@_0P@LNOKBPAO@cuStreamCreate?$AA@ 00000001800786a0     cudart_static:cudart_cudart_global.obj
 0002:000086b0       ??_C@_0BL@BDIPDBBD@cuStreamCreateWithPriority?$AA@ 00000001800786b0     cudart_static:cudart_cudart_global.obj
 0002:000086d0       ??_C@_0BE@KHONHPDC@cuStreamGetPriority?$AA@ 00000001800786d0     cudart_static:cudart_cudart_global.obj
 0002:000086e8       ??_C@_0BJ@MLPBBIKC@cuStreamGetPriority_ptsz?$AA@ 00000001800786e8     cudart_static:cudart_cudart_global.obj
 0002:00008708       ??_C@_0BB@HFGBOKNP@cuStreamGetFlags?$AA@ 0000000180078708     cudart_static:cudart_cudart_global.obj
 0002:00008720       ??_C@_0P@PPKBLMKF@cuStreamGetCtx?$AA@ 0000000180078720     cudart_static:cudart_cudart_global.obj
 0002:00008730       ??_C@_0BG@MKAKEPCD@cuStreamGetFlags_ptsz?$AA@ 0000000180078730     cudart_static:cudart_cudart_global.obj
 0002:00008748       ??_C@_0O@LHFNLLFA@cuStreamGetId?$AA@ 0000000180078748     cudart_static:cudart_cudart_global.obj
 0002:00008758       ??_C@_0BD@FOLAKJJP@cuStreamGetId_ptsz?$AA@ 0000000180078758     cudart_static:cudart_cudart_global.obj
 0002:00008770       ??_C@_0BD@PJMHAHAK@cuStreamDestroy_v2?$AA@ 0000000180078770     cudart_static:cudart_cudart_global.obj
 0002:00008788       ??_C@_0BC@LDNOLFPM@cuStreamWaitEvent?$AA@ 0000000180078788     cudart_static:cudart_cudart_global.obj
 0002:000087a0       ??_C@_0BH@IMKHMMOG@cuStreamWaitEvent_ptsz?$AA@ 00000001800787a0     cudart_static:cudart_cudart_global.obj
 0002:000087b8       ??_C@_0BE@NJOMOLME@cuStreamAddCallback?$AA@ 00000001800787b8     cudart_static:cudart_cudart_global.obj
 0002:000087d0       ??_C@_0BJ@IONJPFOD@cuStreamAddCallback_ptsz?$AA@ 00000001800787d0     cudart_static:cudart_cudart_global.obj
 0002:000087f0       ??_C@_0BE@OKHEPNII@cuStreamSynchronize?$AA@ 00000001800787f0     cudart_static:cudart_cudart_global.obj
 0002:00008808       ??_C@_0BJ@GBMDMEJA@cuStreamSynchronize_ptsz?$AA@ 0000000180078808     cudart_static:cudart_cudart_global.obj
 0002:00008828       ??_C@_0O@DNMFJLMD@cuStreamQuery?$AA@ 0000000180078828     cudart_static:cudart_cudart_global.obj
 0002:00008838       ??_C@_0BD@FKEIMCOI@cuStreamQuery_ptsz?$AA@ 0000000180078838     cudart_static:cudart_cudart_global.obj
 0002:00008850       ??_C@_0BH@KNBNMAPA@cuStreamAttachMemAsync?$AA@ 0000000180078850     cudart_static:cudart_cudart_global.obj
 0002:00008868       ??_C@_0BM@FCBOGGIP@cuStreamAttachMemAsync_ptsz?$AA@ 0000000180078868     cudart_static:cudart_cudart_global.obj
 0002:00008888       ??_C@_0BH@LPPIBNPJ@cuStreamCopyAttributes?$AA@ 0000000180078888     cudart_static:cudart_cudart_global.obj
 0002:000088a0       ??_C@_0BM@FMONAHCC@cuStreamCopyAttributes_ptsz?$AA@ 00000001800788a0     cudart_static:cudart_cudart_global.obj
 0002:000088c0       ??_C@_0BF@CEJOFOMK@cuStreamGetAttribute?$AA@ 00000001800788c0     cudart_static:cudart_cudart_global.obj
 0002:000088d8       ??_C@_0BK@ONCCNGOE@cuStreamGetAttribute_ptsz?$AA@ 00000001800788d8     cudart_static:cudart_cudart_global.obj
 0002:000088f8       ??_C@_0BF@FACAJCIG@cuStreamSetAttribute?$AA@ 00000001800788f8     cudart_static:cudart_cudart_global.obj
 0002:00008910       ??_C@_0BK@MICJFNPK@cuStreamSetAttribute_ptsz?$AA@ 0000000180078910     cudart_static:cudart_cudart_global.obj
 0002:00008930       ??_C@_0BG@NLBAKBOI@cuDeviceCanAccessPeer?$AA@ 0000000180078930     cudart_static:cudart_cudart_global.obj
 0002:00008948       ??_C@_0BG@FJIDOCO@cuCtxEnablePeerAccess?$AA@ 0000000180078948     cudart_static:cudart_cudart_global.obj
 0002:00008960       ??_C@_0BH@JPLBFDLI@cuCtxDisablePeerAccess?$AA@ 0000000180078960     cudart_static:cudart_cudart_global.obj
 0002:00008978       ??_C@_0BE@GJNGFIJE@cuIpcGetEventHandle?$AA@ 0000000180078978     cudart_static:cudart_cudart_global.obj
 0002:00008990       ??_C@_0BF@CIBEHPGP@cuIpcOpenEventHandle?$AA@ 0000000180078990     cudart_static:cudart_cudart_global.obj
 0002:000089a8       ??_C@_0BC@HHLBDMDB@cuIpcGetMemHandle?$AA@ 00000001800789a8     cudart_static:cudart_cudart_global.obj
 0002:000089c0       ??_C@_0BD@CGPDCFAL@cuIpcOpenMemHandle?$AA@ 00000001800789c0     cudart_static:cudart_cudart_global.obj
 0002:000089d8       ??_C@_0BG@OOHAMDOB@cuIpcOpenMemHandle_v2?$AA@ 00000001800789d8     cudart_static:cudart_cudart_global.obj
 0002:000089f0       ??_C@_0BE@GPBJBNBJ@cuIpcCloseMemHandle?$AA@ 00000001800789f0     cudart_static:cudart_cudart_global.obj
 0002:00008a08       ??_C@_0BB@BLBNNMNH@cuGLCtxCreate_v2?$AA@ 0000000180078a08     cudart_static:cudart_cudart_global.obj
 0002:00008a20       ??_C@_08ODNBLOHB@cuGLInit?$AA@ 0000000180078a20     cudart_static:cudart_cudart_global.obj
 0002:00008a30       ??_C@_0P@NLFLBNAP@cuGLGetDevices?$AA@ 0000000180078a30     cudart_static:cudart_cudart_global.obj
 0002:00008a40       ??_C@_0BJ@MIFBPOEN@cuGLRegisterBufferObject?$AA@ 0000000180078a40     cudart_static:cudart_cudart_global.obj
 0002:00008a60       ??_C@_0BH@EIJOKJAA@cuGLMapBufferObject_v2?$AA@ 0000000180078a60     cudart_static:cudart_cudart_global.obj
 0002:00008a78       ??_C@_0BM@FENFCCJH@cuGLMapBufferObject_v2_ptds?$AA@ 0000000180078a78     cudart_static:cudart_cudart_global.obj
 0002:00008a98       ??_C@_0BM@FHKOIMKM@cuGLMapBufferObjectAsync_v2?$AA@ 0000000180078a98     cudart_static:cudart_cudart_global.obj
 0002:00008ab8       ??_C@_0CB@FHHEOKLO@cuGLMapBufferObjectAsync_v2_ptsz@ 0000000180078ab8     cudart_static:cudart_cudart_global.obj
 0002:00008ae0       ??_C@_0BG@EHLOPHDP@cuGLUnmapBufferObject?$AA@ 0000000180078ae0     cudart_static:cudart_cudart_global.obj
 0002:00008af8       ??_C@_0BL@CIOAHJBP@cuGLUnmapBufferObjectAsync?$AA@ 0000000180078af8     cudart_static:cudart_cudart_global.obj
 0002:00008b18       ??_C@_0BL@POALDJGJ@cuGLUnregisterBufferObject?$AA@ 0000000180078b18     cudart_static:cudart_cudart_global.obj
 0002:00008b38       ??_C@_0BM@NGOHAHGG@cuGLSetBufferObjectMapFlags?$AA@ 0000000180078b38     cudart_static:cudart_cudart_global.obj
 0002:00008b58       ??_C@_0BK@GKPCLOOL@cuGraphicsGLRegisterImage?$AA@ 0000000180078b58     cudart_static:cudart_cudart_global.obj
 0002:00008b78       ??_C@_0BL@MNKFLNED@cuGraphicsGLRegisterBuffer?$AA@ 0000000180078b78     cudart_static:cudart_cudart_global.obj
 0002:00008b98       ??_C@_0P@DBKBCFHC@cuWGLGetDevice?$AA@ 0000000180078b98     cudart_static:cudart_cudart_global.obj
 0002:00008ba8       ??_C@_0BN@IPCKCOAC@cuGraphicsUnregisterResource?$AA@ 0000000180078ba8     cudart_static:cudart_cudart_global.obj
 0002:00008bc8       ??_C@_0BH@PNJEFODJ@cuGraphicsMapResources?$AA@ 0000000180078bc8     cudart_static:cudart_cudart_global.obj
 0002:00008be0       ??_C@_0BM@LPNLAHOJ@cuGraphicsMapResources_ptsz?$AA@ 0000000180078be0     cudart_static:cudart_cudart_global.obj
 0002:00008c00       ??_C@_0BJ@PIJKGJLG@cuGraphicsUnmapResources?$AA@ 0000000180078c00     cudart_static:cudart_cudart_global.obj
 0002:00008c20       ??_C@_0BO@JGHIDJPN@cuGraphicsUnmapResources_ptsz?$AA@ 0000000180078c20     cudart_static:cudart_cudart_global.obj
 0002:00008c40       ??_C@_0CB@KLBGDCND@cuGraphicsResourceSetMapFlags_v2@ 0000000180078c40     cudart_static:cudart_cudart_global.obj
 0002:00008c68       ??_C@_0CE@MHCLLDEH@cuGraphicsSubResourceGetMappedAr@ 0000000180078c68     cudart_static:cudart_cudart_global.obj
 0002:00008c90       ??_C@_0CK@GOOLKJPE@cuGraphicsResourceGetMappedMipma@ 0000000180078c90     cudart_static:cudart_cudart_global.obj
 0002:00008cc0       ??_C@_0CG@DPACCDJI@cuGraphicsResourceGetMappedPoint@ 0000000180078cc0     cudart_static:cudart_cudart_global.obj
 0002:00008ce8       ??_C@_0BF@HKHLPHDC@cuProfilerInitialize?$AA@ 0000000180078ce8     cudart_static:cudart_cudart_global.obj
 0002:00008d00       ??_C@_0BA@EELPNKID@cuProfilerStart?$AA@ 0000000180078d00     cudart_static:cudart_cudart_global.obj
 0002:00008d10       ??_C@_0P@NEDHAKMB@cuProfilerStop?$AA@ 0000000180078d10     cudart_static:cudart_cudart_global.obj
 0002:00008d20       ??_C@_0BB@PHGOMJJK@cuD3D11GetDevice?$AA@ 0000000180078d20     cudart_static:cudart_cudart_global.obj
 0002:00008d38       ??_C@_0BC@BEDPDOKG@cuD3D11GetDevices?$AA@ 0000000180078d38     cudart_static:cudart_cudart_global.obj
 0002:00008d50       ??_C@_0BJ@ENLAMEED@cuD3D11CtxCreateOnDevice?$AA@ 0000000180078d50     cudart_static:cudart_cudart_global.obj
 0002:00008d70       ??_C@_0CA@CLJLEPCC@cuGraphicsD3D11RegisterResource?$AA@ 0000000180078d70     cudart_static:cudart_cudart_global.obj
 0002:00008d90       ??_C@_0BJ@DILEHEBE@cuD3D11GetDirect3DDevice?$AA@ 0000000180078d90     cudart_static:cudart_cudart_global.obj
 0002:00008db0       ??_C@_0BB@DGOABGFK@cuD3D10GetDevice?$AA@ 0000000180078db0     cudart_static:cudart_cudart_global.obj
 0002:00008dc8       ??_C@_0BC@IPJKHCMJ@cuD3D10GetDevices?$AA@ 0000000180078dc8     cudart_static:cudart_cudart_global.obj
 0002:00008de0       ??_C@_0BJ@JKFCEEBL@cuD3D10CtxCreateOnDevice?$AA@ 0000000180078de0     cudart_static:cudart_cudart_global.obj
 0002:00008e00       ??_C@_0BJ@OPFGPEEM@cuD3D10GetDirect3DDevice?$AA@ 0000000180078e00     cudart_static:cudart_cudart_global.obj
 0002:00008e20       ??_C@_0CA@MEMJPJMD@cuGraphicsD3D10RegisterResource?$AA@ 0000000180078e20     cudart_static:cudart_cudart_global.obj
 0002:00008e40       ??_C@_0BI@NAJLJNO@cuD3D10RegisterResource?$AA@ 0000000180078e40     cudart_static:cudart_cudart_global.obj
 0002:00008e58       ??_C@_0BK@NGDPFHJG@cuD3D10UnregisterResource?$AA@ 0000000180078e58     cudart_static:cudart_cudart_global.obj
 0002:00008e78       ??_C@_0BE@DBGLMJNC@cuD3D10MapResources?$AA@ 0000000180078e78     cudart_static:cudart_cudart_global.obj
 0002:00008e90       ??_C@_0BG@CLHLIJIJ@cuD3D10UnmapResources?$AA@ 0000000180078e90     cudart_static:cudart_cudart_global.obj
 0002:00008ea8       ??_C@_0BL@CDFPJNJP@cuD3D10ResourceSetMapFlags?$AA@ 0000000180078ea8     cudart_static:cudart_cudart_global.obj
 0002:00008ec8       ??_C@_0CH@NBLHKLN@cuD3D10ResourceGetSurfaceDimensi@ 0000000180078ec8     cudart_static:cudart_cudart_global.obj
 0002:00008ef0       ??_C@_0BO@INHNPEAA@cuD3D10ResourceGetMappedArray?$AA@ 0000000180078ef0     cudart_static:cudart_cudart_global.obj
 0002:00008f10       ??_C@_0CD@FADFAEH@cuD3D10ResourceGetMappedPointer_@ 0000000180078f10     cudart_static:cudart_cudart_global.obj
 0002:00008f38       ??_C@_0CA@MABBNBMG@cuD3D10ResourceGetMappedSize_v2?$AA@ 0000000180078f38     cudart_static:cudart_cudart_global.obj
 0002:00008f58       ??_C@_0CB@JJPECHJO@cuD3D10ResourceGetMappedPitch_v2@ 0000000180078f58     cudart_static:cudart_cudart_global.obj
 0002:00008f80       ??_C@_0BA@HMKACGED@cuD3D9GetDevice?$AA@ 0000000180078f80     cudart_static:cudart_cudart_global.obj
 0002:00008f90       ??_C@_0BB@OLLLJKDJ@cuD3D9GetDevices?$AA@ 0000000180078f90     cudart_static:cudart_cudart_global.obj
 0002:00008fa8       ??_C@_0BI@EMNOIBMN@cuD3D9CtxCreateOnDevice?$AA@ 0000000180078fa8     cudart_static:cudart_cudart_global.obj
 0002:00008fc0       ??_C@_0BI@DJNKDBJK@cuD3D9GetDirect3DDevice?$AA@ 0000000180078fc0     cudart_static:cudart_cudart_global.obj
 0002:00008fd8       ??_C@_0BP@JLAPBMAN@cuGraphicsD3D9RegisterResource?$AA@ 0000000180078fd8     cudart_static:cudart_cudart_global.obj
 0002:00008ff8       ??_C@_0BH@FHGPIHHO@cuD3D9RegisterResource?$AA@ 0000000180078ff8     cudart_static:cudart_cudart_global.obj
 0002:00009010       ??_C@_0BJ@LJFJKMLC@cuD3D9UnregisterResource?$AA@ 0000000180079010     cudart_static:cudart_cudart_global.obj
 0002:00009030       ??_C@_0BD@ILAGCGAE@cuD3D9MapResources?$AA@ 0000000180079030     cudart_static:cudart_cudart_global.obj
 0002:00009048       ??_C@_0BF@MMKMKOJE@cuD3D9UnmapResources?$AA@ 0000000180079048     cudart_static:cudart_cudart_global.obj
 0002:00009060       ??_C@_0BK@BPDDBPLF@cuD3D9ResourceSetMapFlags?$AA@ 0000000180079060     cudart_static:cudart_cudart_global.obj
 0002:00009080       ??_C@_0CG@NDEOBCEC@cuD3D9ResourceGetSurfaceDimensio@ 0000000180079080     cudart_static:cudart_cudart_global.obj
 0002:000090a8       ??_C@_0BN@PFBGOALA@cuD3D9ResourceGetMappedArray?$AA@ 00000001800790a8     cudart_static:cudart_cudart_global.obj
 0002:000090c8       ??_C@_0CC@GJNLEPKE@cuD3D9ResourceGetMappedPointer_v@ 00000001800790c8     cudart_static:cudart_cudart_global.obj
 0002:000090f0       ??_C@_0BP@DOAONDGI@cuD3D9ResourceGetMappedSize_v2?$AA@ 00000001800790f0     cudart_static:cudart_cudart_global.obj
 0002:00009110       ??_C@_0CA@KIGELGHD@cuD3D9ResourceGetMappedPitch_v2?$AA@ 0000000180079110     cudart_static:cudart_cudart_global.obj
 0002:00009130       ??_C@_0M@ENJJCEOE@cuD3D9Begin?$AA@ 0000000180079130     cudart_static:cudart_cudart_global.obj
 0002:00009140       ??_C@_0BL@KKLPPAFL@cuD3D9RegisterVertexBuffer?$AA@ 0000000180079140     cudart_static:cudart_cudart_global.obj
 0002:00009160       ??_C@_0BN@GMJCFGOO@cuD3D9UnregisterVertexBuffer?$AA@ 0000000180079160     cudart_static:cudart_cudart_global.obj
 0002:00009180       ??_C@_0BJ@MMHHCMNB@cuD3D9MapVertexBuffer_v2?$AA@ 0000000180079180     cudart_static:cudart_cudart_global.obj
 0002:000091a0       ??_C@_0BI@HJMDGNJF@cuD3D9UnmapVertexBuffer?$AA@ 00000001800791a0     cudart_static:cudart_cudart_global.obj
 0002:000091b8       ??_C@_09HPCHKPLD@cuD3D9End?$AA@ 00000001800791b8     cudart_static:cudart_cudart_global.obj
 0002:000091c8       ??_C@_0BB@EFMLDKK@cuGetExportTable?$AA@ 00000001800791c8     cudart_static:cudart_cudart_global.obj
 0002:000091e0       ??_C@_0DF@BKMNDMBA@cuOccupancyMaxActiveBlocksPerMul@ 00000001800791e0     cudart_static:cudart_cudart_global.obj
 0002:00009218       ??_C@_0CI@FDKEAAFF@cuOccupancyAvailableDynamicSMemP@ 0000000180079218     cudart_static:cudart_cudart_global.obj
 0002:00009240       ??_C@_0CD@PMOFLBMI@cuOccupancyMaxPotentialClusterSi@ 0000000180079240     cudart_static:cudart_cudart_global.obj
 0002:00009268       ??_C@_0BN@HFFOMBGC@cuOccupancyMaxActiveClusters?$AA@ 0000000180079268     cudart_static:cudart_cudart_global.obj
 0002:00009288       ??_C@_0M@GNFFFDME@cuMemAdvise?$AA@ 0000000180079288     cudart_static:cudart_cudart_global.obj
 0002:00009298       ??_C@_0BD@JLDILBLK@cuMemPrefetchAsync?$AA@ 0000000180079298     cudart_static:cudart_cudart_global.obj
 0002:000092b0       ??_C@_0BI@CEEEPEOA@cuMemPrefetchAsync_ptsz?$AA@ 00000001800792b0     cudart_static:cudart_cudart_global.obj
 0002:000092c8       ??_C@_0P@DCFDMKHK@cuMemAdvise_v2?$AA@ 00000001800792c8     cudart_static:cudart_cudart_global.obj
 0002:000092d8       ??_C@_0BG@DDHHADFN@cuMemPrefetchAsync_v2?$AA@ 00000001800792d8     cudart_static:cudart_cudart_global.obj
 0002:000092f0       ??_C@_0BL@BENDJFCC@cuMemPrefetchAsync_v2_ptsz?$AA@ 00000001800792f0     cudart_static:cudart_cudart_global.obj
 0002:00009310       ??_C@_0BH@JPKMGBOF@cuMemRangeGetAttribute?$AA@ 0000000180079310     cudart_static:cudart_cudart_global.obj
 0002:00009328       ??_C@_0BI@NEONJAKD@cuMemRangeGetAttributes?$AA@ 0000000180079328     cudart_static:cudart_cudart_global.obj
 0002:00009340       ??_C@_0BB@COEDOFII@cuGetErrorString?$AA@ 0000000180079340     cudart_static:cudart_cudart_global.obj
 0002:00009358       ??_C@_0P@GECMDDHD@cuGetErrorName?$AA@ 0000000180079358     cudart_static:cudart_cudart_global.obj
 0002:00009368       ??_C@_0O@PMCNLFJO@cuGraphCreate?$AA@ 0000000180079368     cudart_static:cudart_cudart_global.obj
 0002:00009378       ??_C@_0BI@OIAINJOH@cuGraphAddKernelNode_v2?$AA@ 0000000180079378     cudart_static:cudart_cudart_global.obj
 0002:00009390       ??_C@_0BO@DPCOFCKI@cuGraphKernelNodeGetParams_v2?$AA@ 0000000180079390     cudart_static:cudart_cudart_global.obj
 0002:000093b0       ??_C@_0BO@ELJAJOOE@cuGraphKernelNodeSetParams_v2?$AA@ 00000001800793b0     cudart_static:cudart_cudart_global.obj
 0002:000093d0       ??_C@_0BF@NMPJLPAP@cuGraphAddMemcpyNode?$AA@ 00000001800793d0     cudart_static:cudart_cudart_global.obj
 0002:000093e8       ??_C@_0BL@FMOHFDAH@cuGraphMemcpyNodeGetParams?$AA@ 00000001800793e8     cudart_static:cudart_cudart_global.obj
 0002:00009408       ??_C@_0BL@HCKCHCJF@cuGraphMemcpyNodeSetParams?$AA@ 0000000180079408     cudart_static:cudart_cudart_global.obj
 0002:00009428       ??_C@_0BF@CJDKCOJD@cuGraphAddMemsetNode?$AA@ 0000000180079428     cudart_static:cudart_cudart_global.obj
 0002:00009440       ??_C@_0BL@CLMGFLPO@cuGraphMemsetNodeGetParams?$AA@ 0000000180079440     cudart_static:cudart_cudart_global.obj
 0002:00009460       ??_C@_0BL@FIDHKGM@cuGraphMemsetNodeSetParams?$AA@ 0000000180079460     cudart_static:cudart_cudart_global.obj
 0002:00009480       ??_C@_0BD@MBFAKFDH@cuGraphAddHostNode?$AA@ 0000000180079480     cudart_static:cudart_cudart_global.obj
 0002:00009498       ??_C@_0BJ@KNKGHHPK@cuGraphHostNodeGetParams?$AA@ 0000000180079498     cudart_static:cudart_cudart_global.obj
 0002:000094b8       ??_C@_0BJ@IDODFGGI@cuGraphHostNodeSetParams?$AA@ 00000001800794b8     cudart_static:cudart_cudart_global.obj
 0002:000094d8       ??_C@_0BJ@HNJJICOP@cuGraphAddChildGraphNode?$AA@ 00000001800794d8     cudart_static:cudart_cudart_global.obj
 0002:000094f8       ??_C@_0BO@KAODINOF@cuGraphChildGraphNodeGetGraph?$AA@ 00000001800794f8     cudart_static:cudart_cudart_global.obj
 0002:00009518       ??_C@_0BE@MGGMBCAK@cuGraphAddEmptyNode?$AA@ 0000000180079518     cudart_static:cudart_cudart_global.obj
 0002:00009530       ??_C@_0BK@EKDGCJIG@cuGraphAddEventRecordNode?$AA@ 0000000180079530     cudart_static:cudart_cudart_global.obj
 0002:00009550       ??_C@_0BP@PMPBGDLB@cuGraphEventRecordNodeGetEvent?$AA@ 0000000180079550     cudart_static:cudart_cudart_global.obj
 0002:00009570       ??_C@_0BP@NNNHAMM@cuGraphEventRecordNodeSetEvent?$AA@ 0000000180079570     cudart_static:cudart_cudart_global.obj
 0002:00009590       ??_C@_0BI@NKOEOLLL@cuGraphAddEventWaitNode?$AA@ 0000000180079590     cudart_static:cudart_cudart_global.obj
 0002:000095a8       ??_C@_0BN@LMOOBIEJ@cuGraphEventWaitNodeGetEvent?$AA@ 00000001800795a8     cudart_static:cudart_cudart_global.obj
 0002:000095c8       ??_C@_0BN@ENMCALDE@cuGraphEventWaitNodeSetEvent?$AA@ 00000001800795c8     cudart_static:cudart_cudart_global.obj
 0002:000095e8       ??_C@_0CH@KLKOCNMF@cuGraphAddExternalSemaphoresSign@ 00000001800795e8     cudart_static:cudart_cudart_global.obj
 0002:00009610       ??_C@_0CN@JHEOEPAA@cuGraphExternalSemaphoresSignalN@ 0000000180079610     cudart_static:cudart_cudart_global.obj
 0002:00009640       ??_C@_0CN@LJALGOJC@cuGraphExternalSemaphoresSignalN@ 0000000180079640     cudart_static:cudart_cudart_global.obj
 0002:00009670       ??_C@_0CF@NCCEBNPG@cuGraphAddExternalSemaphoresWait@ 0000000180079670     cudart_static:cudart_cudart_global.obj
 0002:00009698       ??_C@_0CL@KGKOOFKP@cuGraphExternalSemaphoresWaitNod@ 0000000180079698     cudart_static:cudart_cudart_global.obj
 0002:000096c8       ??_C@_0CL@IIOLMEDN@cuGraphExternalSemaphoresWaitNod@ 00000001800796c8     cudart_static:cudart_cudart_global.obj
 0002:000096f8       ??_C@_0DB@JNAFBPKC@cuGraphExecExternalSemaphoresSig@ 00000001800796f8     cudart_static:cudart_cudart_global.obj
 0002:00009730       ??_C@_0CP@IKELDCMJ@cuGraphExecExternalSemaphoresWai@ 0000000180079730     cudart_static:cudart_cudart_global.obj
 0002:00009760       ??_C@_0BH@EENBOKGA@cuGraphAddMemAllocNode?$AA@ 0000000180079760     cudart_static:cudart_cudart_global.obj
 0002:00009778       ??_C@_0BN@FPBBCCFA@cuGraphMemAllocNodeGetParams?$AA@ 0000000180079778     cudart_static:cudart_cudart_global.obj
 0002:00009798       ??_C@_0BG@OFNNFDJA@cuGraphAddMemFreeNode?$AA@ 0000000180079798     cudart_static:cudart_cudart_global.obj
 0002:000097b0       ??_C@_0BM@GPDONDKH@cuGraphMemFreeNodeGetParams?$AA@ 00000001800797b0     cudart_static:cudart_cudart_global.obj
 0002:000097d0       ??_C@_0BF@FFPJAMPP@cuDeviceGraphMemTrim?$AA@ 00000001800797d0     cudart_static:cudart_cudart_global.obj
 0002:000097e8       ??_C@_0BN@HALABBNJ@cuDeviceGetGraphMemAttribute?$AA@ 00000001800797e8     cudart_static:cudart_cudart_global.obj
 0002:00009808       ??_C@_0BN@CJKNAHIO@cuDeviceSetGraphMemAttribute?$AA@ 0000000180079808     cudart_static:cudart_cudart_global.obj
 0002:00009828       ??_C@_0N@EBANNKCG@cuGraphClone?$AA@ 0000000180079828     cudart_static:cudart_cudart_global.obj
 0002:00009838       ??_C@_0BH@IBJBKIPB@cuGraphNodeFindInClone?$AA@ 0000000180079838     cudart_static:cudart_cudart_global.obj
 0002:00009850       ??_C@_0BD@IJMLIECN@cuGraphNodeGetType?$AA@ 0000000180079850     cudart_static:cudart_cudart_global.obj
 0002:00009868       ??_C@_0BA@KNIKLHBF@cuGraphGetNodes?$AA@ 0000000180079868     cudart_static:cudart_cudart_global.obj
 0002:00009878       ??_C@_0BE@DCEALNKD@cuGraphGetRootNodes?$AA@ 0000000180079878     cudart_static:cudart_cudart_global.obj
 0002:00009890       ??_C@_0BA@KCCINJCJ@cuGraphGetEdges?$AA@ 0000000180079890     cudart_static:cudart_cudart_global.obj
 0002:000098a0       ??_C@_0BL@JNCEOMKA@cuGraphNodeGetDependencies?$AA@ 00000001800798a0     cudart_static:cudart_cudart_global.obj
 0002:000098c0       ??_C@_0BN@HCBLEMCJ@cuGraphNodeGetDependentNodes?$AA@ 00000001800798c0     cudart_static:cudart_cudart_global.obj
 0002:000098e0       ??_C@_0BH@EANNOME@cuGraphAddDependencies?$AA@ 00000001800798e0     cudart_static:cudart_cudart_global.obj
 0002:000098f8       ??_C@_0BK@PJIBMMLA@cuGraphRemoveDependencies?$AA@ 00000001800798f8     cudart_static:cudart_cudart_global.obj
 0002:00009918       ??_C@_0BD@GOFEGFCO@cuGraphDestroyNode?$AA@ 0000000180079918     cudart_static:cudart_cudart_global.obj
 0002:00009930       ??_C@_0BD@LEBPOKHB@cuGraphInstantiate?$AA@ 0000000180079930     cudart_static:cudart_cudart_global.obj
 0002:00009948       ??_C@_0BG@FCMIELCH@cuGraphInstantiate_v2?$AA@ 0000000180079948     cudart_static:cudart_cudart_global.obj
 0002:00009960       ??_C@_0BM@JBJNHAJG@cuGraphInstantiateWithFlags?$AA@ 0000000180079960     cudart_static:cudart_cudart_global.obj
 0002:00009980       ??_C@_0O@FLNCPIPJ@cuGraphUpload?$AA@ 0000000180079980     cudart_static:cudart_cudart_global.obj
 0002:00009990       ??_C@_0BD@LCIEEDPG@cuGraphUpload_ptsz?$AA@ 0000000180079990     cudart_static:cudart_cudart_global.obj
 0002:000099a8       ??_C@_0O@BLGDPJCO@cuGraphLaunch?$AA@ 00000001800799a8     cudart_static:cudart_cudart_global.obj
 0002:000099b8       ??_C@_0BD@FAIFMPI@cuGraphLaunch_ptsz?$AA@ 00000001800799b8     cudart_static:cudart_cudart_global.obj
 0002:000099d0       ??_C@_0BD@JHALMFJB@cuGraphExecDestroy?$AA@ 00000001800799d0     cudart_static:cudart_cudart_global.obj
 0002:000099e8       ??_C@_0P@BEHJNJGO@cuGraphDestroy?$AA@ 00000001800799e8     cudart_static:cudart_cudart_global.obj
 0002:000099f8       ??_C@_0BF@HNALFFCM@cuStreamBeginCapture?$AA@ 00000001800799f8     cudart_static:cudart_cudart_global.obj
 0002:00009a10       ??_C@_0BK@NBGPPJM@cuStreamBeginCapture_ptsz?$AA@ 0000000180079a10     cudart_static:cudart_cudart_global.obj
 0002:00009a30       ??_C@_0BI@EPCLJAAH@cuStreamBeginCapture_v2?$AA@ 0000000180079a30     cudart_static:cudart_cudart_global.obj
 0002:00009a48       ??_C@_0BN@CPKJONCM@cuStreamBeginCapture_v2_ptsz?$AA@ 0000000180079a48     cudart_static:cudart_cudart_global.obj
 0002:00009a68       ??_C@_0BD@OGFKIIFI@cuStreamEndCapture?$AA@ 0000000180079a68     cudart_static:cudart_cudart_global.obj
 0002:00009a80       ??_C@_0BI@CKLBMPIB@cuStreamEndCapture_ptsz?$AA@ 0000000180079a80     cudart_static:cudart_cudart_global.obj
 0002:00009a98       ??_C@_0BE@JIGLCNID@cuStreamIsCapturing?$AA@ 0000000180079a98     cudart_static:cudart_cudart_global.obj
 0002:00009ab0       ??_C@_0BJ@DKDELDCB@cuStreamIsCapturing_ptsz?$AA@ 0000000180079ab0     cudart_static:cudart_cudart_global.obj
 0002:00009ad0       ??_C@_0BH@JLDOMJLC@cuStreamGetCaptureInfo?$AA@ 0000000180079ad0     cudart_static:cudart_cudart_global.obj
 0002:00009ae8       ??_C@_0BM@LODCELOA@cuStreamGetCaptureInfo_ptsz?$AA@ 0000000180079ae8     cudart_static:cudart_cudart_global.obj
 0002:00009b08       ??_C@_0BK@DDOBAECO@cuStreamGetCaptureInfo_v2?$AA@ 0000000180079b08     cudart_static:cudart_cudart_global.obj
 0002:00009b28       ??_C@_0BP@MOOIPDMG@cuStreamGetCaptureInfo_v2_ptsz?$AA@ 0000000180079b28     cudart_static:cudart_cudart_global.obj
 0002:00009b48       ??_C@_0CC@JBBPPOIJ@cuStreamUpdateCaptureDependencie@ 0000000180079b48     cudart_static:cudart_cudart_global.obj
 0002:00009b70       ??_C@_0CH@MGFPMGDC@cuStreamUpdateCaptureDependencie@ 0000000180079b70     cudart_static:cudart_cudart_global.obj
 0002:00009b98       ??_C@_0CC@NGHFKOPA@cuGraphExecKernelNodeSetParams_v@ 0000000180079b98     cudart_static:cudart_cudart_global.obj
 0002:00009bc0       ??_C@_0BP@ENDDDMND@cuGraphExecMemcpyNodeSetParams?$AA@ 0000000180079bc0     cudart_static:cudart_cudart_global.obj
 0002:00009be0       ??_C@_0BP@DKBCDECK@cuGraphExecMemsetNodeSetParams?$AA@ 0000000180079be0     cudart_static:cudart_cudart_global.obj
 0002:00009c00       ??_C@_0BN@HPNLFGJL@cuGraphExecHostNodeSetParams?$AA@ 0000000180079c00     cudart_static:cudart_cudart_global.obj
 0002:00009c20       ??_C@_0CD@OMFACKG@cuGraphExecChildGraphNodeSetPara@ 0000000180079c20     cudart_static:cudart_cudart_global.obj
 0002:00009c48       ??_C@_0CD@BHJKEBIB@cuGraphExecEventRecordNodeSetEve@ 0000000180079c48     cudart_static:cudart_cudart_global.obj
 0002:00009c70       ??_C@_0CB@HKIFLALB@cuGraphExecEventWaitNodeSetEvent@ 0000000180079c70     cudart_static:cudart_cudart_global.obj
 0002:00009c98       ??_C@_0CC@OMFFMJKO@cuThreadExchangeStreamCaptureMod@ 0000000180079c98     cudart_static:cudart_cudart_global.obj
 0002:00009cc0       ??_C@_0BF@EKELDHBB@cuGraphExecUpdate_v2?$AA@ 0000000180079cc0     cudart_static:cudart_cudart_global.obj
 0002:00009cd8       ??_C@_0CA@POAEFPAF@cuGraphKernelNodeCopyAttributes?$AA@ 0000000180079cd8     cudart_static:cudart_cudart_global.obj
 0002:00009cf8       ??_C@_0BO@HOKMJMBH@cuGraphKernelNodeGetAttribute?$AA@ 0000000180079cf8     cudart_static:cudart_cudart_global.obj
 0002:00009d18       ??_C@_0BO@KBCFAFL@cuGraphKernelNodeSetAttribute?$AA@ 0000000180079d18     cudart_static:cudart_cudart_global.obj
 0002:00009d38       ??_C@_0BF@EOEICKKE@cuGraphDebugDotPrint?$AA@ 0000000180079d38     cudart_static:cudart_cudart_global.obj
 0002:00009d50       ??_C@_0BD@MOPGCFFF@cuUserObjectCreate?$AA@ 0000000180079d50     cudart_static:cudart_cudart_global.obj
 0002:00009d68       ??_C@_0BD@LLAGNHNG@cuUserObjectRetain?$AA@ 0000000180079d68     cudart_static:cudart_cudart_global.obj
 0002:00009d80       ??_C@_0BE@LMMONACO@cuUserObjectRelease?$AA@ 0000000180079d80     cudart_static:cudart_cudart_global.obj
 0002:00009d98       ??_C@_0BI@CNOELPBG@cuGraphRetainUserObject?$AA@ 0000000180079d98     cudart_static:cudart_cudart_global.obj
 0002:00009db0       ??_C@_0BJ@BKCCLNNO@cuGraphReleaseUserObject?$AA@ 0000000180079db0     cudart_static:cudart_cudart_global.obj
 0002:00009dd0       ??_C@_0BG@CLFMFFAM@cuGraphNodeSetEnabled?$AA@ 0000000180079dd0     cudart_static:cudart_cudart_global.obj
 0002:00009de8       ??_C@_0BG@DFHDOCEF@cuGraphNodeGetEnabled?$AA@ 0000000180079de8     cudart_static:cudart_cudart_global.obj
 0002:00009e00       ??_C@_0BN@LBOMAHOK@cuGraphInstantiateWithParams?$AA@ 0000000180079e00     cudart_static:cudart_cudart_global.obj
 0002:00009e20       ??_C@_0CC@MBKFHLKJ@cuGraphInstantiateWithParams_pts@ 0000000180079e20     cudart_static:cudart_cudart_global.obj
 0002:00009e48       ??_C@_0BE@BPKCPGGF@cuGraphExecGetFlags?$AA@ 0000000180079e48     cudart_static:cudart_cudart_global.obj
 0002:00009e60       ??_C@_0P@EHPNHDEE@cuGraphAddNode?$AA@ 0000000180079e60     cudart_static:cudart_cudart_global.obj
 0002:00009e70       ??_C@_0BF@EOMPKHBL@cuGraphNodeSetParams?$AA@ 0000000180079e70     cudart_static:cudart_cudart_global.obj
 0002:00009e88       ??_C@_0BJ@CNFOLLJK@cuGraphExecNodeSetParams?$AA@ 0000000180079e88     cudart_static:cudart_cudart_global.obj
 0002:00009ea8       ??_C@_0BB@PMLCNFHH@cuDeviceTotalMem?$AA@ 0000000180079ea8     cudart_static:cudart_cudart_global.obj
 0002:00009ec0       ??_C@_0BL@BKBBCOFN@cuDevicePrimaryCtxSetFlags?$AA@ 0000000180079ec0     cudart_static:cudart_cudart_global.obj
 0002:00009ee0       ??_C@_0M@FJNHCJJN@cuCtxCreate?$AA@ 0000000180079ee0     cudart_static:cudart_cudart_global.obj
 0002:00009ef0       ??_C@_0BA@CCGMODMI@cuCtxPopCurrent?$AA@ 0000000180079ef0     cudart_static:cudart_cudart_global.obj
 0002:00009f00       ??_C@_0BB@OLHBCPOA@cuCtxPushCurrent?$AA@ 0000000180079f00     cudart_static:cudart_cudart_global.obj
 0002:00009f18       ??_C@_0BC@LMECHINC@cuModuleGetGlobal?$AA@ 0000000180079f18     cudart_static:cudart_cudart_global.obj
 0002:00009f30       ??_C@_0N@DCCFJJLF@cuMemGetInfo?$AA@ 0000000180079f30     cudart_static:cudart_cudart_global.obj
 0002:00009f40       ??_C@_0L@PEPECIBL@cuMemAlloc?$AA@ 0000000180079f40     cudart_static:cudart_cudart_global.obj
 0002:00009f50       ??_C@_0BA@CLOPGACB@cuMemAllocPitch?$AA@ 0000000180079f50     cudart_static:cudart_cudart_global.obj
 0002:00009f60       ??_C@_09DPOFFEN@cuMemFree?$AA@ 0000000180079f60     cudart_static:cudart_cudart_global.obj
 0002:00009f70       ??_C@_0BF@NAJKLBIC@cuMemGetAddressRange?$AA@ 0000000180079f70     cudart_static:cudart_cudart_global.obj
 0002:00009f88       ??_C@_0BK@OMNGJNFM@cuMemHostGetDevicePointer?$AA@ 0000000180079f88     cudart_static:cudart_cudart_global.obj
 0002:00009fa8       ??_C@_0BC@OBEMEDNE@cuMemHostRegister?$AA@ 0000000180079fa8     cudart_static:cudart_cudart_global.obj
 0002:00009fc0       ??_C@_0N@LNAEANAD@cuMemcpyHtoD?$AA@ 0000000180079fc0     cudart_static:cudart_cudart_global.obj
 0002:00009fd0       ??_C@_0BC@IDHAKIKK@cuMemcpyHtoDAsync?$AA@ 0000000180079fd0     cudart_static:cudart_cudart_global.obj
 0002:00009fe8       ??_C@_0N@NEEBKPAO@cuMemcpyDtoH?$AA@ 0000000180079fe8     cudart_static:cudart_cudart_global.obj
 0002:00009ff8       ??_C@_0BC@FOOMCCFA@cuMemcpyDtoHAsync?$AA@ 0000000180079ff8     cudart_static:cudart_cudart_global.obj
 0002:0000a010       ??_C@_0N@HIPEOAAC@cuMemcpyDtoD?$AA@ 000000018007a010     cudart_static:cudart_cudart_global.obj
 0002:0000a020       ??_C@_0BC@JJEMEICE@cuMemcpyDtoDAsync?$AA@ 000000018007a020     cudart_static:cudart_cudart_global.obj
 0002:0000a038       ??_C@_0BE@NJDNFFKC@cuMemcpy2DUnaligned?$AA@ 000000018007a038     cudart_static:cudart_cudart_global.obj
 0002:0000a050       ??_C@_0BA@BBHPBNDC@cuMemcpy2DAsync?$AA@ 000000018007a050     cudart_static:cudart_cudart_global.obj
 0002:0000a060       ??_C@_0L@MDCEDELJ@cuMemcpy3D?$AA@ 000000018007a060     cudart_static:cudart_cudart_global.obj
 0002:0000a070       ??_C@_0BA@NNNFBNKM@cuMemcpy3DAsync?$AA@ 000000018007a070     cudart_static:cudart_cudart_global.obj
 0002:0000a080       ??_C@_0L@EIKMLOCC@cuMemsetD8?$AA@ 000000018007a080     cudart_static:cudart_cudart_global.obj
 0002:0000a090       ??_C@_0N@IENKOJIE@cuMemsetD2D8?$AA@ 000000018007a090     cudart_static:cudart_cudart_global.obj
 0002:0000a0a0       ??_C@_0O@NECDENBC@cuArrayCreate?$AA@ 000000018007a0a0     cudart_static:cudart_cudart_global.obj
 0002:0000a0b0       ??_C@_0BF@ICKNOLFI@cuArrayGetDescriptor?$AA@ 000000018007a0b0     cudart_static:cudart_cudart_global.obj
 0002:0000a0c8       ??_C@_0BA@HDCHAKGK@cuArray3DCreate?$AA@ 000000018007a0c8     cudart_static:cudart_cudart_global.obj
 0002:0000a0d8       ??_C@_0BH@GKELMILM@cuArray3DGetDescriptor?$AA@ 000000018007a0d8     cudart_static:cudart_cudart_global.obj
 0002:0000a0f0       ??_C@_0P@LEGJCEOG@cuEventDestroy?$AA@ 000000018007a0f0     cudart_static:cudart_cudart_global.obj
 0002:0000a100       ??_C@_0BA@OEDHINIA@cuStreamDestroy?$AA@ 000000018007a100     cudart_static:cudart_cudart_global.obj
 0002:0000a110       ??_C@_0O@OMMOGGEO@cuGLCtxCreate?$AA@ 000000018007a110     cudart_static:cudart_cudart_global.obj
 0002:0000a120       ??_C@_0BE@EHEGLJLM@cuGLMapBufferObject?$AA@ 000000018007a120     cudart_static:cudart_cudart_global.obj
 0002:0000a138       ??_C@_0BJ@BOLKLODL@cuGLMapBufferObjectAsync?$AA@ 000000018007a138     cudart_static:cudart_cudart_global.obj
 0002:0000a158       ??_C@_0BO@NEGENPLL@cuGraphicsResourceSetMapFlags?$AA@ 000000018007a158     cudart_static:cudart_cudart_global.obj
 0002:0000a178       ??_C@_0CD@DAGJLMFB@cuGraphicsResourceGetMappedPoint@ 000000018007a178     cudart_static:cudart_cudart_global.obj
 0002:0000a1a0       ??_C@_0CE@DFLJKLKH@cuD3D10ResourceGetSurfaceDimensi@ 000000018007a1a0     cudart_static:cudart_cudart_global.obj
 0002:0000a1c8       ??_C@_0CA@EGPGNICI@cuD3D10ResourceGetMappedPointer?$AA@ 000000018007a1c8     cudart_static:cudart_cudart_global.obj
 0002:0000a1e8       ??_C@_0BN@KLGHLMEH@cuD3D10ResourceGetMappedSize?$AA@ 000000018007a1e8     cudart_static:cudart_cudart_global.obj
 0002:0000a208       ??_C@_0BO@CHPBCLAP@cuD3D10ResourceGetMappedPitch?$AA@ 000000018007a208     cudart_static:cudart_cudart_global.obj
 0002:0000a228       ??_C@_0CD@MNGMAHK@cuD3D9ResourceGetSurfaceDimensio@ 000000018007a228     cudart_static:cudart_cudart_global.obj
 0002:0000a250       ??_C@_0BP@LIOJNKIG@cuD3D9ResourceGetMappedPointer?$AA@ 000000018007a250     cudart_static:cudart_cudart_global.obj
 0002:0000a270       ??_C@_0BM@MHLKKOAP@cuD3D9ResourceGetMappedSize?$AA@ 000000018007a270     cudart_static:cudart_cudart_global.obj
 0002:0000a290       ??_C@_0BN@FPJKDPLP@cuD3D9ResourceGetMappedPitch?$AA@ 000000018007a290     cudart_static:cudart_cudart_global.obj
 0002:0000a2b0       ??_C@_0BG@EBIJINJH@cuD3D9MapVertexBuffer?$AA@ 000000018007a2b0     cudart_static:cudart_cudart_global.obj
 0002:0000a2c8       ??_C@_0BF@LKMNMNHM@cuGraphAddKernelNode?$AA@ 000000018007a2c8     cudart_static:cudart_cudart_global.obj
 0002:0000a2e0       ??_C@_0BL@PJDNFHPM@cuGraphKernelNodeGetParams?$AA@ 000000018007a2e0     cudart_static:cudart_cudart_global.obj
 0002:0000a300       ??_C@_0BL@NHHIHGGO@cuGraphKernelNodeSetParams?$AA@ 000000018007a300     cudart_static:cudart_cudart_global.obj
 0002:0000a320       ??_C@_0BP@OIOJDICI@cuGraphExecKernelNodeSetParams?$AA@ 000000018007a320     cudart_static:cudart_cudart_global.obj
 0002:0000a340       ??_C@_0BC@CJBCKMMG@cuGraphExecUpdate?$AA@ 000000018007a340     cudart_static:cudart_cudart_global.obj
 0002:0000a3d0       ?cudartErrorTableEntryCount@cudart@@3IB 000000018007a3d0     cudart_static:cudart_generated_error_tables.obj
 0002:0000b1e0       ??_C@_0M@KMNBMIPJ@cudaSuccess?$AA@ 000000018007b1e0     cudart_static:cudart_generated_error_tables.obj
 0002:0000b1f0       ??_C@_08PLOOINE@no?5error?$AA@ 000000018007b1f0     cudart_static:cudart_generated_error_tables.obj
 0002:0000b200       ??_C@_0BG@GDJODMMM@cudaErrorInvalidValue?$AA@ 000000018007b200     cudart_static:cudart_generated_error_tables.obj
 0002:0000b218       ??_C@_0BB@FCMFBGOM@invalid?5argument?$AA@ 000000018007b218     cudart_static:cudart_generated_error_tables.obj
 0002:0000b230       ??_C@_0BK@IKHIPDGJ@cudaErrorMemoryAllocation?$AA@ 000000018007b230     cudart_static:cudart_generated_error_tables.obj
 0002:0000b250       ??_C@_0O@BNNCBLEN@out?5of?5memory?$AA@ 000000018007b250     cudart_static:cudart_generated_error_tables.obj
 0002:0000b260       ??_C@_0BN@IMJKIHPH@cudaErrorInitializationError?$AA@ 000000018007b260     cudart_static:cudart_generated_error_tables.obj
 0002:0000b280       ??_C@_0BF@BLPPFHJN@initialization?5error?$AA@ 000000018007b280     cudart_static:cudart_generated_error_tables.obj
 0002:0000b298       ??_C@_0BJ@KGIKCKPH@cudaErrorCudartUnloading?$AA@ 000000018007b298     cudart_static:cudart_generated_error_tables.obj
 0002:0000b2b8       ??_C@_0BF@PJNBNGMN@driver?5shutting?5down?$AA@ 000000018007b2b8     cudart_static:cudart_generated_error_tables.obj
 0002:0000b2d0       ??_C@_0BK@ONFAMFBJ@cudaErrorProfilerDisabled?$AA@ 000000018007b2d0     cudart_static:cudart_generated_error_tables.obj
 0002:0000b2f0       ??_C@_0DG@EPCHFMHL@profiler?5disabled?5while?5using?5ex@ 000000018007b2f0     cudart_static:cudart_generated_error_tables.obj
 0002:0000b328       ??_C@_0CA@NCMPIFOL@cudaErrorProfilerNotInitialized?$AA@ 000000018007b328     cudart_static:cudart_generated_error_tables.obj
 0002:0000b348       ??_C@_0DI@CIPKACOI@profiler?5not?5initialized?3?5call?5c@ 000000018007b348     cudart_static:cudart_generated_error_tables.obj
 0002:0000b380       ??_C@_0CA@LKCLIMIK@cudaErrorProfilerAlreadyStarted?$AA@ 000000018007b380     cudart_static:cudart_generated_error_tables.obj
 0002:0000b3a0       ??_C@_0BJ@GKKBPOMC@profiler?5already?5started?$AA@ 000000018007b3a0     cudart_static:cudart_generated_error_tables.obj
 0002:0000b3c0       ??_C@_0CA@HFIDCJMN@cudaErrorProfilerAlreadyStopped?$AA@ 000000018007b3c0     cudart_static:cudart_generated_error_tables.obj
 0002:0000b3e0       ??_C@_0BJ@KFAJFLIF@profiler?5already?5stopped?$AA@ 000000018007b3e0     cudart_static:cudart_generated_error_tables.obj
 0002:0000b400       ??_C@_0BF@HMCHFHCH@cudaErrorStubLibrary?$AA@ 000000018007b400     cudart_static:cudart_generated_error_tables.obj
 0002:0000b418       ??_C@_0BO@INEHLNFM@CUDA?5driver?5is?5a?5stub?5library?$AA@ 000000018007b418     cudart_static:cudart_generated_error_tables.obj
 0002:0000b438       ??_C@_0BM@LKGOHDPH@cudaErrorDevicesUnavailable?$AA@ 000000018007b438     cudart_static:cudart_generated_error_tables.obj
 0002:0000b458       ??_C@_0DC@DGCDPHKL@CUDA?9capable?5device?$CIs?$CJ?5is?1are?5bu@ 000000018007b458     cudart_static:cudart_generated_error_tables.obj
 0002:0000b490       ??_C@_0BC@GABEMCGL@cudaErrorNoDevice?$AA@ 000000018007b490     cudart_static:cudart_generated_error_tables.obj
 0002:0000b4a8       ??_C@_0CD@FLLNPEOF@no?5CUDA?9capable?5device?5is?5detect@ 000000018007b4a8     cudart_static:cudart_generated_error_tables.obj
 0002:0000b4d0       ??_C@_0BH@NFPJFLAC@cudaErrorInvalidDevice?$AA@ 000000018007b4d0     cudart_static:cudart_generated_error_tables.obj
 0002:0000b4e8       ??_C@_0BH@LCBFOICE@invalid?5device?5ordinal?$AA@ 000000018007b4e8     cudart_static:cudart_generated_error_tables.obj
 0002:0000b500       ??_C@_0BL@IIGMJFKI@cudaErrorDeviceNotLicensed?$AA@ 000000018007b500     cudart_static:cudart_generated_error_tables.obj
 0002:0000b520       ??_C@_0CH@LEPLDDOB@device?5doesn?8t?5have?5valid?5Grid?5l@ 000000018007b520     cudart_static:cudart_generated_error_tables.obj
 0002:0000b548       ??_C@_0CI@PADKNGCO@cudaErrorSoftwareValidityNotEsta@ 000000018007b548     cudart_static:cudart_generated_error_tables.obj
 0002:0000b570       ??_C@_0BI@GBBOPFML@integrity?5checks?5failed?$AA@ 000000018007b570     cudart_static:cudart_generated_error_tables.obj
 0002:0000b588       ??_C@_0BM@PDACIGCJ@cudaErrorInvalidKernelImage?$AA@ 000000018007b588     cudart_static:cudart_generated_error_tables.obj
 0002:0000b5a8       ??_C@_0BP@FGECGCEB@device?5kernel?5image?5is?5invalid?$AA@ 000000018007b5a8     cudart_static:cudart_generated_error_tables.obj
 0002:0000b5c8       ??_C@_0BN@PPJNENND@cudaErrorDeviceUninitialized?$AA@ 000000018007b5c8     cudart_static:cudart_generated_error_tables.obj
 0002:0000b5e8       ??_C@_0BH@JMLFPHJH@invalid?5device?5context?$AA@ 000000018007b5e8     cudart_static:cudart_generated_error_tables.obj
 0002:0000b600       ??_C@_0BP@CNBCGLAD@cudaErrorMapBufferObjectFailed?$AA@ 000000018007b600     cudart_static:cudart_generated_error_tables.obj
 0002:0000b620       ??_C@_0CA@LNMHEHMJ@mapping?5of?5buffer?5object?5failed?$AA@ 000000018007b620     cudart_static:cudart_generated_error_tables.obj
 0002:0000b640       ??_C@_0CB@KAABLOO@cudaErrorUnmapBufferObjectFailed@ 000000018007b640     cudart_static:cudart_generated_error_tables.obj
 0002:0000b668       ??_C@_0CC@MINGMHFF@unmapping?5of?5buffer?5object?5faile@ 000000018007b668     cudart_static:cudart_generated_error_tables.obj
 0002:0000b690       ??_C@_0BH@EPNNDGNE@cudaErrorArrayIsMapped?$AA@ 000000018007b690     cudart_static:cudart_generated_error_tables.obj
 0002:0000b6a8       ??_C@_0BA@CEKPCHBN@array?5is?5mapped?$AA@ 000000018007b6a8     cudart_static:cudart_generated_error_tables.obj
 0002:0000b6b8       ??_C@_0BH@GHOCFHBM@cudaErrorAlreadyMapped?$AA@ 000000018007b6b8     cudart_static:cudart_generated_error_tables.obj
 0002:0000b6d0       ??_C@_0BI@BJDACKPB@resource?5already?5mapped?$AA@ 000000018007b6d0     cudart_static:cudart_generated_error_tables.obj
 0002:0000b6e8       ??_C@_0CA@ICNLMMDB@cudaErrorNoKernelImageForDevice?$AA@ 000000018007b6e8     cudart_static:cudart_generated_error_tables.obj
 0002:0000b708       ??_C@_0DJ@HOICDGOE@no?5kernel?5image?5is?5available?5for@ 000000018007b708     cudart_static:cudart_generated_error_tables.obj
 0002:0000b748       ??_C@_0BJ@LONMNCKM@cudaErrorAlreadyAcquired?$AA@ 000000018007b748     cudart_static:cudart_generated_error_tables.obj
 0002:0000b768       ??_C@_0BK@HLLICMFO@resource?5already?5acquired?$AA@ 000000018007b768     cudart_static:cudart_generated_error_tables.obj
 0002:0000b788       ??_C@_0BD@JDIBBJJG@cudaErrorNotMapped?$AA@ 000000018007b788     cudart_static:cudart_generated_error_tables.obj
 0002:0000b7a0       ??_C@_0BE@EEMDGKGJ@resource?5not?5mapped?$AA@ 000000018007b7a0     cudart_static:cudart_generated_error_tables.obj
 0002:0000b7b8       ??_C@_0BK@ICMNKOCB@cudaErrorNotMappedAsArray?$AA@ 000000018007b7b8     cudart_static:cudart_generated_error_tables.obj
 0002:0000b7d8       ??_C@_0BN@HJEBLNH@resource?5not?5mapped?5as?5array?$AA@ 000000018007b7d8     cudart_static:cudart_generated_error_tables.obj
 0002:0000b7f8       ??_C@_0BM@EBNHHKJB@cudaErrorNotMappedAsPointer?$AA@ 000000018007b7f8     cudart_static:cudart_generated_error_tables.obj
 0002:0000b818       ??_C@_0BP@LIDKPOPA@resource?5not?5mapped?5as?5pointer?$AA@ 000000018007b818     cudart_static:cudart_generated_error_tables.obj
 0002:0000b838       ??_C@_0BK@CJOEPHPO@cudaErrorECCUncorrectable?$AA@ 000000018007b838     cudart_static:cudart_generated_error_tables.obj
 0002:0000b858       ??_C@_0CE@MBHPDLDM@uncorrectable?5ECC?5error?5encounte@ 000000018007b858     cudart_static:cudart_generated_error_tables.obj
 0002:0000b880       ??_C@_0BK@HHPBGDGA@cudaErrorUnsupportedLimit?$AA@ 000000018007b880     cudart_static:cudart_generated_error_tables.obj
 0002:0000b8a0       ??_C@_0CM@HMJOGIKG@limit?5is?5not?5supported?5on?5this?5a@ 000000018007b8a0     cudart_static:cudart_generated_error_tables.obj
 0002:0000b8d0       ??_C@_0BM@LBOEELGD@cudaErrorDeviceAlreadyInUse?$AA@ 000000018007b8d0     cudart_static:cudart_generated_error_tables.obj
 0002:0000b8f0       ??_C@_0DN@HICHNIHM@exclusive?9thread?5device?5already?5@ 000000018007b8f0     cudart_static:cudart_generated_error_tables.obj
 0002:0000b930       ??_C@_0BP@LOEGDFFH@cudaErrorPeerAccessUnsupported?$AA@ 000000018007b930     cudart_static:cudart_generated_error_tables.obj
 0002:0000b950       ??_C@_0DH@GPCPMNCP@peer?5access?5is?5not?5supported?5bet@ 000000018007b950     cudart_static:cudart_generated_error_tables.obj
 0002:0000b988       ??_C@_0BE@LDHCMNIG@cudaErrorInvalidPtx?$AA@ 000000018007b988     cudart_static:cudart_generated_error_tables.obj
 0002:0000b9a0       ??_C@_0BN@FFIDKIJE@a?5PTX?5JIT?5compilation?5failed?$AA@ 000000018007b9a0     cudart_static:cudart_generated_error_tables.obj
 0002:0000b9c0       ??_C@_0CA@CCJGAOBP@cudaErrorInvalidGraphicsContext?$AA@ 000000018007b9c0     cudart_static:cudart_generated_error_tables.obj
 0002:0000b9e0       ??_C@_0CC@OJGKIHIE@invalid?5OpenGL?5or?5DirectX?5contex@ 000000018007b9e0     cudart_static:cudart_generated_error_tables.obj
 0002:0000ba08       ??_C@_0BN@NLMMBNCO@cudaErrorNvlinkUncorrectable?$AA@ 000000018007ba08     cudart_static:cudart_generated_error_tables.obj
 0002:0000ba28       ??_C@_0DJ@JGDPDKAI@uncorrectable?5NVLink?5error?5detec@ 000000018007ba28     cudart_static:cudart_generated_error_tables.obj
 0002:0000ba68       ??_C@_0BN@BCPDMJPP@cudaErrorJitCompilerNotFound?$AA@ 000000018007ba68     cudart_static:cudart_generated_error_tables.obj
 0002:0000ba88       ??_C@_0CD@PFANALDM@PTX?5JIT?5compiler?5library?5not?5fou@ 000000018007ba88     cudart_static:cudart_generated_error_tables.obj
 0002:0000bab0       ??_C@_0BP@GPDFBANP@cudaErrorUnsupportedPtxVersion?$AA@ 000000018007bab0     cudart_static:cudart_generated_error_tables.obj
 0002:0000bad0       ??_C@_0DN@GPAMEJLO@the?5provided?5PTX?5was?5compiled?5wi@ 000000018007bad0     cudart_static:cudart_generated_error_tables.obj
 0002:0000bb10       ??_C@_0CA@KOFKDEFD@cudaErrorJitCompilationDisabled?$AA@ 000000018007bb10     cudart_static:cudart_generated_error_tables.obj
 0002:0000bb30       ??_C@_0CB@DBLGHLFI@PTX?5JIT?5compilation?5was?5disabled@ 000000018007bb30     cudart_static:cudart_generated_error_tables.obj
 0002:0000bb58       ??_C@_0CB@EDDFHCFE@cudaErrorUnsupportedExecAffinity@ 000000018007bb58     cudart_static:cudart_generated_error_tables.obj
 0002:0000bb80       ??_C@_0DB@ILAPEMAH@the?5provided?5execution?5affinity?5@ 000000018007bb80     cudart_static:cudart_generated_error_tables.obj
 0002:0000bbb8       ??_C@_0CA@HECGIPBM@cudaErrorUnsupportedDevSideSync?$AA@ 000000018007bbb8     cudart_static:cudart_generated_error_tables.obj
 0002:0000bbe0       ??_C@_0EE@EIMLBIGC@the?5provided?5PTX?5contains?5unsupp@ 000000018007bbe0     cudart_static:cudart_generated_error_tables.obj
 0002:0000bc28       ??_C@_0BH@BGKDHAGK@cudaErrorInvalidSource?$AA@ 000000018007bc28     cudart_static:cudart_generated_error_tables.obj
 0002:0000bc40       ??_C@_0BG@OAONNKBA@cudaErrorFileNotFound?$AA@ 000000018007bc40     cudart_static:cudart_generated_error_tables.obj
 0002:0000bc58       ??_C@_0P@LJOCCCLG@file?5not?5found?$AA@ 000000018007bc58     cudart_static:cudart_generated_error_tables.obj
 0002:0000bc68       ??_C@_0CE@MMHBKANE@cudaErrorSharedObjectSymbolNotFo@ 000000018007bc68     cudart_static:cudart_generated_error_tables.obj
 0002:0000bc90       ??_C@_0BP@FBLKAJHE@shared?5object?5symbol?5not?5found?$AA@ 000000018007bc90     cudart_static:cudart_generated_error_tables.obj
 0002:0000bcb0       ??_C@_0CA@ENNKDCPN@cudaErrorSharedObjectInitFailed?$AA@ 000000018007bcb0     cudart_static:cudart_generated_error_tables.obj
 0002:0000bcd0       ??_C@_0CE@MDGOCIOL@shared?5object?5initialization?5fai@ 000000018007bcd0     cudart_static:cudart_generated_error_tables.obj
 0002:0000bcf8       ??_C@_0BJ@PEIBKBFB@cudaErrorOperatingSystem?$AA@ 000000018007bcf8     cudart_static:cudart_generated_error_tables.obj
 0002:0000bd18       ??_C@_0DF@GNKEMCOH@OS?5call?5failed?5or?5operation?5not?5@ 000000018007bd18     cudart_static:cudart_generated_error_tables.obj
 0002:0000bd50       ??_C@_0BP@IFGMDLBO@cudaErrorInvalidResourceHandle?$AA@ 000000018007bd50     cudart_static:cudart_generated_error_tables.obj
 0002:0000bd70       ??_C@_0BI@DKKOMLOI@invalid?5resource?5handle?$AA@ 000000018007bd70     cudart_static:cudart_generated_error_tables.obj
 0002:0000bd88       ??_C@_0BG@KDCNGOMC@cudaErrorIllegalState?$AA@ 000000018007bd88     cudart_static:cudart_generated_error_tables.obj
 0002:0000bda0       ??_C@_0DH@JBDBDHHG@the?5operation?5cannot?5be?5performe@ 000000018007bda0     cudart_static:cudart_generated_error_tables.obj
 0002:0000bdd8       ??_C@_0BI@BELENAAF@cudaErrorSymbolNotFound?$AA@ 000000018007bdd8     cudart_static:cudart_generated_error_tables.obj
 0002:0000bdf0       ??_C@_0BH@DHHMPOMP@named?5symbol?5not?5found?$AA@ 000000018007bdf0     cudart_static:cudart_generated_error_tables.obj
 0002:0000be08       ??_C@_0BC@NAMENOEJ@cudaErrorNotReady?$AA@ 000000018007be08     cudart_static:cudart_generated_error_tables.obj
 0002:0000be20       ??_C@_0BB@HIEOMLOI@device?5not?5ready?$AA@ 000000018007be20     cudart_static:cudart_generated_error_tables.obj
 0002:0000be38       ??_C@_0BI@IHKOGIAJ@cudaErrorIllegalAddress?$AA@ 000000018007be38     cudart_static:cudart_generated_error_tables.obj
 0002:0000be50       ??_C@_0CJ@ODGNLPHB@an?5illegal?5memory?5access?5was?5enc@ 000000018007be50     cudart_static:cudart_generated_error_tables.obj
 0002:0000be80       ??_C@_0BO@BJHGEIAC@cudaErrorLaunchOutOfResources?$AA@ 000000018007be80     cudart_static:cudart_generated_error_tables.obj
 0002:0000bea0       ??_C@_0CI@DEFLHAKM@too?5many?5resources?5requested?5for@ 000000018007bea0     cudart_static:cudart_generated_error_tables.obj
 0002:0000bec8       ??_C@_0BH@PKJBEOLC@cudaErrorLaunchTimeout?$AA@ 000000018007bec8     cudart_static:cudart_generated_error_tables.obj
 0002:0000bee0       ??_C@_0CI@KKJLOPLD@the?5launch?5timed?5out?5and?5was?5ter@ 000000018007bee0     cudart_static:cudart_generated_error_tables.obj
 0002:0000bf08       ??_C@_0CF@NCOFIBKM@cudaErrorLaunchIncompatibleTextu@ 000000018007bf08     cudart_static:cudart_generated_error_tables.obj
 0002:0000bf30       ??_C@_0CI@EHFMJBII@launch?5uses?5incompatible?5texturi@ 000000018007bf30     cudart_static:cudart_generated_error_tables.obj
 0002:0000bf58       ??_C@_0CC@FCGONEID@cudaErrorPeerAccessAlreadyEnable@ 000000018007bf58     cudart_static:cudart_generated_error_tables.obj
 0002:0000bf80       ??_C@_0BP@IMBFPBMM@peer?5access?5is?5already?5enabled?$AA@ 000000018007bf80     cudart_static:cudart_generated_error_tables.obj
 0002:0000bfa0       ??_C@_0BO@DHIBNOIA@cudaErrorPeerAccessNotEnabled?$AA@ 000000018007bfa0     cudart_static:cudart_generated_error_tables.obj
 0002:0000bfc0       ??_C@_0CB@INKPGMGI@peer?5access?5has?5not?5been?5enabled@ 000000018007bfc0     cudart_static:cudart_generated_error_tables.obj
 0002:0000bfe8       ??_C@_0BM@FDAONHPG@cudaErrorSetOnActiveProcess?$AA@ 000000018007bfe8     cudart_static:cudart_generated_error_tables.obj
 0002:0000c008       ??_C@_0DC@DANAIFHI@cannot?5set?5while?5device?5is?5activ@ 000000018007c008     cudart_static:cudart_generated_error_tables.obj
 0002:0000c040       ??_C@_0BM@NNIFKJJ@cudaErrorContextIsDestroyed?$AA@ 000000018007c040     cudart_static:cudart_generated_error_tables.obj
 0002:0000c060       ??_C@_0BF@OAAMFEC@context?5is?5destroyed?$AA@ 000000018007c060     cudart_static:cudart_generated_error_tables.obj
 0002:0000c078       ??_C@_0BA@CAPJNALO@cudaErrorAssert?$AA@ 000000018007c078     cudart_static:cudart_generated_error_tables.obj
 0002:0000c088       ??_C@_0BN@KDDIGBMJ@device?9side?5assert?5triggered?$AA@ 000000018007c088     cudart_static:cudart_generated_error_tables.obj
 0002:0000c0a8       ??_C@_0BG@DBEPBFFC@cudaErrorTooManyPeers?$AA@ 000000018007c0a8     cudart_static:cudart_generated_error_tables.obj
 0002:0000c0c0       ??_C@_0CB@JFJLDMIO@peer?5mapping?5resources?5exhausted@ 000000018007c0c0     cudart_static:cudart_generated_error_tables.obj
 0002:0000c0e8       ??_C@_0CF@KELNMKAH@cudaErrorHostMemoryAlreadyRegist@ 000000018007c0e8     cudart_static:cudart_generated_error_tables.obj
 0002:0000c110       ??_C@_0DM@CPAGHKND@part?5or?5all?5of?5the?5requested?5mem@ 000000018007c110     cudart_static:cudart_generated_error_tables.obj
 0002:0000c150       ??_C@_0CB@BOFFAFMB@cudaErrorHostMemoryNotRegistered@ 000000018007c150     cudart_static:cudart_generated_error_tables.obj
 0002:0000c178       ??_C@_0DK@DMBCEPHK@pointer?5does?5not?5correspond?5to?5a@ 000000018007c178     cudart_static:cudart_generated_error_tables.obj
 0002:0000c1b8       ??_C@_0BM@FKBNOKBB@cudaErrorHardwareStackError?$AA@ 000000018007c1b8     cudart_static:cudart_generated_error_tables.obj
 0002:0000c1d8       ??_C@_0BF@NEMILAFA@hardware?5stack?5error?$AA@ 000000018007c1d8     cudart_static:cudart_generated_error_tables.obj
 0002:0000c1f0       ??_C@_0BM@MOKOKELG@cudaErrorIllegalInstruction?$AA@ 000000018007c1f0     cudart_static:cudart_generated_error_tables.obj
 0002:0000c210       ??_C@_0CH@PIBABKMJ@an?5illegal?5instruction?5was?5encou@ 000000018007c210     cudart_static:cudart_generated_error_tables.obj
 0002:0000c238       ??_C@_0BL@MAPILABA@cudaErrorMisalignedAddress?$AA@ 000000018007c238     cudart_static:cudart_generated_error_tables.obj
 0002:0000c258       ??_C@_0BD@HNAELFP@misaligned?5address?$AA@ 000000018007c258     cudart_static:cudart_generated_error_tables.obj
 0002:0000c270       ??_C@_0BN@GLHOGCLF@cudaErrorInvalidAddressSpace?$AA@ 000000018007c270     cudart_static:cudart_generated_error_tables.obj
 0002:0000c290       ??_C@_0DH@ICGACACP@operation?5not?5supported?5on?5globa@ 000000018007c290     cudart_static:cudart_generated_error_tables.obj
 0002:0000c2c8       ??_C@_0BD@EPOKNFGA@cudaErrorInvalidPc?$AA@ 000000018007c2c8     cudart_static:cudart_generated_error_tables.obj
 0002:0000c2e0       ??_C@_0BI@BNNAGOMH@invalid?5program?5counter?$AA@ 000000018007c2e0     cudart_static:cudart_generated_error_tables.obj
 0002:0000c2f8       ??_C@_0BH@IFDJEIK@cudaErrorLaunchFailure?$AA@ 000000018007c2f8     cudart_static:cudart_generated_error_tables.obj
 0002:0000c310       ??_C@_0BL@NMIBGGJJ@unspecified?5launch?5failure?$AA@ 000000018007c310     cudart_static:cudart_generated_error_tables.obj
 0002:0000c330       ??_C@_0CD@PDALKBLO@cudaErrorCooperativeLaunchTooLar@ 000000018007c330     cudart_static:cudart_generated_error_tables.obj
 0002:0000c358       ??_C@_0CG@EMDLEBHL@too?5many?5blocks?5in?5cooperative?5l@ 000000018007c358     cudart_static:cudart_generated_error_tables.obj
 0002:0000c380       ??_C@_0BG@IPEDLIAC@cudaErrorNotPermitted?$AA@ 000000018007c380     cudart_static:cudart_generated_error_tables.obj
 0002:0000c398       ??_C@_0BI@OHIEJAAB@operation?5not?5permitted?$AA@ 000000018007c398     cudart_static:cudart_generated_error_tables.obj
 0002:0000c3b0       ??_C@_0BG@NFIBKNLO@cudaErrorNotSupported?$AA@ 000000018007c3b0     cudart_static:cudart_generated_error_tables.obj
 0002:0000c3c8       ??_C@_0BI@LNEGIFLN@operation?5not?5supported?$AA@ 000000018007c3c8     cudart_static:cudart_generated_error_tables.obj
 0002:0000c3e0       ??_C@_0BI@ELGKHAOH@cudaErrorSystemNotReady?$AA@ 000000018007c3e0     cudart_static:cudart_generated_error_tables.obj
 0002:0000c3f8       ??_C@_0BL@OCAEALFC@system?5not?5yet?5initialized?$AA@ 000000018007c3f8     cudart_static:cudart_generated_error_tables.obj
 0002:0000c418       ??_C@_0BO@NELMLNFL@cudaErrorSystemDriverMismatch?$AA@ 000000018007c418     cudart_static:cudart_generated_error_tables.obj
 0002:0000c440       ??_C@_0EA@BIEFCGLG@system?5has?5unsupported?5display?5d@ 000000018007c440     cudart_static:cudart_generated_error_tables.obj
 0002:0000c480       ??_C@_0CE@EIANGFKJ@cudaErrorCompatNotSupportedOnDev@ 000000018007c480     cudart_static:cudart_generated_error_tables.obj
 0002:0000c4a8       ??_C@_0DI@OKGKDBCE@forward?5compatibility?5was?5attemp@ 000000018007c4a8     cudart_static:cudart_generated_error_tables.obj
 0002:0000c4e0       ??_C@_0BN@OJKFJCAL@cudaErrorMpsConnectionFailed?$AA@ 000000018007c4e0     cudart_static:cudart_generated_error_tables.obj
 0002:0000c500       ??_C@_0EJ@OJGPCGII@MPS?5client?5failed?5to?5connect?5to?5@ 000000018007c500     cudart_static:cudart_generated_error_tables.obj
 0002:0000c550       ??_C@_0BH@HPEMNCKO@cudaErrorMpsRpcFailure?$AA@ 000000018007c550     cudart_static:cudart_generated_error_tables.obj
 0002:0000c570       ??_C@_0EM@OPLOBPJK@the?5remote?5procedural?5call?5betwe@ 000000018007c570     cudart_static:cudart_generated_error_tables.obj
 0002:0000c5c0       ??_C@_0BL@KOLCGGBC@cudaErrorMpsServerNotReady?$AA@ 000000018007c5c0     cudart_static:cudart_generated_error_tables.obj
 0002:0000c5e0       ??_C@_0DK@IIFPOMCO@MPS?5server?5is?5not?5ready?5to?5accep@ 000000018007c5e0     cudart_static:cudart_generated_error_tables.obj
 0002:0000c620       ??_C@_0BO@DGIFGNJF@cudaErrorMpsMaxClientsReached?$AA@ 000000018007c620     cudart_static:cudart_generated_error_tables.obj
 0002:0000c640       ??_C@_0EJ@KPHGGNEO@the?5hardware?5resources?5required?5@ 000000018007c640     cudart_static:cudart_generated_error_tables.obj
 0002:0000c690       ??_C@_0CC@ICHKHEIB@cudaErrorMpsMaxConnectionsReache@ 000000018007c690     cudart_static:cudart_generated_error_tables.obj
 0002:0000c6c0       ??_C@_0FC@GOCKFBDN@the?5hardware?5resources?5required?5@ 000000018007c6c0     cudart_static:cudart_generated_error_tables.obj
 0002:0000c718       ??_C@_0BN@KJMDKLFD@cudaErrorMpsClientTerminated?$AA@ 000000018007c718     cudart_static:cudart_generated_error_tables.obj
 0002:0000c738       ??_C@_0DB@OLMPKMKC@the?5MPS?5client?5has?5been?5terminat@ 000000018007c738     cudart_static:cudart_generated_error_tables.obj
 0002:0000c770       ??_C@_0BJ@OLBMPLGP@cudaErrorCdpNotSupported?$AA@ 000000018007c770     cudart_static:cudart_generated_error_tables.obj
 0002:0000c790       ??_C@_0GA@MPPGDDJN@is?5using?5CUDA?5Dynamic?5Parallelis@ 000000018007c790     cudart_static:cudart_generated_error_tables.obj
 0002:0000c7f0       ??_C@_0BM@HLBEACLG@cudaErrorCdpVersionMismatch?$AA@ 000000018007c7f0     cudart_static:cudart_generated_error_tables.obj
 0002:0000c810       ??_C@_0EP@CBCJMDLP@unsupported?5interaction?5between?5@ 000000018007c810     cudart_static:cudart_generated_error_tables.obj
 0002:0000c860       ??_C@_0CC@JMMNOLOG@cudaErrorStreamCaptureUnsupporte@ 000000018007c860     cudart_static:cudart_generated_error_tables.obj
 0002:0000c888       ??_C@_0DB@FPLJBFLI@operation?5not?5permitted?5when?5str@ 000000018007c888     cudart_static:cudart_generated_error_tables.obj
 0002:0000c8c0       ??_C@_0CC@BGAPHDEK@cudaErrorStreamCaptureInvalidate@ 000000018007c8c0     cudart_static:cudart_generated_error_tables.obj
 0002:0000c8e8       ??_C@_0DI@IFDCELLB@operation?5failed?5due?5to?5a?5previo@ 000000018007c8e8     cudart_static:cudart_generated_error_tables.obj
 0002:0000c920       ??_C@_0BM@CJGCJPIO@cudaErrorStreamCaptureMerge?$AA@ 000000018007c920     cudart_static:cudart_generated_error_tables.obj
 0002:0000c940       ??_C@_0EA@NDMGDLND@operation?5would?5result?5in?5a?5merg@ 000000018007c940     cudart_static:cudart_generated_error_tables.obj
 0002:0000c980       ??_C@_0CA@DJNAECNH@cudaErrorStreamCaptureUnmatched?$AA@ 000000018007c980     cudart_static:cudart_generated_error_tables.obj
 0002:0000c9a0       ??_C@_0DF@FKCKJABG@capture?5was?5not?5ended?5in?5the?5sam@ 000000018007c9a0     cudart_static:cudart_generated_error_tables.obj
 0002:0000c9d8       ??_C@_0BP@BNFKMGKA@cudaErrorStreamCaptureUnjoined?$AA@ 000000018007c9d8     cudart_static:cudart_generated_error_tables.obj
 0002:0000c9f8       ??_C@_0CD@KLBGDPAC@capturing?5stream?5has?5unjoined?5wo@ 000000018007c9f8     cudart_static:cudart_generated_error_tables.obj
 0002:0000ca20       ??_C@_0CA@LECADCKJ@cudaErrorStreamCaptureIsolation?$AA@ 000000018007ca20     cudart_static:cudart_generated_error_tables.obj
 0002:0000ca40       ??_C@_0DI@PINPBDDE@dependency?5created?5on?5uncaptured@ 000000018007ca40     cudart_static:cudart_generated_error_tables.obj
 0002:0000ca78       ??_C@_0BP@CNKJPCOA@cudaErrorStreamCaptureImplicit?$AA@ 000000018007ca78     cudart_static:cudart_generated_error_tables.obj
 0002:0000caa0       ??_C@_0EN@IABGNGGP@operation?5would?5make?5the?5legacy?5@ 000000018007caa0     cudart_static:cudart_generated_error_tables.obj
 0002:0000caf0       ??_C@_0BH@PAGANMIE@cudaErrorCapturedEvent?$AA@ 000000018007caf0     cudart_static:cudart_generated_error_tables.obj
 0002:0000cb10       ??_C@_0EI@EDPLLDFH@operation?5not?5permitted?5on?5an?5ev@ 000000018007cb10     cudart_static:cudart_generated_error_tables.obj
 0002:0000cb58       ??_C@_0CC@HIDIBDJM@cudaErrorStreamCaptureWrongThrea@ 000000018007cb58     cudart_static:cudart_generated_error_tables.obj
 0002:0000cb80       ??_C@_0EJ@IIBPCLPC@attempt?5to?5terminate?5a?5thread?9lo@ 000000018007cb80     cudart_static:cudart_generated_error_tables.obj
 0002:0000cbd0       ??_C@_0BB@KDCKBPI@cudaErrorTimeout?$AA@ 000000018007cbd0     cudart_static:cudart_generated_error_tables.obj
 0002:0000cbe8       ??_C@_0BJ@BEGJACMO@wait?5operation?5timed?5out?$AA@ 000000018007cbe8     cudart_static:cudart_generated_error_tables.obj
 0002:0000cc08       ??_C@_0CA@CPMMENAC@cudaErrorGraphExecUpdateFailure?$AA@ 000000018007cc08     cudart_static:cudart_generated_error_tables.obj
 0002:0000cc30       ??_C@_0IA@CDJDIJIH@the?5graph?5update?5was?5not?5perform@ 000000018007cc30     cudart_static:cudart_generated_error_tables.obj
 0002:0000ccb0       ??_C@_0BI@FFNOEBBP@cudaErrorExternalDevice?$AA@ 000000018007ccb0     cudart_static:cudart_generated_error_tables.obj
 0002:0000ccc8       ??_C@_0DO@BOKHIIDD@an?5async?5error?5has?5occured?5in?5ex@ 000000018007ccc8     cudart_static:cudart_generated_error_tables.obj
 0002:0000cd08       ??_C@_0BM@LFHPONCO@cudaErrorInvalidClusterSize?$AA@ 000000018007cd08     cudart_static:cudart_generated_error_tables.obj
 0002:0000cd30       ??_C@_0ED@LCMGJPDD@a?5kernel?5launch?5error?5has?5occurr@ 000000018007cd30     cudart_static:cudart_generated_error_tables.obj
 0002:0000cd78       ??_C@_0BB@BBBPGDFB@cudaErrorUnknown?$AA@ 000000018007cd78     cudart_static:cudart_generated_error_tables.obj
 0002:0000cd90       ??_C@_0O@BFJCFAAK@unknown?5error?$AA@ 000000018007cd90     cudart_static:cudart_generated_error_tables.obj
 0002:0000cda0       ??_C@_0BO@KNOFJMF@cudaErrorMissingConfiguration?$AA@ 000000018007cda0     cudart_static:cudart_generated_error_tables.obj
 0002:0000cdc0       ??_C@_0CL@HJGAFIOE@__global__?5function?5call?5is?5not?5@ 000000018007cdc0     cudart_static:cudart_generated_error_tables.obj
 0002:0000cdf0       ??_C@_0BM@IMMKADNB@cudaErrorPriorLaunchFailure?$AA@ 000000018007cdf0     cudart_static:cudart_generated_error_tables.obj
 0002:0000ce10       ??_C@_0CL@FOOAOBNM@unspecified?5launch?5failure?5in?5pr@ 000000018007ce10     cudart_static:cudart_generated_error_tables.obj
 0002:0000ce40       ??_C@_0BP@POCHJJEP@cudaErrorInvalidDeviceFunction?$AA@ 000000018007ce40     cudart_static:cudart_generated_error_tables.obj
 0002:0000ce60       ??_C@_0BI@IJOAGNOP@invalid?5device?5function?$AA@ 000000018007ce60     cudart_static:cudart_generated_error_tables.obj
 0002:0000ce78       ??_C@_0BO@PELEDPEM@cudaErrorInvalidConfiguration?$AA@ 000000018007ce78     cudart_static:cudart_generated_error_tables.obj
 0002:0000ce98       ??_C@_0BP@MFPMNJPL@invalid?5configuration?5argument?$AA@ 000000018007ce98     cudart_static:cudart_generated_error_tables.obj
 0002:0000ceb8       ??_C@_0BL@FNPJBEBK@cudaErrorInvalidPitchValue?$AA@ 000000018007ceb8     cudart_static:cudart_generated_error_tables.obj
 0002:0000ced8       ??_C@_0BH@PPNKDKOD@invalid?5pitch?5argument?$AA@ 000000018007ced8     cudart_static:cudart_generated_error_tables.obj
 0002:0000cef0       ??_C@_0BH@BLHNFIBN@cudaErrorInvalidSymbol?$AA@ 000000018007cef0     cudart_static:cudart_generated_error_tables.obj
 0002:0000cf08       ??_C@_0BG@EICDNGLJ@invalid?5device?5symbol?$AA@ 000000018007cf08     cudart_static:cudart_generated_error_tables.obj
 0002:0000cf20       ??_C@_0BM@GNBGGALL@cudaErrorInvalidHostPointer?$AA@ 000000018007cf20     cudart_static:cudart_generated_error_tables.obj
 0002:0000cf40       ??_C@_0BF@MANGCFKK@invalid?5host?5pointer?$AA@ 000000018007cf40     cudart_static:cudart_generated_error_tables.obj
 0002:0000cf58       ??_C@_0BO@DDBBOPJK@cudaErrorInvalidDevicePointer?$AA@ 000000018007cf58     cudart_static:cudart_generated_error_tables.obj
 0002:0000cf78       ??_C@_0BH@PDNFNJJL@invalid?5device?5pointer?$AA@ 000000018007cf78     cudart_static:cudart_generated_error_tables.obj
 0002:0000cf90       ??_C@_0BI@EEILLJEL@cudaErrorInvalidTexture?$AA@ 000000018007cf90     cudart_static:cudart_generated_error_tables.obj
 0002:0000cfa8       ??_C@_0BK@FOLOEBK@invalid?5texture?5reference?$AA@ 000000018007cfa8     cudart_static:cudart_generated_error_tables.obj
 0002:0000cfc8       ??_C@_0BP@KMIIPNBF@cudaErrorInvalidTextureBinding?$AA@ 000000018007cfc8     cudart_static:cudart_generated_error_tables.obj
 0002:0000cfe8       ??_C@_0CC@GKNECKPK@texture?5is?5not?5bound?5to?5a?5pointe@ 000000018007cfe8     cudart_static:cudart_generated_error_tables.obj
 0002:0000d010       ??_C@_0CC@FFMJNKHO@cudaErrorInvalidChannelDescripto@ 000000018007d010     cudart_static:cudart_generated_error_tables.obj
 0002:0000d038       ??_C@_0BL@DOIGEJPO@invalid?5channel?5descriptor?$AA@ 000000018007d038     cudart_static:cudart_generated_error_tables.obj
 0002:0000d058       ??_C@_0CA@KIOIBPDF@cudaErrorInvalidMemcpyDirection?$AA@ 000000018007d058     cudart_static:cudart_generated_error_tables.obj
 0002:0000d078       ??_C@_0CC@PHJKIMEC@invalid?5copy?5direction?5for?5memcp@ 000000018007d078     cudart_static:cudart_generated_error_tables.obj
 0002:0000d0a0       ??_C@_0BL@OIBJGNIO@cudaErrorAddressOfConstant?$AA@ 000000018007d0a0     cudart_static:cudart_generated_error_tables.obj
 0002:0000d0c0       ??_C@_0BM@LKIEEBKD@invalid?5address?5of?5constant?$AA@ 000000018007d0c0     cudart_static:cudart_generated_error_tables.obj
 0002:0000d0e0       ??_C@_0BM@FFFGOKNM@cudaErrorTextureFetchFailed?$AA@ 000000018007d0e0     cudart_static:cudart_generated_error_tables.obj
 0002:0000d100       ??_C@_0BK@DCLCAPAD@fetch?5from?5texture?5failed?$AA@ 000000018007d100     cudart_static:cudart_generated_error_tables.obj
 0002:0000d120       ??_C@_0BJ@EGCKNKDG@cudaErrorTextureNotBound?$AA@ 000000018007d120     cudart_static:cudart_generated_error_tables.obj
 0002:0000d140       ??_C@_0CO@BOBNGLB@cannot?5fetch?5from?5a?5texture?5that@ 000000018007d140     cudart_static:cudart_generated_error_tables.obj
 0002:0000d170       ??_C@_0BO@KIAINAIN@cudaErrorSynchronizationError?$AA@ 000000018007d170     cudart_static:cudart_generated_error_tables.obj
 0002:0000d190       ??_C@_0CB@FBCNLAFM@incorrect?5use?5of?5__syncthreads?$CI?$CJ@ 000000018007d190     cudart_static:cudart_generated_error_tables.obj
 0002:0000d1b8       ??_C@_0BO@CIEDABBO@cudaErrorInvalidFilterSetting?$AA@ 000000018007d1b8     cudart_static:cudart_generated_error_tables.obj
 0002:0000d1d8       ??_C@_0DC@OPMKHFLG@linear?5filtering?5not?5supported?5f@ 000000018007d1d8     cudart_static:cudart_generated_error_tables.obj
 0002:0000d210       ??_C@_0BM@ELPOBKDD@cudaErrorInvalidNormSetting?$AA@ 000000018007d210     cudart_static:cudart_generated_error_tables.obj
 0002:0000d230       ??_C@_0EB@HOCMFDLN@read?5as?5normalized?5float?5not?5sup@ 000000018007d230     cudart_static:cudart_generated_error_tables.obj
 0002:0000d278       ??_C@_0BO@FCNCOLGP@cudaErrorMixedDeviceExecution?$AA@ 000000018007d278     cudart_static:cudart_generated_error_tables.obj
 0002:0000d2a0       ??_C@_0EA@GNFPOPGM@device?5emulation?5mode?5and?5device@ 000000018007d2a0     cudart_static:cudart_generated_error_tables.obj
 0002:0000d2e0       ??_C@_0BL@EPDIBLBJ@cudaErrorNotYetImplemented?$AA@ 000000018007d2e0     cudart_static:cudart_generated_error_tables.obj
 0002:0000d300       ??_C@_0BM@KGHEMAH@feature?5not?5yet?5implemented?$AA@ 000000018007d300     cudart_static:cudart_generated_error_tables.obj
 0002:0000d320       ??_C@_0BN@JCLGPGEM@cudaErrorMemoryValueTooLarge?$AA@ 000000018007d320     cudart_static:cudart_generated_error_tables.obj
 0002:0000d340       ??_C@_0DI@KJOPIKFF@memory?5size?5or?5pointer?5value?5too@ 000000018007d340     cudart_static:cudart_generated_error_tables.obj
 0002:0000d378       ??_C@_0BM@IOOPDMEM@cudaErrorInsufficientDriver?$AA@ 000000018007d378     cudart_static:cudart_generated_error_tables.obj
 0002:0000d398       ??_C@_0DN@LOBAOHNB@CUDA?5driver?5version?5is?5insuffici@ 000000018007d398     cudart_static:cudart_generated_error_tables.obj
 0002:0000d3d8       ??_C@_0CB@BJHNNMPP@cudaErrorCallRequiresNewerDriver@ 000000018007d3d8     cudart_static:cudart_generated_error_tables.obj
 0002:0000d400       ??_C@_0DH@HHBNAFFE@API?5call?5is?5not?5supported?5in?5the@ 000000018007d400     cudart_static:cudart_generated_error_tables.obj
 0002:0000d438       ??_C@_0BI@FALEMCJH@cudaErrorInvalidSurface?$AA@ 000000018007d438     cudart_static:cudart_generated_error_tables.obj
 0002:0000d450       ??_C@_0BK@PNEMCPNJ@invalid?5surface?5reference?$AA@ 000000018007d450     cudart_static:cudart_generated_error_tables.obj
 0002:0000d470       ??_C@_0BP@BFIOHIOK@cudaErrorDuplicateVariableName?$AA@ 000000018007d470     cudart_static:cudart_generated_error_tables.obj
 0002:0000d490       ??_C@_0DD@NIOFMKBF@duplicate?5global?5variable?5looked@ 000000018007d490     cudart_static:cudart_generated_error_tables.obj
 0002:0000d4c8       ??_C@_0BO@EIGBMOLO@cudaErrorDuplicateTextureName?$AA@ 000000018007d4c8     cudart_static:cudart_generated_error_tables.obj
 0002:0000d4e8       ??_C@_0CL@LAMJCCLF@duplicate?5texture?5looked?5up?5by?5s@ 000000018007d4e8     cudart_static:cudart_generated_error_tables.obj
 0002:0000d518       ??_C@_0BO@DOEDLBGP@cudaErrorDuplicateSurfaceName?$AA@ 000000018007d518     cudart_static:cudart_generated_error_tables.obj
 0002:0000d538       ??_C@_0CL@IENMBAKE@duplicate?5surface?5looked?5up?5by?5s@ 000000018007d538     cudart_static:cudart_generated_error_tables.obj
 0002:0000d568       ??_C@_0CD@JOMAJEHJ@cudaErrorIncompatibleDriverConte@ 000000018007d568     cudart_static:cudart_generated_error_tables.obj
 0002:0000d590       ??_C@_0BM@OAFFPLJL@incompatible?5driver?5context?$AA@ 000000018007d590     cudart_static:cudart_generated_error_tables.obj
 0002:0000d5b0       ??_C@_0CA@EGEJCLPJ@cudaErrorLaunchMaxDepthExceeded?$AA@ 000000018007d5b0     cudart_static:cudart_generated_error_tables.obj
 0002:0000d5d0       ??_C@_0DF@OBPAIEBG@launch?5would?5exceed?5maximum?5dept@ 000000018007d5d0     cudart_static:cudart_generated_error_tables.obj
 0002:0000d608       ??_C@_0BN@KIKFBJIA@cudaErrorLaunchFileScopedTex?$AA@ 000000018007d608     cudart_static:cudart_generated_error_tables.obj
 0002:0000d630       ??_C@_0GE@IHEGPPBN@launch?5failed?5because?5kernel?5use@ 000000018007d630     cudart_static:cudart_generated_error_tables.obj
 0002:0000d698       ??_C@_0BO@DBBJOEEB@cudaErrorLaunchFileScopedSurf?$AA@ 000000018007d698     cudart_static:cudart_generated_error_tables.obj
 0002:0000d6c0       ??_C@_0GE@FFNHDAHH@launch?5failed?5because?5kernel?5use@ 000000018007d6c0     cudart_static:cudart_generated_error_tables.obj
 0002:0000d728       ??_C@_0BL@HEMLCCAN@cudaErrorSyncDepthExceeded?$AA@ 000000018007d728     cudart_static:cudart_generated_error_tables.obj
 0002:0000d750       ??_C@_0FO@OPAJDABO@cudaDeviceSynchronize?5failed?5bec@ 000000018007d750     cudart_static:cudart_generated_error_tables.obj
 0002:0000d7b0       ??_C@_0CE@DEIIPNNI@cudaErrorLaunchPendingCountExcee@ 000000018007d7b0     cudart_static:cudart_generated_error_tables.obj
 0002:0000d7e0       ??_C@_0FA@DBDNOKEP@launch?5failed?5because?5launch?5wou@ 000000018007d7e0     cudart_static:cudart_generated_error_tables.obj
 0002:0000d830       ??_C@_0BI@OLNBGKMG@cudaErrorStartupFailure?$AA@ 000000018007d830     cudart_static:cudart_generated_error_tables.obj
 0002:0000d848       ??_C@_0CA@PBFNKNIL@startup?5failure?5in?5cuda?5runtime?$AA@ 000000018007d848     cudart_static:cudart_generated_error_tables.obj
 0002:0000d868       ??_C@_0BI@HBIMIELD@cudaErrorApiFailureBase?$AA@ 000000018007d868     cudart_static:cudart_generated_error_tables.obj
 0002:0000d880       ??_C@_0BB@LNIIOJEG@api?5failure?5base?$AA@ 000000018007d880     cudart_static:cudart_generated_error_tables.obj
 0002:0000d898       ??_C@_1BK@BDAIHEB@?$AAn?$AAv?$AAl?$AAd?$AAu?$AAm?$AAd?$AAx?$AA?4?$AAd?$AAl?$AAl?$AA?$AA@ 000000018007d898     cudart_static:cudart_nvSecureLoadLibrary.obj
 0002:0000d8b8       ??_C@_1BI@NBDNPACJ@?$AAn?$AAv?$AAl?$AAd?$AAu?$AAm?$AAd?$AA?4?$AAd?$AAl?$AAl?$AA?$AA@ 000000018007d8b8     cudart_static:cudart_nvSecureLoadLibrary.obj
 0002:0000d8d0       ??_C@_1FG@NGDBGILC@?$AAP?$AAC?$AAI?$AA?2?$AAV?$AAE?$AAN?$AA_?$AA1?$AA0?$AAD?$AAE?$AA?$CG?$AAC?$AAC?$AA_?$AA0?$AA3?$AA0?$AA0?$AA?$AA?$AAP?$AAC?$AAI?$AA?2?$AAV?$AAE?$AAN?$AA_?$AA1?$AA0?$AAD@ 000000018007d8d0     cudart_static:cudart_nvSecureLoadLibrary.obj
 0002:0000d93c       ??_C@_11LOCGONAA@?$AA?$AA@ 000000018007d93c     cudart_static:cudart_nvSecureLoadLibrary.obj
 0002:0000d940       ??_C@_0L@JAMOPHDE@?2mfpmp?4exe?$AA@ 000000018007d940     cudart_static:cudart_nvSecureLoadLibrary.obj
 0002:0000d950       ??_C@_1BG@LKKIPLAJ@?$AAm?$AAs?$AAa?$AAs?$AAn?$AA1?$AA?4?$AAd?$AAl?$AAl?$AA?$AA@ 000000018007d950     cudart_static:cudart_nvSecureLoadLibrary.obj
 0002:0000d968       ??_C@_1BK@OCFMFHPC@?$AAc?$AAr?$AAy?$AAp?$AAt?$AAn?$AAe?$AAt?$AA?4?$AAd?$AAl?$AAl?$AA?$AA@ 000000018007d968     cudart_static:cudart_nvSecureLoadLibrary.obj
 0002:0000d988       ??_C@_1BK@HDAGNPPA@?$AAd?$AAr?$AAv?$AAs?$AAt?$AAo?$AAr?$AAe?$AA?4?$AAd?$AAl?$AAl?$AA?$AA@ 000000018007d988     cudart_static:cudart_nvSecureLoadLibrary.obj
 0002:0000d9a8       ??_C@_1BG@JJLCFLDM@?$AAd?$AAe?$AAv?$AAo?$AAb?$AAj?$AA?4?$AAd?$AAl?$AAl?$AA?$AA@ 000000018007d9a8     cudart_static:cudart_nvSecureLoadLibrary.obj
 0002:0000d9c0       ??_C@_1BC@JEAJGLKP@?$AAw?$AAl?$AAd?$AAp?$AA?4?$AAd?$AAl?$AAl?$AA?$AA@ 000000018007d9c0     cudart_static:cudart_nvSecureLoadLibrary.obj
 0002:0000d9d8       ??_C@_1BM@BEPMONOA@?$AAc?$AAr?$AAy?$AAp?$AAt?$AAb?$AAa?$AAs?$AAe?$AA?4?$AAd?$AAl?$AAl?$AA?$AA@ 000000018007d9d8     cudart_static:cudart_nvSecureLoadLibrary.obj
 0002:0000d9f4       ??_C@_15DCJHMPDG@?$AAn?$AAv?$AA?$AA@ 000000018007d9f4     cudart_static:cudart_nvSecureLoadLibrary.obj
 0002:0000d9fc       ??_C@_13NEIAEHFG@?$AA?$CC?$AA?$AA@ 000000018007d9fc     cudart_static:cudart_nvSecureLoadLibrary.obj
 0002:0000da00       ??_C@_13HOIJIPNN@?$AA?5?$AA?$AA@ 000000018007da00     cudart_static:cudart_nvSecureLoadLibrary.obj
 0002:0000da08       ??_C@_1BK@BIGILECK@?$AAA?$AAd?$AAv?$AAa?$AAp?$AAi?$AA3?$AA2?$AA?4?$AAd?$AAl?$AAl?$AA?$AA@ 000000018007da08     cudart_static:cudart_nvSecureLoadLibrary.obj
 0002:0000da28       ??_C@_0BF@EPMGKKHC@CreateProcessAsUserW?$AA@ 000000018007da28     cudart_static:cudart_nvSecureLoadLibrary.obj
 0002:0000da40       ??_C@_0BF@FDFOBPKF@CreateProcessAsUserA?$AA@ 000000018007da40     cudart_static:cudart_nvSecureLoadLibrary.obj
 0002:0000da58       ??_C@_1BI@ODIMJCCA@?$AAS?$AAh?$AAe?$AAl?$AAl?$AA3?$AA2?$AA?4?$AAd?$AAl?$AAl?$AA?$AA@ 000000018007da58     cudart_static:cudart_nvSecureLoadLibrary.obj
 0002:0000da70       ??_C@_0O@MOHFGHHE@ShellExecuteA?$AA@ 000000018007da70     cudart_static:cudart_nvSecureLoadLibrary.obj
 0002:0000da80       ??_C@_0O@NCONNCKD@ShellExecuteW?$AA@ 000000018007da80     cudart_static:cudart_nvSecureLoadLibrary.obj
 0002:0000da90       ??_C@_0BA@KEGHFGIH@ShellExecuteExA?$AA@ 000000018007da90     cudart_static:cudart_nvSecureLoadLibrary.obj
 0002:0000daa0       ??_C@_0BA@LIPPODFA@ShellExecuteExW?$AA@ 000000018007daa0     cudart_static:cudart_nvSecureLoadLibrary.obj
 0002:0000dab0       ??_C@_0BB@JLFMFIGE@SHGetFolderPathW?$AA@ 000000018007dab0     cudart_static:cudart_nvSecureLoadLibrary.obj
 0002:0000dac4       ??_C@_13FPGAJAPJ@?$AA?2?$AA?$AA@ 000000018007dac4     cudart_static:cudart_nvSecureLoadLibrary.obj
 0002:0000dac8       ??_C@_0P@LEIGFCJD@OpenSCManagerW?$AA@ 000000018007dac8     cudart_static:cudart_nvSecureLoadLibrary.obj
 0002:0000dad8       ??_C@_0N@NDJOABJF@OpenServiceW?$AA@ 000000018007dad8     cudart_static:cudart_nvSecureLoadLibrary.obj
 0002:0000dae8       ??_C@_0BD@PMIABNOP@QueryServiceStatus?$AA@ 000000018007dae8     cudart_static:cudart_nvSecureLoadLibrary.obj
 0002:0000db00       ??_C@_0BD@DLOBKKPI@CloseServiceHandle?$AA@ 000000018007db00     cudart_static:cudart_nvSecureLoadLibrary.obj
 0002:0000db18       ??_C@_1BC@CALJKBMN@?$AAC?$AAr?$AAy?$AAp?$AAt?$AAS?$AAv?$AAc?$AA?$AA@ 000000018007db18     cudart_static:cudart_nvSecureLoadLibrary.obj
 0002:0000db30       ??_C@_1BI@MIELKEKL@?$AAc?$AAr?$AAy?$AAp?$AAt?$AA3?$AA2?$AA?4?$AAd?$AAl?$AAl?$AA?$AA@ 000000018007db30     cudart_static:cudart_nvSecureLoadLibrary.obj
 0002:0000db48       ??_C@_1BK@DJNBDBNL@?$AAw?$AAi?$AAn?$AAt?$AAr?$AAu?$AAs?$AAt?$AA?4?$AAd?$AAl?$AAl?$AA?$AA@ 000000018007db48     cudart_static:cudart_nvSecureLoadLibrary.obj
 0002:0000db68       ??_C@_0BD@EECOCLLK@CertGetNameStringA?$AA@ 000000018007db68     cudart_static:cudart_nvSecureLoadLibrary.obj
 0002:0000db80       ??_C@_0BE@BCOGDMN@CryptDecodeObjectEx?$AA@ 000000018007db80     cudart_static:cudart_nvSecureLoadLibrary.obj
 0002:0000db98       ??_C@_0BL@PJJPAKMH@CertFreeCertificateContext?$AA@ 000000018007db98     cudart_static:cudart_nvSecureLoadLibrary.obj
 0002:0000dbb8       ??_C@_0BL@FFHIDOLI@CertFindCertificateInStore?$AA@ 000000018007dbb8     cudart_static:cudart_nvSecureLoadLibrary.obj
 0002:0000dbd8       ??_C@_0CC@JMLNMNCC@CertGetIssuerCertificateFromStor@ 000000018007dbd8     cudart_static:cudart_nvSecureLoadLibrary.obj
 0002:0000dc00       ??_C@_0BB@LAECONPA@CryptMsgGetParam?$AA@ 000000018007dc00     cudart_static:cudart_nvSecureLoadLibrary.obj
 0002:0000dc18       ??_C@_0BB@NLOOICEF@CryptQueryObject?$AA@ 000000018007dc18     cudart_static:cudart_nvSecureLoadLibrary.obj
 0002:0000dc30       ??_C@_0O@MKDCBNNB@CryptMsgClose?$AA@ 000000018007dc30     cudart_static:cudart_nvSecureLoadLibrary.obj
 0002:0000dc40       ??_C@_0P@FADIKHJH@CertCloseStore?$AA@ 000000018007dc40     cudart_static:cudart_nvSecureLoadLibrary.obj
 0002:0000dc50       ??_C@_0P@CBOPOJKE@WinVerifyTrust?$AA@ 000000018007dc50     cudart_static:cudart_nvSecureLoadLibrary.obj
 0002:0000dc60       ??_C@_0BO@OEKMNOJM@WTHelperProvDataFromStateData?$AA@ 000000018007dc60     cudart_static:cudart_nvSecureLoadLibrary.obj
 0002:0000dc80       ??_C@_0BN@OEHKFGKC@WTHelperGetProvCertFromChain?$AA@ 000000018007dc80     cudart_static:cudart_nvSecureLoadLibrary.obj
 0002:0000dca0       ??_C@_0BP@BBMCBEAG@WTHelperGetProvSignerFromChain?$AA@ 000000018007dca0     cudart_static:cudart_nvSecureLoadLibrary.obj
 0002:0000dcc0       ??_C@_07GBCLFNAL@NVIDIA?5?$AA@ 000000018007dcc0     cudart_static:cudart_nvSecureLoadLibrary.obj
 0002:0000dcc8       ??_C@_19BHIGINDB@?$AA?4?$AAd?$AAl?$AAl?$AA?$AA@ 000000018007dcc8     cudart_static:cudart_nvSecureLoadLibrary.obj
 0002:0000dcd8       ??_C@_19DKJJGBOC@?$AA?4?$AAs?$AAy?$AAs?$AA?$AA@ 000000018007dcd8     cudart_static:cudart_nvSecureLoadLibrary.obj
 0002:0000dce8       ??_C@_1CM@BOJFJANK@?$AAU?$AAs?$AAe?$AAr?$AAM?$AAo?$AAd?$AAe?$AAD?$AAr?$AAi?$AAv?$AAe?$AAr?$AAN?$AAa?$AAm?$AAe?$AAW?$AAo?$AAw?$AA?$AA@ 000000018007dce8     cudart_static:cudart_nvSecureLoadLibrary.obj
 0002:0000dd18       ??_C@_1CI@KEDLBJIA@?$AAO?$AAp?$AAe?$AAn?$AAG?$AAL?$AAD?$AAr?$AAi?$AAv?$AAe?$AAr?$AAN?$AAa?$AAm?$AAe?$AAW?$AAo?$AAw?$AA?$AA@ 000000018007dd18     cudart_static:cudart_nvSecureLoadLibrary.obj
 0002:0000dd40       ??_C@_1DG@JJIPMOCJ@?$AAU?$AAs?$AAe?$AAr?$AAM?$AAo?$AAd?$AAe?$AAD?$AAL?$AAi?$AAs?$AAt?$AAD?$AAr?$AAi?$AAv?$AAe?$AAr?$AAN?$AAa?$AAm?$AAe?$AAW?$AAo?$AAw?$AA?$AA@ 000000018007dd40     cudart_static:cudart_nvSecureLoadLibrary.obj
 0002:0000dd78       ??_C@_1CG@BLOGGIKH@?$AAU?$AAs?$AAe?$AAr?$AAM?$AAo?$AAd?$AAe?$AAD?$AAr?$AAi?$AAv?$AAe?$AAr?$AAN?$AAa?$AAm?$AAe?$AA?$AA@ 000000018007dd78     cudart_static:cudart_nvSecureLoadLibrary.obj
 0002:0000dda0       ??_C@_1CC@HIKAIHFI@?$AAO?$AAp?$AAe?$AAn?$AAG?$AAL?$AAD?$AAr?$AAi?$AAv?$AAe?$AAr?$AAN?$AAa?$AAm?$AAe?$AA?$AA@ 000000018007dda0     cudart_static:cudart_nvSecureLoadLibrary.obj
 0002:0000ddc8       ??_C@_1DA@KCHHIAKC@?$AAU?$AAs?$AAe?$AAr?$AAM?$AAo?$AAd?$AAe?$AAD?$AAL?$AAi?$AAs?$AAt?$AAD?$AAr?$AAi?$AAv?$AAe?$AAr?$AAN?$AAa?$AAm?$AAe?$AA?$AA@ 000000018007ddc8     cudart_static:cudart_nvSecureLoadLibrary.obj
 0002:0000de00       ??_C@_1EA@PJLIFJCK@?$AAS?$AAO?$AAF?$AAT?$AAW?$AAA?$AAR?$AAE?$AA?2?$AAK?$AAh?$AAr?$AAo?$AAn?$AAo?$AAs?$AA?2?$AAV?$AAu?$AAl?$AAk?$AAa?$AAn?$AA?2?$AAD?$AAr?$AAi?$AAv?$AAe?$AAr?$AAs?$AA?$AA@ 000000018007de00     cudart_static:cudart_nvSecureLoadLibrary.obj
 0002:0000de40       ??_C@_1EA@CDBLFBM@?$AAS?$AAO?$AAF?$AAT?$AAW?$AAA?$AAR?$AAE?$AA?2?$AAK?$AAh?$AAr?$AAo?$AAn?$AAo?$AAs?$AA?2?$AAO?$AAp?$AAe?$AAn?$AAC?$AAL?$AA?2?$AAV?$AAe?$AAn?$AAd?$AAo?$AAr?$AAs?$AA?$AA@ 000000018007de40     cudart_static:cudart_nvSecureLoadLibrary.obj
 0002:0000de80       ??_C@_1DA@CKLKMNJC@?$AAD?$AAr?$AAi?$AAv?$AAe?$AAr?$AAS?$AAu?$AAp?$AAp?$AAo?$AAr?$AAt?$AAM?$AAo?$AAd?$AAu?$AAl?$AAe?$AAs?$AAW?$AAo?$AAw?$AA?$AA@ 000000018007de80     cudart_static:cudart_nvSecureLoadLibrary.obj
 0002:0000deb0       ??_C@_1CK@LONCKOLI@?$AAD?$AAr?$AAi?$AAv?$AAe?$AAr?$AAS?$AAu?$AAp?$AAp?$AAo?$AAr?$AAt?$AAM?$AAo?$AAd?$AAu?$AAl?$AAe?$AAs?$AA?$AA@ 000000018007deb0     cudart_static:cudart_nvSecureLoadLibrary.obj
 0002:0000dee0       ??_C@_1BE@BCGFHNLP@?$AAg?$AAd?$AAi?$AA3?$AA2?$AA?4?$AAd?$AAl?$AAl?$AA?$AA@ 000000018007dee0     cudart_static:cudart_nvSecureLoadLibrary.obj
 0002:0000def8       ??_C@_0BE@EKHPPEOE@D3DKMTEnumAdapters2?$AA@ 000000018007def8     cudart_static:cudart_nvSecureLoadLibrary.obj
 0002:0000df10       ??_C@_0BH@KJKPNIBA@D3DKMTQueryAdapterInfo?$AA@ 000000018007df10     cudart_static:cudart_nvSecureLoadLibrary.obj
 0002:0000df28       ??_C@_0BE@FDGEMFKF@D3DKMTEnumAdapters3?$AA@ 000000018007df28     cudart_static:cudart_nvSecureLoadLibrary.obj
 0002:0000df40       ??_C@_1CM@ICHMMDGI@?$AA?2?$AAS?$AAy?$AAs?$AAt?$AAe?$AAm?$AAR?$AAo?$AAo?$AAt?$AA?2?$AAs?$AAy?$AAs?$AAt?$AAe?$AAm?$AA3?$AA2?$AA?2?$AA?$AA@ 000000018007df40     cudart_static:cudart_nvSecureLoadLibrary.obj
